Archive member included to satisfy reference by file (symbol)

C:/TOOLS/NXP/gcc-9.2-arm32-eabi/arm-none-eabi/newlib/lib/thumb/v7-m/nofp\libc.a(lib_a-memcpy-stub.o)
                              obj/external/Components/Dcm/Implementation/Dcm_Svc2ASchd.o (memcpy)
C:/TOOLS/NXP/gcc-9.2-arm32-eabi/arm-none-eabi/newlib/lib/thumb/v7-m/nofp\libc.a(lib_a-memset.o)
                              obj/external/Components/Fee/Implementation/Fee_Partition.o (memset)

Memory Configuration

Name             Origin             Length             Attributes
CoreExceptions_FirstExecInst 0x34000000         0x00000040
StartupCode_FirstExecInst 0x34000040         0x00000400
SRAM0            0x34000440         0x00007bc0
SRAM_RESERVED    0x34008000         0x00071c00
SRAM2            0x34079c00         0x00106400
SRAM_ipc_shm_rx  0x34180000         0x00080000
SRAM_ipc_shm_tx  0x34200000         0x00080000
StartupStack_Shared 0x34280000         0x0000ebb0
Variables_Shared 0x342fbff0         0x00000010
*default*        0x00000000         0xffffffff

Linker script and memory map

                0x00080000                ipc_shm_size = LENGTH (SRAM_ipc_shm_tx)
                0x34200000                local_shm_start = ORIGIN (SRAM_ipc_shm_tx)
                0x34280000                local_shm_end = (ORIGIN (SRAM_ipc_shm_tx) + ipc_shm_size)
                0x34180000                remote_shm_start = ORIGIN (SRAM_ipc_shm_rx)
                0x34200000                remote_shm_end = (ORIGIN (SRAM_ipc_shm_rx) + ipc_shm_size)

.OS_STACKS_CORE0_VAR_NOINIT
                0x34079c00     0x2800
                0x34079c00                _OS_STACKS_CORE0_VAR_NOINIT_START = ABSOLUTE (.)
 *(*.OS_STACK_DEFAULT_BSW_ASYNC_TASK_VAR_NOINIT)
 .OS_STACK_DEFAULT_BSW_ASYNC_TASK_VAR_NOINIT
                0x34079c00      0x800 obj/external/ap-cp-gateway/Appl/GenData/Os_Stack_Lcfg.o
                0x34079c00                OsCfg_Stack_Default_BSW_Async_Task_Dyn
 *(*.OS_STACK_IPC_SHM_SOFTIRQ_VAR_NOINIT)
 .OS_STACK_IPC_SHM_SOFTIRQ_VAR_NOINIT
                0x3407a400      0x400 obj/external/ap-cp-gateway/Appl/GenData/Os_Stack_Lcfg.o
                0x3407a400                OsCfg_Stack_ipc_shm_softirq_Dyn
 *(*.OS_STACK_OSCORE0_ERROR_VAR_NOINIT)
 .OS_STACK_OSCORE0_ERROR_VAR_NOINIT
                0x3407a800      0x400 obj/external/ap-cp-gateway/Appl/GenData/Os_Stack_Lcfg.o
                0x3407a800                OsCfg_Stack_OsCore0_Error_Dyn
 *(*.OS_STACK_OSCORE0_INIT_VAR_NOINIT)
 .OS_STACK_OSCORE0_INIT_VAR_NOINIT
                0x3407ac00      0x400 obj/external/ap-cp-gateway/Appl/GenData/Os_Stack_Lcfg.o
                0x3407ac00                OsCfg_Stack_OsCore0_Init_Dyn
 *(*.OS_STACK_OSCORE0_ISR_CORE_VAR_NOINIT)
 .OS_STACK_OSCORE0_ISR_CORE_VAR_NOINIT
                0x3407b000      0x400 obj/external/ap-cp-gateway/Appl/GenData/Os_Stack_Lcfg.o
                0x3407b000                OsCfg_Stack_OsCore0_Isr_Core_Dyn
 *(*.OS_STACK_OSCORE0_KERNEL_VAR_NOINIT)
 .OS_STACK_OSCORE0_KERNEL_VAR_NOINIT
                0x3407b400      0x400 obj/external/ap-cp-gateway/Appl/GenData/Os_Stack_Lcfg.o
                0x3407b400                OsCfg_Stack_OsCore0_Kernel_Dyn
 *(*.OS_STACK_OSCORE0_TASK_PRIO4294967295_VAR_NOINIT)
 .OS_STACK_OSCORE0_TASK_PRIO4294967295_VAR_NOINIT
                0x3407b800      0x400 obj/external/ap-cp-gateway/Appl/GenData/Os_Stack_Lcfg.o
                0x3407b800                OsCfg_Stack_OsCore0_Task_Prio4294967295_Dyn
 *(*.OS_STACK_OSCORE0_TASK_PRIO49_VAR_NOINIT)
 .OS_STACK_OSCORE0_TASK_PRIO49_VAR_NOINIT
                0x3407bc00      0x400 obj/external/ap-cp-gateway/Appl/GenData/Os_Stack_Lcfg.o
                0x3407bc00                OsCfg_Stack_OsCore0_Task_Prio49_Dyn
 *(*.OS_STACK_OSCORE0_TASK_PRIO50_VAR_NOINIT)
 .OS_STACK_OSCORE0_TASK_PRIO50_VAR_NOINIT
                0x3407c000      0x400 obj/external/ap-cp-gateway/Appl/GenData/Os_Stack_Lcfg.o
                0x3407c000                OsCfg_Stack_OsCore0_Task_Prio50_Dyn
                0x3407c3ff                _OS_STACKS_CORE0_VAR_NOINIT_END = ABSOLUTE ((. - 0x1))
                0x3407c400                _OS_STACKS_CORE0_VAR_NOINIT_LIMIT = ABSOLUTE (.)
                0x34079c00                _OS_STACKS_CORE0_VAR_ALL_START = _OS_STACKS_CORE0_VAR_NOINIT_START
                0x3407c3ff                _OS_STACKS_CORE0_VAR_ALL_END = _OS_STACKS_CORE0_VAR_NOINIT_END
                0x3407c400                _OS_STACKS_CORE0_VAR_ALL_LIMIT = _OS_STACKS_CORE0_VAR_NOINIT_LIMIT

.Brs_ExcVect    0x34000000       0x40
                0x34000000                _Brs_ExcVect_START = ABSOLUTE (.)
 *(*.brsExcVect)
 *(*.brsExcVectConst)
 .brsExcVectConst
                0x34000000       0x40 obj/external/ap-cp-gateway/Appl/Source/ARMBrsHwIntTb_CortexM.o
                0x34000000                intvect_CoreExceptions
                0x3400003f                _Brs_ExcVect_END = ABSOLUTE ((. - 0x1))
                0x34000040                _Brs_ExcVect_LIMIT = ABSOLUTE (.)
                0x34000000                _Brs_ExcVect_ALL_START = _Brs_ExcVect_START
                0x3400003f                _Brs_ExcVect_ALL_END = _Brs_ExcVect_END
                0x34000040                _Brs_ExcVect_ALL_LIMIT = _Brs_ExcVect_LIMIT

.Brs_Startup_Code
                0x34000040       0x98
                0x34000040                _Brs_Startup_Code_START = ABSOLUTE (.)
 *(*.brsStartup)
 .brsStartup    0x34000040       0x98 obj/external/ap-cp-gateway/Appl/Source/ARMStartup_CortexM.o
                0x34000040                brsStartupEntry
                0x34000044                brsPreAsmStartupHook
                0x34000048                coreRegisterInit
                0x3400004c                coreRegisterInit2
                0x34000056                brsStartupZeroInitLoop
                0x34000062                brsStartupStackSearch
                0x3400008c                stackPointerInit
                0x34000094                coreRegisterInit3
                0x340000d7                _Brs_Startup_Code_END = ABSOLUTE ((. - 0x1))
                0x340000d8                _Brs_Startup_Code_LIMIT = ABSOLUTE (.)

.BrsMain_Startup_Code
                0x340000d8       0xa0
                0x340000d8                _BrsMain_Startup_Code_START = ABSOLUTE (.)
 *(*.brsMainStartup)
 .brsMainStartup
                0x340000d8       0x74 obj/external/ap-cp-gateway/Appl/Source/BrsHw.o
                0x340000d8                BrsHwGetResetReasonStartup
 .brsMainStartup
                0x3400014c       0x2c obj/external/ap-cp-gateway/Appl/Source/BrsMainStartup.o
                0x3400014c                BrsMainExceptionStartup
                0x34000160                Brs_PreMainStartup
                0x34000177                _BrsMain_Startup_Code_END = ABSOLUTE ((. - 0x1))
                0x34000178                _BrsMain_Startup_Code_LIMIT = ABSOLUTE (.)
                0x34000040                _Brs_Startup_Code_ALL_START = _Brs_Startup_Code_START
                0x34000177                _Brs_Startup_Code_ALL_END = _BrsMain_Startup_Code_END
                0x34000178                _Brs_Startup_Code_ALL_LIMIT = _BrsMain_Startup_Code_LIMIT

.Brs_Shared_Const
                0x3407c400        0x0
                0x3407c400                _Brs_Shared_Const_START = ABSOLUTE (.)
 *(*.brsSharedConst)
                0x3407c3ff                _Brs_Shared_Const_END = ABSOLUTE ((. - 0x1))
                0x3407c400                _Brs_Shared_Const_LIMIT = ABSOLUTE (.)
                0x3407c400                _Brs_Shared_Const_ALL_START = _Brs_Shared_Const_START
                0x3407c3ff                _Brs_Shared_Const_ALL_END = _Brs_Shared_Const_END
                0x3407c400                _Brs_Shared_Const_ALL_LIMIT = _Brs_Shared_Const_LIMIT

.Brs_Shared_Var
                0x342fbff0        0x1
                0x342fbff0                _Brs_Shared_Var_START = ABSOLUTE (.)
 *(*.brsSharedVar)
 .brsSharedVar  0x342fbff0        0x1 obj/external/ap-cp-gateway/Appl/Source/BrsMainStartup.o
                0x342fbff0                brsMain_ResetReason
                0x342fbff0                _Brs_Shared_Var_END = ABSOLUTE ((. - 0x1))
                0x342fbff1                _Brs_Shared_Var_LIMIT = ABSOLUTE (.)
                0x342fbff0                _Brs_Shared_Var_ALL_START = _Brs_Shared_Var_START
                0x342fbff0                _Brs_Shared_Var_ALL_END = _Brs_Shared_Var_END
                0x342fbff1                _Brs_Shared_Var_ALL_LIMIT = _Brs_Shared_Var_LIMIT

.GMAC           0x3407c400        0x0
                0x3407c400                _GMAC_START = ABSOLUTE (.)
                0x3407c400                . = ALIGN (0x40)
 *(*.EthBuffers)
                0x3407c400                . = ALIGN (0x40)
 *(*.EthDesc)
                0x3407c400                . = ALIGN (0x4)
                0x3407c3ff                _GMAC_END = ABSOLUTE ((. - 0x1))
                0x3407c400                _GMAC_LIMIT = ABSOLUTE (.)
                0x3407c400                _ETH_VAR_ALL_START = _GMAC_START
                0x3407c3ff                _ETH_VAR_ALL_END = _GMAC_END
                0x3407c400                _ETH_VAR_ALL_LIMIT = _GMAC_LIMIT

.MSR_CODE       0x3407c400        0x0
                0x3407c400                _MSR_CODE_START = ABSOLUTE (.)
 *(*.MSR_CODE)
                0x3407c3ff                _MSR_CODE_END = ABSOLUTE ((. - 0x1))
                0x3407c400                _MSR_CODE_LIMIT = ABSOLUTE (.)
                0x3407c400                _MSR_CODE_ALL_START = _MSR_CODE_START
                0x3407c3ff                _MSR_CODE_ALL_END = _MSR_CODE_END
                0x3407c400                _MSR_CODE_ALL_LIMIT = _MSR_CODE_LIMIT

.MSR_CONST      0x3407c400     0x77fc
                0x3407c400                _MSR_CONST_START = ABSOLUTE (.)
 *(*.MSR_CONST)
 .MSR_CONST     0x3407c400       0x31 obj/external/Components/CanIf/Implementation/CanIf.o
                0x3407c42e                CanIf_ReleaseVersion
                0x3407c42f                CanIf_SubVersion
                0x3407c430                CanIf_MainVersion
 .MSR_CONST     0x3407c431        0x3 obj/external/Components/CanNm/Implementation/CanNm.o
                0x3407c431                CanNm_ReleaseVersion
                0x3407c432                CanNm_SubVersion
                0x3407c433                CanNm_MainVersion
 .MSR_CONST     0x3407c434        0x3 obj/external/Components/CanXcp/Implementation/CanXcp.o
                0x3407c434                kXcpOnCanAsrReleaseVersion
                0x3407c435                kXcpOnCanSubAsrVersion
                0x3407c436                kXcpOnCanAsrMainVersion
 *fill*         0x3407c437        0x1 
 .MSR_CONST     0x3407c438       0x5b obj/external/Components/Can_30_Flexcan4/Implementation/Can_30_Flexcan4.o
                0x3407c48c                Can_30_Flexcan4_ConfigDataPtr
                0x3407c490                Can_30_Flexcan4_ReleaseVersion
                0x3407c491                Can_30_Flexcan4_SubVersion
                0x3407c492                Can_30_Flexcan4_MainVersion
 *fill*         0x3407c493        0x1 
 .MSR_CONST     0x3407c494       0x80 obj/external/Components/ComM/Implementation/ComM.o
 *fill*         0x3407c514        0x4 
 .MSR_CONST     0x3407c518     0x1400 obj/external/Components/Crc/Implementation/Crc.o
 .MSR_CONST     0x3407d918        0x3 obj/external/Components/Dcm/Implementation/Dcm.o
 *fill*         0x3407d91b        0x1 
 .MSR_CONST     0x3407d91c       0x15 obj/external/Components/Dcm/Implementation/Dcm_DemIf.o
                0x3407d91c                Dcm_DemIfNrcMapClearDTC
                0x3407d928                Dcm_DemIfNrcMapSelectDTC
                0x3407d92c                Dcm_DemIfNrcMapSetDTCFilter
                0x3407d930                Dcm_DemIfNrcMapGetNumberOfFilteredDTC
 *fill*         0x3407d931        0x3 
 .MSR_CONST     0x3407d934        0xc obj/external/Components/Dcm/Implementation/Dcm_Mode.o
 .MSR_CONST     0x3407d940        0x4 obj/external/Components/Dcm/Implementation/Dcm_RidMgr.o
                0x3407d940                Dcm_RidMgrSubFunc2OpMap
 .MSR_CONST     0x3407d944        0x3 obj/external/Components/Dcm/Implementation/Dcm_State.o
 *fill*         0x3407d947        0x1 
 .MSR_CONST     0x3407d948       0x91 obj/external/Components/Dcm/Implementation/Dcm_Svc19Uti.o
                0x3407d964                Dcm_Svc19UtiNrcMapStdReturnType
                0x3407d98c                Dcm_Svc19UtiDemChainReadDtcByStatus
                0x3407d9b8                Dcm_Svc19UtiDemChainGetDtcStatusEnd
                0x3407d9cc                Dcm_Svc19Uti19_14DemChain
                0x3407d9d0                Dcm_Svc19Uti19_08DemChain
                0x3407d9d4                Dcm_Svc19Uti19_09DemChain
 *fill*         0x3407d9d9        0x3 
 .MSR_CONST     0x3407d9dc        0x4 obj/external/Components/Dcm/Implementation/Dcm_Svc2F.o
 .MSR_CONST     0x3407d9e0       0x28 obj/external/Components/Dcm/Implementation/Dcm_Tmr.o
 .MSR_CONST     0x3407da08       0x90 obj/external/Components/Dcm/Implementation/Dcm_Tsk.o
 .MSR_CONST     0x3407da98       0xa0 obj/external/Components/Dem/Implementation/Dem.o
 .MSR_CONST     0x3407db38      0x3cc obj/external/Components/Fee/Implementation/Fee_Processing.o
 .MSR_CONST     0x3407df04        0x3 obj/external/Components/Nm/Implementation/Nm.o
                0x3407df04                Nm_ReleaseVersion
                0x3407df05                Nm_SubVersion
                0x3407df06                Nm_MainVersion
 *fill*         0x3407df07        0x1 
 .MSR_CONST     0x3407df08       0xcc obj/external/Components/NvM/Implementation/NvM_Act.o
                0x3407df08                NvM_ActionTable_ap
 .MSR_CONST     0x3407dfd4       0x38 obj/external/Components/NvM/Implementation/NvM_Crc.o
 .MSR_CONST     0x3407e00c      0x296 obj/external/Components/NvM/Implementation/NvM_JobProc.o
                0x3407e284                NvM_IntServiceDescrTable_at
 *fill*         0x3407e2a2        0x2 
 .MSR_CONST     0x3407e2a4       0x94 obj/external/Components/NvM/Implementation/NvM_Qry.o
                0x3407e2a4                NvM_QueryTable_ap
 .MSR_CONST     0x3407e338       0x20 obj/external/Components/VStdLib/Implementation/vstdlib.o
 .MSR_CONST     0x3407e358      0x108 obj/external/Components/Xcp/Implementation/Xcp.o
 .MSR_CONST     0x3407e460        0x8 obj/external/ThirdParty/Mcal_S32x/Supply/SW32G_RTD_4.4_3.0.4/eclipse/plugins/Fls_TS_T40D11M30I4R0/src/Qspi_Ip_Controller.o
                0x3407e460                Qspi_Ip_AhbAddress
                0x3407e464                Qspi_Ip_BaseAddress
 .MSR_CONST     0x3407e468      0xe98 obj/external/ThirdParty/Mcal_S32x/Supply/SW32G_RTD_4.4_3.0.4/eclipse/plugins/Mcu_TS_T40D11M30I4R0/src/Clock_Ip_Data.o
                0x3407e468                Clock_Ip_axGateInfo
                0x3407e498                Clock_Ip_axFeatureExtensions
                0x3407e678                Clock_Ip_aeHwDfsName
                0x3407e684                Clock_Ip_aeHwPllName
                0x3407e688                Clock_Ip_aeSourceTypeClockName
                0x3407e6d4                Clock_Ip_apxMcMeTriggerPartitions
                0x3407e6e4                Clock_Ip_apxMcMeGetPartitions
                0x3407e6f4                Clock_Ip_apxMcMeSetPartitions
                0x3407e704                Clock_Ip_axCmuInfo
                0x3407e8a4                Clock_Ip_aeCmuNames
                0x3407e8c0                Clock_Ip_apxCmu
                0x3407e92c                Clock_Ip_apxDfs
                0x3407e934                Clock_Ip_pxPll
                0x3407e944                Clock_Ip_apxXosc
                0x3407e948                Clock_Ip_apxCgmPcfs
                0x3407e960                Clock_Ip_apxCgm
                0x3407eaf8                Clock_Ip_au16SelectorEntryRtcHardwareValue
                0x3407eb90                Clock_Ip_au16SelectorEntryHardwareValue
                0x3407ec28                Clock_Ip_au8ClockFeatures
                0x3407f288                Clock_Ip_au8CmuCallbackIndex
                0x3407f294                Clock_Ip_au8PcfsCallbackIndex
                0x3407f2a0                Clock_Ip_au8SelectorCallbackIndex
                0x3407f2ac                Clock_Ip_au8PllCallbackIndex
                0x3407f2b8                Clock_Ip_au8FractionalDividerCallbackIndex
                0x3407f2c4                Clock_Ip_au8GateCallbackIndex
                0x3407f2d0                Clock_Ip_au8IrcoscCallbackIndex
                0x3407f2dc                Clock_Ip_au8XoscCallbackIndex
                0x3407f2e8                Clock_Ip_au8DividerTriggerCallbackIndex
                0x3407f2f4                Clock_Ip_au8DividerCallbackIndex
 .MSR_CONST     0x3407f300       0x10 obj/external/ThirdParty/Mcal_S32x/Supply/SW32G_RTD_4.4_3.0.4/eclipse/plugins/Mcu_TS_T40D11M30I4R0/src/Clock_Ip_Divider.o
                0x3407f300                Clock_Ip_axDividerCallbacks
 .MSR_CONST     0x3407f310        0x8 obj/external/ThirdParty/Mcal_S32x/Supply/SW32G_RTD_4.4_3.0.4/eclipse/plugins/Mcu_TS_T40D11M30I4R0/src/Clock_Ip_DividerTrigger.o
                0x3407f310                Clock_Ip_axDividerTriggerCallbacks
 .MSR_CONST     0x3407f318       0x28 obj/external/ThirdParty/Mcal_S32x/Supply/SW32G_RTD_4.4_3.0.4/eclipse/plugins/Mcu_TS_T40D11M30I4R0/src/Clock_Ip_ExtOsc.o
                0x3407f318                Clock_Ip_axExtOscCallbacks
 .MSR_CONST     0x3407f340       0x18 obj/external/ThirdParty/Mcal_S32x/Supply/SW32G_RTD_4.4_3.0.4/eclipse/plugins/Mcu_TS_T40D11M30I4R0/src/Clock_Ip_FracDiv.o
                0x3407f340                Clock_Ip_axFracDivCallbacks
 .MSR_CONST     0x3407f358       0x10 obj/external/ThirdParty/Mcal_S32x/Supply/SW32G_RTD_4.4_3.0.4/eclipse/plugins/Mcu_TS_T40D11M30I4R0/src/Clock_Ip_Gate.o
                0x3407f358                Clock_Ip_axGateCallbacks
 .MSR_CONST     0x3407f368        0xc obj/external/ThirdParty/Mcal_S32x/Supply/SW32G_RTD_4.4_3.0.4/eclipse/plugins/Mcu_TS_T40D11M30I4R0/src/Clock_Ip_IntOsc.o
                0x3407f368                Clock_Ip_axIntOscCallbacks
 .MSR_CONST     0x3407f374       0x30 obj/external/ThirdParty/Mcal_S32x/Supply/SW32G_RTD_4.4_3.0.4/eclipse/plugins/Mcu_TS_T40D11M30I4R0/src/Clock_Ip_Monitor.o
                0x3407f374                Clock_Ip_axCmuCallbacks
 .MSR_CONST     0x3407f3a4       0x3c obj/external/ThirdParty/Mcal_S32x/Supply/SW32G_RTD_4.4_3.0.4/eclipse/plugins/Mcu_TS_T40D11M30I4R0/src/Clock_Ip_Pll.o
                0x3407f3a4                Clock_Ip_axPllCallbacks
 .MSR_CONST     0x3407f3e0        0x8 obj/external/ThirdParty/Mcal_S32x/Supply/SW32G_RTD_4.4_3.0.4/eclipse/plugins/Mcu_TS_T40D11M30I4R0/src/Clock_Ip_ProgFreqSwitch.o
                0x3407f3e0                Clock_Ip_axPcfsCallbacks
 .MSR_CONST     0x3407f3e8       0x30 obj/external/ThirdParty/Mcal_S32x/Supply/SW32G_RTD_4.4_3.0.4/eclipse/plugins/Mcu_TS_T40D11M30I4R0/src/Clock_Ip_Selector.o
                0x3407f3e8                Clock_Ip_axSelectorCallbacks
 .MSR_CONST     0x3407f418        0x8 obj/external/ThirdParty/Mcal_S32x/Supply/SW32G_RTD_4.4_3.0.4/eclipse/plugins/Port_TS_T40D11M30I4R0/src/Siul2_Port_Ip.o
                0x3407f418                Port_au32Siul2BaseAddr
 .MSR_CONST     0x3407f420      0x11b obj/external/ap-cp-gateway/Appl/GenData/BswM_Lcfg.o
                0x3407f420                BswM_Rules
                0x3407f498                BswM_ActionLists
                0x3407f4e8                BswM_SwcModeRequestUpdateFct
                0x3407f4ec                BswM_RulesInd
                0x3407f4f8                BswM_PartitionIdentifiers
                0x3407f500                BswM_ModeNotificationFct
                0x3407f504                BswM_InitGenVarAndInitAL
                0x3407f508                BswM_GenericMapping
                0x3407f528                BswM_ImmediateUser
                0x3407f534                BswM_DeferredRules
 *fill*         0x3407f53b        0x1 
 .MSR_CONST     0x3407f53c      0x110 obj/external/ap-cp-gateway/Appl/GenData/CanIf_Lcfg.o
                0x3407f53c                CanIf_TxPduQueueIndex
                0x3407f550                CanIf_TxPduConfig
                0x3407f598                CanIf_TxConfirmationFctList
                0x3407f5ac                CanIf_TxBufferPrioByCanIdByteQueueMappedTxPdus
                0x3407f5b8                CanIf_RxPduConfig
                0x3407f600                CanIf_TxBufferPrioByCanIdByteQueueConfig
                0x3407f604                CanIf_RxIndicationFctList
                0x3407f62c                CanIf_MappedTxBuffersConfig
                0x3407f630                CanIf_MailBoxConfig
                0x3407f640                CanIf_CtrlModeIndicationFctPtr
                0x3407f644                CanIf_CanIfCtrlId2MappedTxBuffersConfig
                0x3407f648                CanIf_BusOffNotificationFctPtr
 .MSR_CONST     0x3407f64c       0x22 obj/external/ap-cp-gateway/Appl/GenData/CanNm_Cfg.o
                0x3407f64c                CanNm_SysToNmChInd
                0x3407f650                CanNm_PbChannelConfig
                0x3407f664                CanNm_ChannelConfig
 *fill*         0x3407f66e        0x2 
 .MSR_CONST     0x3407f670       0x24 obj/external/ap-cp-gateway/Appl/GenData/CanTp_Lcfg.o
                0x3407f670                CanTp_RxSduSnv2Hdl
                0x3407f674                CanTp_RxSduCfgInd
                0x3407f678                CanTp_RxSduCfg
                0x3407f68c                CanTp_RxPduMap
 .MSR_CONST     0x3407f694       0x14 obj/external/ap-cp-gateway/Appl/GenData/CanXcp_Lcfg.o
                0x3407f694                CanXcp_Config
                0x3407f6a0                CanXcp_PduIdField
 .MSR_CONST     0x3407f6a8      0x13d obj/external/ap-cp-gateway/Appl/GenData/Can_30_Flexcan4_Lcfg.o
                0x3407f6a8                Can_30_Flexcan4_MemorySectionObjects
                0x3407f754                Can_30_Flexcan4_MemorySectionInfo
                0x3407f764                Can_30_Flexcan4_Mailbox
                0x3407f780                Can_30_Flexcan4_InitObjectStartIndex
                0x3407f784                Can_30_Flexcan4_InitObjectFdBrsConfig
                0x3407f788                Can_30_Flexcan4_InitObjectFD
                0x3407f78c                Can_30_Flexcan4_InitObjectEBT
                0x3407f798                Can_30_Flexcan4_InitObjectBaudrate
                0x3407f79c                Can_30_Flexcan4_InitObject
                0x3407f7a0                Can_30_Flexcan4_InitBasicCanStd
                0x3407f7a4                Can_30_Flexcan4_InitBasicCanIndexStd
                0x3407f7a8                Can_30_Flexcan4_InitBasicCanIndexExt
                0x3407f7ac                Can_30_Flexcan4_InitBasicCanExt
                0x3407f7b0                Can_30_Flexcan4_FDMailboxMapping
                0x3407f7b4                Can_30_Flexcan4_ERFCR
                0x3407f7bc                Can_30_Flexcan4_ControllerConfig
                0x3407f7e4                Can_30_Flexcan4_CanIfChannelId
 *fill*         0x3407f7e5        0x3 
 .MSR_CONST     0x3407f7e8       0x18 obj/external/ap-cp-gateway/Appl/GenData/ComM_Lcfg.o
                0x3407f7e8                ComM_ECUGroupClassInit
                0x3407f7ec                ComM_User
                0x3407f7f0                ComM_PartitionIdentifiers
                0x3407f7f8                ComM_Channel
 .MSR_CONST     0x3407f800      0x286 obj/external/ap-cp-gateway/Appl/GenData/Com_Lcfg.o
                0x3407f800                Com_TxSigInfo
                0x3407f858                Com_TxSigGrpMask
                0x3407f860                Com_TxPduInitValue
                0x3407f880                Com_TxSigGrpInfo
                0x3407f884                Com_TxPduInfo
                0x3407f8b4                Com_TxModeTrue
                0x3407f8c0                Com_TxModeInfo
                0x3407f8c8                Com_TxModeFalse
                0x3407f8d4                Com_TxGrpSigInfo
                0x3407f914                Com_TxAccessInfo
                0x3407f934                Com_RxSigInfo
                0x3407f944                Com_RxSigGrpInfo
                0x3407f948                Com_RxPduInfo
                0x3407f974                Com_RxAccessInfoInd
                0x3407f984                Com_RxAccessInfo
                0x3407fa58                Com_MainFunctionTxStruct
                0x3407fa5c                Com_IPduGroupInfoOfTxPduInfoInd
                0x3407fa60                Com_MainFunctionRxStruct
                0x3407fa64                Com_IPduGroupInfoOfRxPduInfoInd
                0x3407fa68                Com_IPduGroupInfo
                0x3407fa78                Com_ConstValueUInt8
                0x3407fa7c                Com_ConstValueUInt32
                0x3407fa84                Com_ConstValueUInt16
 *fill*         0x3407fa86        0x2 
 .MSR_CONST     0x3407fa88      0x85e obj/external/ap-cp-gateway/Appl/GenData/Dcm_Lcfg.o
                0x3407fa88                Dcm_CfgSvc85SubFuncInfo
                0x3407fa98                Dcm_CfgSvc85SubFuncExecPrecondTable
                0x3407fa9c                Dcm_CfgSvc3ESubFuncExecPrecondTable
                0x3407faa0                Dcm_CfgSvc2CSubFuncExecPrecondTable
                0x3407faa4                Dcm_CfgSvc2CSubFuncInfo
                0x3407fabc                Dcm_CfgSvc28SubNetIdMap
                0x3407fac0                Dcm_CfgSvc28SubFuncExecPrecondTable
                0x3407fac4                Dcm_CfgSvc28SubFuncInfo
                0x3407fae4                Dcm_CfgSvc27SubFuncExecPrecondTable
                0x3407fae8                Dcm_CfgSvc27SecLevelInfo
                0x3407fb00                Dcm_CfgSvc27SubFuncInfo
                0x3407fb08                Dcm_CfgSvc19SubFuncExecPrecondTable
                0x3407fb14                Dcm_CfgSvc19SubFuncInfo
                0x3407fb74                Dcm_CfgSvc11SubFuncExecPrecondTable
                0x3407fb78                Dcm_CfgSvc11SubFuncInfo
                0x3407fb7c                Dcm_CfgSvc10SubFuncExecPrecondTable
                0x3407fb80                Dcm_CfgSvc10SubFuncInfo
                0x3407fb8c                Dcm_CfgDiagSvcId2ProtMap
                0x3407fb9c                Dcm_CfgDiagSysNotificationInfo
                0x3407fba4                Dcm_CfgDiagOemNotificationInfo
                0x3407fbac                Dcm_CfgDiagSvcCancellers
                0x3407fbc8                Dcm_CfgDiagSvcUpdaters
                0x3407fbd4                Dcm_CfgDiagSvcPostProcessors
                0x3407fc04                Dcm_CfgDiagSvcIdExecPrecondTable
                0x3407fc14                Dcm_CfgDiagServiceInfo
                0x3407fce0                Dcm_CfgDiagSvcInitializers
                0x3407fcf4                Dcm_CfgMemMgrMemMap
                0x3407fd00                Dcm_CfgMemMgrMidInfo
                0x3407fd08                Dcm_CfgRidMgrOpInfo
                0x3407fd78                Dcm_CfgRidMgrRidInfo
                0x3407fd88                Dcm_CfgDidMgrOpInfoCombined
                0x3407fd8c                Dcm_CfgDidMgrOpInfoDefine
                0x3407fd90                Dcm_CfgDidMgrOpInfoIoControl
                0x3407fd94                Dcm_CfgDidMgrSignalOpClassInfo
                0x34080064                Dcm_CfgDidMgrDidOpClassInfo
                0x34080094                Dcm_CfgDidMgrDidOpInfo
                0x340800e8                Dcm_CfgDidMgrDidInfo
                0x34080194                Dcm_CfgDidMgrRangeDidInfoRefs
                0x34080198                Dcm_CfgDidMgrDidRanges
                0x3408019c                Dcm_CfgStateSecurityNotificationInfo
                0x340801a0                Dcm_CfgStateSessionNotificationInfo
                0x340801a4                Dcm_CfgStateSecurityInfo
                0x340801bc                Dcm_CfgStateSessionInfo
                0x340801e0                Dcm_CfgStatePreconditions
                0x340801e8                Dcm_CfgNetNetworkHandleLookUpTable
                0x340801ec                Dcm_CfgNetAllComMChannelMap
                0x340801f0                Dcm_CfgNetProtocolInfo
                0x34080200                Dcm_CfgNetConnectionInfo
                0x34080214                Dcm_CfgNetPeriodicTxPduIds
                0x34080218                Dcm_CfgNetRxPduInfo
                0x3408021c                Dcm_CfgNetProtocolNotificationInfo
                0x34080220                Dcm_CfgNetBufferInfo
                0x34080228                Dcm_CfgSvc22SupportedIdMask
                0x3408022c                Dcm_CfgSvc2ASchdRateTime
                0x34080238                Dcm_CfgRidMgrRidLookUpTable
                0x34080244                Dcm_CfgDidMgrDidLookUpTable
                0x34080268                Dcm_CfgSvc85SubFuncLookUpTable
                0x3408026c                Dcm_CfgSvc3ESubFuncLookUpTable
                0x34080270                Dcm_CfgSvc2CSubFuncLookUpTable
                0x34080274                Dcm_CfgSvc2ASupportedRatesLookUpTable
                0x3408027c                Dcm_CfgSvc28SubNetIdLookUp
                0x34080280                Dcm_CfgSvc28MessageTypeLookUpTable
                0x34080284                Dcm_CfgSvc28SubFuncLookUpTable
                0x3408028c                Dcm_CfgSvc27SubFuncLookUpTable
                0x34080294                Dcm_CfgSvc19SubFuncLookUpTable
                0x340802a4                Dcm_CfgSvc11SubFuncLookUpTable
                0x340802a8                Dcm_CfgSvc10SubFuncLookUpTable
                0x340802ac                Dcm_CfgDiagSvcIdLookUpTable
                0x340802c0                Dcm_CfgMemMgrMidLookUpTable
                0x340802c4                Dcm_CfgMemMgrAlfidLookUpTable
                0x340802d8                Dcm_CfgNetComCtrlChannelListAll
                0x340802dc                Dcm_CfgNetConnComMChannelMap
                0x340802e0                Dcm_CfgNetPeriodicTxPduInfo
                0x340802e4                Dcm_CfgNetTxPduInfo
 *fill*         0x340802e6        0x2 
 .MSR_CONST     0x340802e8      0x150 obj/external/ap-cp-gateway/Appl/GenData/Dem_Lcfg.o
                0x340802e8                Dem_Cfg_TimeSeriesEntryInit
                0x340802f0                Dem_Cfg_MemoryEntryInit
                0x34080308                Dem_Cfg_MemoryEntry
                0x3408032c                Dem_Cfg_MemoryDataSize
                0x34080340                Dem_Cfg_MemoryDataPtr
                0x34080368                Dem_Cfg_MemoryBlockIdToMemoryEntryId
                0x34080374                Dem_Cfg_MemoryBlockId
                0x34080388                Dem_Cfg_InitMonitorForEvent
                0x34080390                Dem_Cfg_FreezeFrameTable
                0x3408039c                Dem_Cfg_ExtendedDataTable
                0x340803a0                Dem_Cfg_EventTable
                0x340803bc                Dem_Cfg_DtcTable
                0x340803d4                Dem_Cfg_DebounceTable
                0x340803e0                Dem_Cfg_DataElementTableCol2ElmtInd
                0x340803e4                Dem_Cfg_DataElementTable
                0x3408040c                Dem_Cfg_DataCollectionTableFfm2CollInd
                0x34080410                Dem_Cfg_DataCollectionTable
                0x34080430                Dem_Cfg_CycleIdTable
 .MSR_CONST     0x34080438        0x4 obj/external/ap-cp-gateway/Appl/GenData/Det_Cfg.o
                0x34080438                Det_ErrorHookTable
 .MSR_CONST     0x3408043c       0x10 obj/external/ap-cp-gateway/Appl/GenData/EcuM_Cfg.o
                0x3408043c                EcuM_WakeupSourceList
                0x34080448                EcuM_DriverInitOne
 .MSR_CONST     0x3408044c       0x54 obj/external/ap-cp-gateway/Appl/GenData/Fee_Lcfg.o
                0x3408044c                Fee_Config
 .MSR_CONST     0x340804a0       0x25 obj/external/ap-cp-gateway/Appl/GenData/IpduM_Lcfg.o
                0x340804a0                IpduM_TxUpInfo
                0x340804a4                IpduM_TxContainedPdu
                0x340804a8                IpduM_RxInfo
                0x340804ac                IpduM_RxContainerPdu
                0x340804b0                IpduM_RxContainedPdu
                0x340804b4                IpduM_MainFunctionTxIndirection
                0x340804b8                IpduM_MainFunctionRxIndirection
                0x340804bc                IpduM_CTxLoInfo
                0x340804c0                IpduM_CTxContainerPdu
 *fill*         0x340804c5        0x3 
 .MSR_CONST     0x340804c8       0x21 obj/external/ap-cp-gateway/Appl/GenData/MemIf_Cfg.o
                0x340804c8                MemIf_MemHwaApis
                0x340804e8                MemIf_NumberOfDevices
 *fill*         0x340804e9        0x3 
 .MSR_CONST     0x340804ec       0x34 obj/external/ap-cp-gateway/Appl/GenData/Nm_Cfg.o
                0x340804ec                Nm_PartitionIdentifiers
                0x340804f4                Nm_NmFunctionTable
                0x34080514                Nm_ChannelConfig
                0x3408051c                Nm_CarWakeUpCallbackFctPtr
 .MSR_CONST     0x34080520      0x338 obj/external/ap-cp-gateway/Appl/GenData/NvM_Cfg.o
                0x34080520                NvM_BlockDescriptorTable_at
                0x34080850                NvM_CompiledConfigId_t
                0x34080852                NvM_NoOfBlockIds_t
                0x34080854                NvM_CrcQueueSize_u16
                0x34080856                NvM_NoOfCrcBytes_u16
 .MSR_CONST     0x34080858      0x35f obj/external/ap-cp-gateway/Appl/GenData/PduR_Lcfg.o
                0x34080858                PduR_TxIf2Up
                0x3408086c                PduR_Tx2Lo
                0x34080884                PduR_RmTransmitFctPtr
                0x3408088c                PduR_RmSrcRom
                0x340808e4                PduR_RmGDestRom
                0x340809b0                PduR_RmDestRom
                0x340809f4                PduR_RmBufferedIfPropertiesRom
                0x340809f8                PduR_QueueFctPtrRom
                0x34080a0c                PduR_PartitionIdentifiers
                0x34080a10                PduR_MmRom
                0x34080b7c                PduR_LockRom
                0x34080b80                PduR_FmFifoRom
                0x34080b88                PduR_ExclusiveAreaRom
                0x34080b90                PduR_DestApplicationManagerRom
                0x34080b94                PduR_BmTxBufferRom
                0x34080bac                PduR_BmTxBufferIndRom
 *fill*         0x34080bb7        0x1 
 .MSR_CONST     0x34080bb8       0x18 obj/external/ap-cp-gateway/Appl/GenData/Xcp_Lcfg.o
                0x34080bb8                Xcp_TlApi
                0x34080bc4                Xcp_ECcIdMapping
                0x34080bc8                Xcp_SendQueueSize
                0x34080bcc                Xcp_SendQueueRef
 .MSR_CONST     0x34080bd0       0x14 obj/external/ap-cp-gateway/Appl/GenData/src/CDD_Mcl_PBcfg.o
                0x34080bd0                Mcl_Config
 .MSR_CONST     0x34080be4      0x590 obj/external/ap-cp-gateway/Appl/GenData/src/Clock_Ip_PBcfg.o
                0x34080be4                Mcu_aClockConfigPB
 .MSR_CONST     0x34081174      0x37c obj/external/ap-cp-gateway/Appl/GenData/src/Dio_Cfg.o
                0x34081174                Dio_Config
                0x34081184                Dio_aAvailablePinsForRead
                0x3408119c                Dio_aAvailablePinsForWrite
                0x340811b4                Dio_au32PortToPartitionMap
                0x340811e4                Dio_au32ChannelToPartitionMap
                0x340814e0                Dio_au8Port0OffsetInSiul2Instance
                0x340814e4                Dio_au8PortSiul2Instance
 .MSR_CONST     0x340814f0       0xa6 obj/external/ap-cp-gateway/Appl/GenData/src/Fls_PBcfg.o
                0x340814f0                Fls_Config
 *fill*         0x34081596        0x2 
 .MSR_CONST     0x34081598       0x1c obj/external/ap-cp-gateway/Appl/GenData/src/Mcu_PBcfg.o
                0x34081598                Mcu_Config
 .MSR_CONST     0x340815b4     0x12e0 obj/external/ap-cp-gateway/Appl/GenData/src/Port_Cfg.o
                0x340815b4                Port_apInoutMuxSettings
                0x340815bc                Port_apInMuxSettingsIndex
                0x340815c4                Port_apInMuxSettings
                0x340815cc                Port_apSiul2InstancePinModeAvailability
                0x340815d4                Port_au16NumInoutMuxSettings
 .MSR_CONST     0x34082894      0x7b5 obj/external/ap-cp-gateway/Appl/GenData/src/Port_PBcfg.o
                0x34082894                Port_Config
                0x34083048                au8Port_PartitionList
 *fill*         0x34083049        0x3 
 .MSR_CONST     0x3408304c      0x1cc obj/external/ap-cp-gateway/Appl/GenData/src/Power_Ip_PBcfg.o
                0x3408304c                Power_Ip_HwIPsConfigPB
                0x34083064                Power_Ip_aModeConfigPB
                0x34083138                Power_Ip_MC_ME_ModeConfigPB_0
 .MSR_CONST     0x34083218      0x174 obj/external/ap-cp-gateway/Appl/GenData/src/Qspi_Ip_PBcfg.o
                0x34083218                FlsConfigSet_paFlashCfg
                0x34083340                FlsConfigSet_paQspiUnitCfg
                0x34083384                FlsConfigSet_paFlashConnectionCfg
 .MSR_CONST     0x3408338c      0x870 obj/external/ap-cp-gateway/Appl/GenData/src/Siul2_Port_Ip_PBcfg.o
                0x3408338c                g_pin_mux_InitConfigArr
 *(*.MSR_CONST_FAST)
                0x34083bfb                _MSR_CONST_END = ABSOLUTE ((. - 0x1))
                0x34083bfc                _MSR_CONST_LIMIT = ABSOLUTE (.)
                0x3407c400                _MSR_CONST_ALL_START = _MSR_CONST_START
                0x34083bfb                _MSR_CONST_ALL_END = _MSR_CONST_END
                0x34083bfc                _MSR_CONST_ALL_LIMIT = _MSR_CONST_LIMIT

.MSR_PBCFG_CONST
                0x34083bfc        0x0
                0x34083bfc                _MSR_PBCFG_CONST_START = ABSOLUTE (.)
 *(*.MSR_PBCFG_CONST)
 *(*.MSR_PBCFG_CONST_FAST)
                0x34083bfb                _MSR_PBCFG_CONST_END = ABSOLUTE ((. - 0x1))
                0x34083bfc                _MSR_PBCFG_CONST_LIMIT = ABSOLUTE (.)
                0x34083bfc                _MSR_PBCFG_CONST_ALL_START = _MSR_PBCFG_CONST_START
                0x34083bfb                _MSR_PBCFG_CONST_ALL_END = _MSR_PBCFG_CONST_END
                0x34083bfc                _MSR_PBCFG_CONST_ALL_LIMIT = _MSR_PBCFG_CONST_LIMIT

.MSR_PBCFG_VAR_CLEARED
                0x34083bfc        0x0
                0x34083bfc                _MSR_PBCFG_VAR_CLEARED_START = ABSOLUTE (.)
 *(*.MSR_PBCFG_VAR_CLEARED)
 *(*.MSR_PBCFG_VAR_FAST_CLEARED)
                0x34083bfc                . = ALIGN (0x4)
                0x34083bfb                _MSR_PBCFG_VAR_CLEARED_END = ABSOLUTE ((. - 0x1))
                0x34083bfc                _MSR_PBCFG_VAR_CLEARED_LIMIT = ABSOLUTE (.)

.MSR_PBCFG_VAR_INIT
                0x34083bfc        0x0
                0x34083bfc                _MSR_PBCFG_VAR_INIT_START = ABSOLUTE (.)
 *(*.MSR_PBCFG_VAR)
 *(*.MSR_PBCFG_VAR_FAST)
                0x34083bfc                . = ALIGN (0x4)
                0x34083bfb                _MSR_PBCFG_VAR_INIT_END = ABSOLUTE ((. - 0x1))
                0x34083bfc                _MSR_PBCFG_VAR_INIT_LIMIT = ABSOLUTE (.)
                0x34083bfc                _MSR_PBCFG_VAR_INIT_ROM_START = LOADADDR (.MSR_PBCFG_VAR_INIT)
                0x34083bfc                _MSR_PBCFG_VAR_INIT_ROM_LIMIT = (LOADADDR (.MSR_PBCFG_VAR_INIT) + SIZEOF (.MSR_PBCFG_VAR_INIT))

.MSR_PBCFG_VAR_NO_INIT
                0x34083bfc        0x0
                0x34083bfc                _MSR_PBCFG_VAR_NO_INIT_START = ABSOLUTE (.)
 *(*.MSR_PBCFG_VAR_FAST_NO_INIT)
 *(*.MSR_PBCFG_VAR_NO_INIT)
                0x34083bfb                _MSR_PBCFG_VAR_NO_INIT_END = ABSOLUTE ((. - 0x1))
                0x34083bfc                _MSR_PBCFG_VAR_NO_INIT_LIMIT = ABSOLUTE (.)
                0x34083bfc                _MSR_PBCFG_VAR_ALL_START = _MSR_PBCFG_VAR_CLEARED_START
                0x34083bfb                _MSR_PBCFG_VAR_ALL_END = _MSR_PBCFG_VAR_NO_INIT_END
                0x34083bfc                _MSR_PBCFG_VAR_ALL_LIMIT = _MSR_PBCFG_VAR_NO_INIT_LIMIT

.MSR_VAR_CLEARED
                0x34083bfc       0xec
                0x34083bfc                _MSR_VAR_CLEARED_START = ABSOLUTE (.)
 *(*.MSR_VAR_CLEARED)
 .MSR_VAR_CLEARED
                0x34083bfc        0x1 obj/external/Components/CanSM/Implementation/CanSM.o
 .MSR_VAR_CLEARED
                0x34083bfd        0x1 obj/external/Components/NvM/Implementation/NvM_JobProc.o
                0x34083bfd                NvM_TaskState_t
 .MSR_VAR_CLEARED
                0x34083bfe        0x1 obj/external/Components/Xcp/Implementation/Xcp.o
 *fill*         0x34083bff        0x1 
 .MSR_VAR_CLEARED
                0x34083c00       0x30 obj/external/ThirdParty/Mcal_S32x/Supply/SW32G_RTD_4.4_3.0.4/eclipse/plugins/Fls_TS_T40D11M30I4R0/src/Fls.o
                0x34083c04                Fls_u32JobAddrIt
                0x34083c0c                Fls_u32JobSectorIt
                0x34083c1c                Fls_eLLDJobResult
                0x34083c1e                Fls_eLLDJob
                0x34083c20                Fls_pConfigPtr
                0x34083c24                Fls_u32JobSectorEnd
                0x34083c2c                Fls_u32JobAddrEnd
 .MSR_VAR_CLEARED
                0x34083c30       0x1c obj/external/ThirdParty/Mcal_S32x/Supply/SW32G_RTD_4.4_3.0.4/eclipse/plugins/Fls_TS_T40D11M30I4R0/src/Fls_IPW.o
 .MSR_VAR_CLEARED
                0x34083c4c       0x14 obj/external/ThirdParty/Mcal_S32x/Supply/SW32G_RTD_4.4_3.0.4/eclipse/plugins/Fls_TS_T40D11M30I4R0/src/Qspi_Ip.o
 .MSR_VAR_CLEARED
                0x34083c60        0x1 obj/external/ThirdParty/Mcal_S32x/Supply/SW32G_RTD_4.4_3.0.4/eclipse/plugins/Fls_TS_T40D11M30I4R0/src/Qspi_Ip_Controller.o
                0x34083c60                Qspi_Ip_MemoryPadding
 *fill*         0x34083c61        0x1 
 .MSR_VAR_CLEARED
                0x34083c62        0xb obj/external/ThirdParty/Mcal_S32x/Supply/SW32G_RTD_4.4_3.0.4/eclipse/plugins/Fls_TS_T40D11M30I4R0/src/Qspi_Ip_Sfdp.o
 *fill*         0x34083c6d        0x3 
 .MSR_VAR_CLEARED
                0x34083c70        0x4 obj/external/ThirdParty/Mcal_S32x/Supply/SW32G_RTD_4.4_3.0.4/eclipse/plugins/Mcl_TS_T40D11M30I4R0/src/CDD_Mcl.o
 .MSR_VAR_CLEARED
                0x34083c74        0x9 obj/external/ThirdParty/Mcal_S32x/Supply/SW32G_RTD_4.4_3.0.4/eclipse/plugins/Mcu_TS_T40D11M30I4R0/src/Clock_Ip.o
                0x34083c78                Clock_Ip_pxConfig
 *fill*         0x34083c7d        0x3 
 .MSR_VAR_CLEARED
                0x34083c80        0x9 obj/external/ThirdParty/Mcal_S32x/Supply/SW32G_RTD_4.4_3.0.4/eclipse/plugins/Mcu_TS_T40D11M30I4R0/src/Mcu.o
 *fill*         0x34083c89        0x3 
 .MSR_VAR_CLEARED
                0x34083c8c        0x8 obj/external/ThirdParty/Mcal_S32x/Supply/SW32G_RTD_4.4_3.0.4/eclipse/plugins/Mcu_TS_T40D11M30I4R0/src/Power_Ip_MC_RGM.o
 .MSR_VAR_CLEARED
                0x34083c94        0x4 obj/external/ThirdParty/Mcal_S32x/Supply/SW32G_RTD_4.4_3.0.4/eclipse/plugins/Port_TS_T40D11M30I4R0/src/Port.o
 .MSR_VAR_CLEARED
                0x34083c98       0x30 obj/external/ThirdParty/Mcal_S32x/Supply/SW32G_RTD_4.4_3.0.4/eclipse/plugins/Port_TS_T40D11M30I4R0/src/Port_Ipw.o
 .MSR_VAR_CLEARED
                0x34083cc8        0x8 obj/external/ThirdParty/Mcal_S32x/Supply/SW32G_RTD_4.4_3.0.4/eclipse/plugins/Port_TS_T40D11M30I4R0/src/Siul2_Port_Ip.o
 .MSR_VAR_CLEARED
                0x34083cd0        0x1 obj/external/ap-cp-gateway/Appl/GenData/CanNm_Cfg.o
                0x34083cd0                CanNm_ModuleInitialized
 .MSR_VAR_CLEARED
                0x34083cd1        0x1 obj/external/ap-cp-gateway/Appl/GenData/Com_Lcfg.o
                0x34083cd1                Com_Initialized
 *fill*         0x34083cd2        0x2 
 .MSR_VAR_CLEARED
                0x34083cd4       0x10 obj/external/ap-cp-gateway/Appl/GenData/Dem_Lcfg.o
                0x34083cd4                Dem_Cfg_SatelliteInfo0
 .MSR_VAR_CLEARED
                0x34083ce4        0x1 obj/external/ap-cp-gateway/Appl/GenData/IpduM_Lcfg.o
                0x34083ce4                IpduM_Initialized
 *(*.MSR_VAR_FAST_CLEARED)
                0x34083ce8                . = ALIGN (0x4)
 *fill*         0x34083ce5        0x3 
                0x34083ce7                _MSR_VAR_CLEARED_END = ABSOLUTE ((. - 0x1))
                0x34083ce8                _MSR_VAR_CLEARED_LIMIT = ABSOLUTE (.)

.MSR_VAR_INIT   0x34083ce8       0x1c
                0x34083ce8                _MSR_VAR_INIT_START = ABSOLUTE (.)
 *(*.MSR_VAR_FAST_INIT)
 *(*.MSR_VAR_INIT)
 .MSR_VAR_INIT  0x34083ce8        0x1 obj/external/Components/Dem/Implementation/Dem.o
                0x34083ce8                Dem_GlobalConfigPtrInitState
 *fill*         0x34083ce9        0x3 
 .MSR_VAR_INIT  0x34083cec        0x8 obj/external/ThirdParty/Mcal_S32x/Supply/SW32G_RTD_4.4_3.0.4/eclipse/plugins/Dio_TS_T40D11M30I4R0/src/Siul2_Dio_Ip.o
                0x34083cec                Siul2_Dio_Ip_au32BaseAdresses
 .MSR_VAR_INIT  0x34083cf4        0x4 obj/external/ThirdParty/Mcal_S32x/Supply/SW32G_RTD_4.4_3.0.4/eclipse/plugins/Mcu_TS_T40D11M30I4R0/src/Clock_Ip.o
 .MSR_VAR_INIT  0x34083cf8        0x4 obj/external/ThirdParty/Mcal_S32x/Supply/SW32G_RTD_4.4_3.0.4/eclipse/plugins/Mcu_TS_T40D11M30I4R0/src/Power_Ip.o
                0x34083cf8                Power_Ip_pfReportErrorsCallback
 .MSR_VAR_INIT  0x34083cfc        0x8 obj/external/ap-cp-gateway/Appl/Source/ipc-shm/Cdd_Ipc_Lcfg.o
                0x34083cfc                ipcf_shm_instances_cfg
                0x34083d04                . = ALIGN (0x4)
                0x34083d03                _MSR_VAR_INIT_END = ABSOLUTE ((. - 0x1))
                0x34083d04                _MSR_VAR_INIT_LIMIT = ABSOLUTE (.)
                0x34083ce8                _MSR_VAR_INIT_ROM_START = LOADADDR (.MSR_VAR_INIT)
                0x34083d04                _MSR_VAR_INIT_ROM_LIMIT = (LOADADDR (.MSR_VAR_INIT) + SIZEOF (.MSR_VAR_INIT))

.MSR_VAR_NO_INIT
                0x34083d04     0x272c
                0x34083d04                _MSR_VAR_NO_INIT_START = ABSOLUTE (.)
 *(*.MSR_VAR_FAST_NO_INIT)
 *(*.MSR_VAR_NO_INIT)
 .MSR_VAR_NO_INIT
                0x34083d04        0x1 obj/external/Components/CanTp/Implementation/CanTp.o
 *fill*         0x34083d05        0x3 
 .MSR_VAR_NO_INIT
                0x34083d08       0x19 obj/external/Components/CanXcp/Implementation/CanXcp.o
 *fill*         0x34083d21        0x3 
 .MSR_VAR_NO_INIT
                0x34083d24        0x8 obj/external/Components/Can_30_Flexcan4/Implementation/Can_30_Flexcan4.o
 .MSR_VAR_NO_INIT
                0x34083d2c        0x1 obj/external/Components/ComM/Implementation/ComM.o
 *fill*         0x34083d2d        0x3 
 .MSR_VAR_NO_INIT
                0x34083d30      0x194 obj/external/Components/Dcm/Implementation/Dcm.o
                0x34083e80                Dcm_Svc2CNvMData
 .MSR_VAR_NO_INIT
                0x34083ec4        0x1 obj/external/Components/Dcm/Implementation/Dcm_Debug.o
                0x34083ec4                Dcm_DebugInitState
 *fill*         0x34083ec5        0x3 
 .MSR_VAR_NO_INIT
                0x34083ec8        0x1 obj/external/Components/Dcm/Implementation/Dcm_DidMgr.o
 *fill*         0x34083ec9        0x3 
 .MSR_VAR_NO_INIT
                0x34083ecc        0x8 obj/external/Components/Dcm/Implementation/Dcm_Mode.o
 .MSR_VAR_NO_INIT
                0x34083ed4       0x12 obj/external/Components/Dcm/Implementation/Dcm_RsrcMgr.o
 *fill*         0x34083ee6        0x2 
 .MSR_VAR_NO_INIT
                0x34083ee8        0x4 obj/external/Components/Dcm/Implementation/Dcm_State.o
 .MSR_VAR_NO_INIT
                0x34083eec       0x10 obj/external/Components/Dcm/Implementation/Dcm_Svc27.o
 .MSR_VAR_NO_INIT
                0x34083efc       0x7c obj/external/Components/Dcm/Implementation/Dcm_Svc2ASchd.o
 .MSR_VAR_NO_INIT
                0x34083f78       0x18 obj/external/Components/Dcm/Implementation/Dcm_Svc2F.o
 .MSR_VAR_NO_INIT
                0x34083f90        0x1 obj/external/Components/Dcm/Implementation/Dcm_Svc31.o
 *fill*         0x34083f91        0x3 
 .MSR_VAR_NO_INIT
                0x34083f94       0x2c obj/external/Components/Dcm/Implementation/Dcm_Tmr.o
 .MSR_VAR_NO_INIT
                0x34083fc0       0x28 obj/external/Components/Dcm/Implementation/Dcm_Tsk.o
 .MSR_VAR_NO_INIT
                0x34083fe8       0x30 obj/external/Components/Dem/Implementation/Dem.o
                0x34083fe8                Dem_LineOfRuntimeError
                0x34084014                Dem_FileOfRuntimeError
 .MSR_VAR_NO_INIT
                0x34084018        0x1 obj/external/Components/Det/Implementation/Det.o
 *fill*         0x34084019        0x3 
 .MSR_VAR_NO_INIT
                0x3408401c       0x18 obj/external/Components/EcuM/Implementation/EcuM.o
 .MSR_VAR_NO_INIT
                0x34084034      0x4c9 obj/external/Components/Fee/Implementation/Fee.o
                0x34084034                Fee_Globals_t
 .MSR_VAR_NO_INIT
                0x340844fd        0x1 obj/external/Components/Nm/Implementation/Nm.o
 .MSR_VAR_NO_INIT
                0x340844fe        0x1 obj/external/Components/NvM/Implementation/NvM.o
                0x340844fe                NvM_ApiFlags_u8
 .MSR_VAR_NO_INIT
                0x340844ff        0x1 obj/external/Components/NvM/Implementation/NvM_Act.o
 .MSR_VAR_NO_INIT
                0x34084500       0x18 obj/external/Components/NvM/Implementation/NvM_DataIntegrity.o
 .MSR_VAR_NO_INIT
                0x34084518       0x79 obj/external/Components/NvM/Implementation/NvM_JobProc.o
                0x34084518                NvM_JobSubState_t
                0x3408451c                NvM_SecondaryRedundantBlockDataIntegrityRecord
                0x34084520                NvM_DcmBlockMngmt_t
                0x34084524                NvM_BlockMngmtArea_at
                0x34084548                NvM_CurrentBlockInfo_t
                0x34084590                NvM_JobMainState_t
 *fill*         0x34084591        0x3 
 .MSR_VAR_NO_INIT
                0x34084594        0xc obj/external/Components/NvM/Implementation/NvM_Queue.o
                0x34084598                NvM_CurrentJob_t
 .MSR_VAR_NO_INIT
                0x340845a0      0x5aa obj/external/Components/Xcp/Implementation/Xcp.o
                0x340845c0                Xcp_ChannelInfo
 *fill*         0x34084b4a        0x2 
 .MSR_VAR_NO_INIT
                0x34084b4c       0x55 obj/external/ap-cp-gateway/Appl/GenData/BswM_Lcfg.o
                0x34084b4c                BswM_CanSMChannelState
                0x34084b4d                BswM_PreInitialized
                0x34084b50                BswM_RuleStates
                0x34084b60                BswM_GenericState
                0x34084b68                BswM_QueueWritten
                0x34084b69                BswM_Mode_Notification_ESH_ModeNotification_BswM_MDGP_ESH_Mode
                0x34084b6a                BswM_Switch_ESH_ModeSwitch_BswM_MDGP_ESH_Mode
                0x34084b6c                BswM_ModeRequestQueue
                0x34084b6f                Request_ESH_RunRequest_0_requestedMode
                0x34084b70                BswM_NvMJobState
                0x34084b71                Request_ESH_RunRequest_1_requestedMode
                0x34084b72                BswM_ForcedActionListPriority
                0x34084b74                BswM_TimerState
                0x34084b77                Request_ESH_PostRunRequest_0_requestedMode
                0x34084b78                BswM_ActionListQueue
                0x34084b8c                Request_ESH_PostRunRequest_1_requestedMode
                0x34084b8d                BswM_QueueSemaphore
                0x34084b90                BswM_ComMChannelState
                0x34084b94                BswM_TimerValue
                0x34084ba0                BswM_Initialized
 *fill*         0x34084ba1        0x3 
 .MSR_VAR_NO_INIT
                0x34084ba4       0x61 obj/external/ap-cp-gateway/Appl/GenData/CanIf_Lcfg.o
                0x34084ba4                CanIf_CtrlStates
                0x34084ba8                CanIf_TxQueue
                0x34084c04                CanIf_TxBufferPrioByCanIdBase
 *fill*         0x34084c05        0x3 
 .MSR_VAR_NO_INIT
                0x34084c08       0x48 obj/external/ap-cp-gateway/Appl/GenData/CanNm_Cfg.o
                0x34084c08                CanNm_NetworkRestartFlag
                0x34084c0c                CanNm_TxControlStateRequest
                0x34084c10                CanNm_CoordReadyToSleepState
                0x34084c14                CanNm_MsgTimer
                0x34084c18                CanNm_TxControlState
                0x34084c1c                CanNm_CommState
                0x34084c20                CanNm_MsgTimeoutTimer
                0x34084c24                CanNm_TimeoutTimer
                0x34084c28                CanNm_MsgRequest
                0x34084c2c                CanNm_RxMessageData
                0x34084c34                CanNm_MsgIndicationFlag
                0x34084c38                CanNm_RepeatMsgTimer
                0x34084c3c                CanNm_WaitBusSleepTimer
                0x34084c40                CanNm_MsgConfirmationFlag
                0x34084c44                CanNm_NmState
                0x34084c48                CanNm_TxMessageData
 .MSR_VAR_NO_INIT
                0x34084c50       0x12 obj/external/ap-cp-gateway/Appl/GenData/CanSM_Lcfg.o
                0x34084c50                CanSM_ChannelVarRecord
 *fill*         0x34084c62        0x2 
 .MSR_VAR_NO_INIT
                0x34084c64       0x5a obj/external/ap-cp-gateway/Appl/GenData/CanTp_Lcfg.o
                0x34084c64                CanTp_RxState
                0x34084c9c                CanTp_CalcBS
                0x34084ca0                CanTp_TxState
                0x34084cbc                CanTp_TxSemaphores
 *fill*         0x34084cbe        0x2 
 .MSR_VAR_NO_INIT
                0x34084cc0       0x88 obj/external/ap-cp-gateway/Appl/GenData/Can_30_Flexcan4_Lcfg.o
                0x34084cc0                Can_30_Flexcan4_ControllerData
                0x34084d44                Can_30_Flexcan4_ActiveSendObject
 .MSR_VAR_NO_INIT
                0x34084d48       0x21 obj/external/ap-cp-gateway/Appl/GenData/ComM_Lcfg.o
                0x34084d48                ComM_BusSmState
                0x34084d4c                ComM_NmStartUpIndicated
                0x34084d50                ComM_BusComModeReq
                0x34084d51                ComM_InitStatus
                0x34084d54                ComM_ActiveComMode
                0x34084d58                ComM_EcuMWakeUpIndicated
                0x34084d5c                ComM_DcmRequestActive
                0x34084d60                ComM_UserReqFullCom
                0x34084d64                ComM_ComAllowed
                0x34084d68                ComM_PostInitialized
 *fill*         0x34084d69        0x3 
 .MSR_VAR_NO_INIT
                0x34084d6c       0xc2 obj/external/ap-cp-gateway/Appl/GenData/Com_Lcfg.o
                0x34084d6c                Com_HandleRxPduDeferred
                0x34084d74                Com_TmpRxShdBufferUInt8
                0x34084d7c                Com_CyclicSendRequest
                0x34084d84                Com_TmpRxShdBufferUInt32
                0x34084d88                Com_RxIPduGroupISRLockCounter
                0x34084d8c                Com_TxPduGrpActive
                0x34084d94                Com_RxDefPduBuffer
                0x34084dac                Com_TxIPduGroupISRLockCounter
                0x34084db0                Com_RxSigBufferUInt32
                0x34084dbc                Com_IPduGroupState
                0x34084dc0                Com_TransmitRequest
                0x34084dc8                Com_RxPduGrpActive
                0x34084dcc                Com_TxSduLength
                0x34084dd8                Com_RxMainFunctionProcessingISRLockCounter
                0x34084ddc                Com_CycleTimeCnt
                0x34084de4                Com_TxProcessingISRLockCounter
                0x34084de8                Com_SigGrpEventFlag
                0x34084dec                Com_CurrentTxMode
                0x34084df4                Com_RxSigBufferUInt8
                0x34084e04                Com_TxBuffer
                0x34084e2c                Com_RxSigBufferUInt16
 *fill*         0x34084e2e        0x2 
 .MSR_VAR_NO_INIT
                0x34084e30      0xfff obj/external/ap-cp-gateway/Appl/GenData/Dcm_Lcfg.o
 *fill*         0x34085e2f        0x1 
 .MSR_VAR_NO_INIT
                0x34085e30      0x1c9 obj/external/ap-cp-gateway/Appl/GenData/Dem_Lcfg.o
                0x34085e30                Dem_Cfg_ClearDTCTable
                0x34085e34                Dem_Cfg_MemoryStatus
                0x34085e40                Dem_Cfg_FilterInfoTable
                0x34085e5c                Dem_Cfg_EventDataCommitNumber
                0x34085e60                Dem_Cfg_IndicatorEventCounters
                0x34085e64                Dem_Cfg_PrimaryChronology
                0x34085e6c                Dem_Cfg_EnableConditionFulfilled
                0x34085e70                Dem_Cfg_PrimaryEntry_4
                0x34085e88                Dem_Cfg_PrimaryEntry_7
                0x34085ea0                Dem_Cfg_ExtendedDataRecordIteratorTable
                0x34085eb0                Dem_Cfg_PrimaryEntry_1
                0x34085ec8                Dem_Cfg_ReadoutBuffer
                0x34085f0c                Dem_Cfg_EventInternalStatus
                0x34085f10                Dem_Cfg_PrimaryEntry_0
                0x34085f28                Dem_Cfg_CommitBuffer
                0x34085f40                Dem_Cfg_EnableConditionGroupCounter
                0x34085f44                Dem_Cfg_PrimaryEntry_6
                0x34085f5c                Dem_Cfg_EventDebounceValue
                0x34085f64                Dem_Cfg_MemoryCurrentCount
                0x34085f68                Dem_Cfg_EnableConditionGroupState
                0x34085f6c                Dem_Cfg_FreezeFrameIteratorTable
                0x34085f7c                Dem_Cfg_PrimaryEntry_3
                0x34085f94                Dem_Cfg_PrimaryEntry_5
                0x34085fac                Dem_Cfg_AdminData
                0x34085fbc                Dem_Cfg_DTCSelectorTable
                0x34085fcc                Dem_Cfg_StatusData
                0x34085fdc                Dem_Cfg_PrimaryEntry_2
                0x34085ff4                Dem_Cfg_ReportedEventsOfFilter
                0x34085ff8                Dem_Cfg_FilterReportedEvents
 .MSR_VAR_NO_INIT
                0x34085ff9        0x1 obj/external/ap-cp-gateway/Appl/GenData/EcuM_Cfg.o
                0x34085ff9                EcuM_ModuleState
 *fill*         0x34085ffa        0x2 
 .MSR_VAR_NO_INIT
                0x34085ffc       0x24 obj/external/ap-cp-gateway/Appl/GenData/Fee_Lcfg.o
 .MSR_VAR_NO_INIT
                0x34086020       0x35 obj/external/ap-cp-gateway/Appl/GenData/IpduM_Lcfg.o
                0x34086020                IpduM_ContainerTxConfirmationBuffer
                0x34086024                IpduM_VTxContainerPdu
                0x34086028                IpduM_VRequestQueueInfo
                0x3408602c                IpduM_VContainerTxConfirmationBufferInfo
                0x34086030                IpduM_RxContainerMainFunctionBuffer
                0x3408603c                IpduM_RequestQueueBuffer
                0x34086044                IpduM_ContainerTxLIBBuffer
                0x34086054                IpduM_VTxLoInfo
 *fill*         0x34086055        0x3 
 .MSR_VAR_NO_INIT
                0x34086058        0x2 obj/external/ap-cp-gateway/Appl/GenData/Nm_Cfg.o
                0x34086058                Nm_PostInitialized
                0x34086059                Nm_Initialized
 *fill*         0x3408605a        0x2 
 .MSR_VAR_NO_INIT
                0x3408605c       0x90 obj/external/ap-cp-gateway/Appl/GenData/NvM_Cfg.o
                0x34086080                NvM_JobQueue_at
                0x340860e8                NvM_InternalBuffer_au8
 .MSR_VAR_NO_INIT
                0x340860ec       0xd8 obj/external/ap-cp-gateway/Appl/GenData/PduR_Lcfg.o
                0x340860ec                PduR_RmBufferedIfPropertiesRam
                0x340860f0                PduR_InitializedRam
                0x340860f4                PduR_FmFifoInstanceRam
                0x340860f6                PduR_PreInitialized
                0x340860f8                PduR_RmGDestTpTxStateRam
                0x340860fc                PduR_BmTxBufferInstanceRam
                0x34086128                PduR_BmTxBufferArrayRam
                0x34086158                PduR_FmFifoRam
                0x34086164                PduR_FmFifoElementRam
                0x3408616c                PduR_BmTxBufferRam
 .MSR_VAR_NO_INIT
                0x340861c4        0x1 obj/external/ap-cp-gateway/Appl/GenData/Rte.o
                0x340861c4                Rte_ModeMachine_BswM_Switch_ESH_ModeSwitch_BswM_MDGP_ESH_Mode
 *fill*         0x340861c5        0x3 
 .MSR_VAR_NO_INIT
                0x340861c8      0x204 obj/external/ap-cp-gateway/Appl/GenData/Xcp_Lcfg.o
 .MSR_VAR_NO_INIT
                0x340863cc        0x1 obj/external/ap-cp-gateway/Appl/Source/BrsMain.o
 *fill*         0x340863cd        0x3 
 .MSR_VAR_NO_INIT
                0x340863d0        0x8 obj/external/ap-cp-gateway/Appl/Source/XcpAppl.o
                0x340863d0                XcpAppl_ConnectionState
                0x340863d4                XcpAppl_FrConfigParameter
 .MSR_VAR_NO_INIT
                0x340863d8       0x58 obj/external/ap-cp-gateway/Appl/Source/ipc-shm/Cdd_Ipc.o
                0x340863d8                ipcfContexts
                0x340863f0                rxBuffer
                0x3408642f                _MSR_VAR_NO_INIT_END = ABSOLUTE ((. - 0x1))
                0x34086430                _MSR_VAR_NO_INIT_LIMIT = ABSOLUTE (.)
                0x34083bfc                _MSR_VAR_ALL_START = _MSR_VAR_CLEARED_START
                0x3408642f                _MSR_VAR_ALL_END = _MSR_VAR_NO_INIT_END
                0x34086430                _MSR_VAR_ALL_LIMIT = _MSR_VAR_NO_INIT_LIMIT

.MSR_VAR_SAVED_ZONE_INIT
                0x34086430        0x0
                0x34086430                _MSR_VAR_SAVED_ZONE_INIT_START = ABSOLUTE (.)
 *(*.MSR_VAR_SAVED_ZONE_FAST_INIT)
 *(*.MSR_VAR_SAVED_ZONE_INIT)
                0x34086430                . = ALIGN (0x4)
                0x3408642f                _MSR_VAR_SAVED_ZONE_INIT_END = ABSOLUTE ((. - 0x1))
                0x34086430                _MSR_VAR_SAVED_ZONE_INIT_LIMIT = ABSOLUTE (.)
                0x34086430                _MSR_VAR_SAVED_ZONE_INIT_ROM_START = LOADADDR (.MSR_VAR_SAVED_ZONE_INIT)
                0x34086430                _MSR_VAR_SAVED_ZONE_INIT_ROM_LIMIT = (LOADADDR (.MSR_VAR_SAVED_ZONE_INIT) + SIZEOF (.MSR_VAR_SAVED_ZONE_INIT))

.MSR_VAR_SAVED_ZONE_NO_INIT
                0x34086430        0x6
                0x34086430                _MSR_VAR_SAVED_ZONE_NO_INIT_START = ABSOLUTE (.)
 *(*.MSR_VAR_SAVED_ZONE_FAST_NO_INIT)
 *(*.MSR_VAR_SAVED_ZONE_NO_INIT)
 .MSR_VAR_SAVED_ZONE_NO_INIT
                0x34086430        0x6 obj/external/ap-cp-gateway/Appl/GenData/ComM_Lcfg.o
                0x34086430                ComM_Inhibition
                0x34086435                _MSR_VAR_SAVED_ZONE_NO_INIT_END = ABSOLUTE ((. - 0x1))
                0x34086436                _MSR_VAR_SAVED_ZONE_NO_INIT_LIMIT = ABSOLUTE (.)
                0x34086430                _MSR_VAR_SAVED_ZONE_ALL_START = _MSR_VAR_SAVED_ZONE_INIT_START
                0x34086435                _MSR_VAR_SAVED_ZONE_ALL_END = _MSR_VAR_SAVED_ZONE_NO_INIT_END
                0x34086436                _MSR_VAR_SAVED_ZONE_ALL_LIMIT = _MSR_VAR_SAVED_ZONE_NO_INIT_LIMIT

.OS_CODE        0x34086438     0x69c8
                0x34086438                _OS_CODE_START = ABSOLUTE (.)
 *(*.OS_CODE)
 .OS_CODE       0x34086438        0x2 obj/external/Components/Os/Implementation/Os_Hal_Compiler_TiInt.o
 *fill*         0x3408643a        0x2 
 .OS_CODE       0x3408643c      0x300 obj/external/Components/Os/Implementation/Os_Hal_ContextAsm.o
                0x3408652c                Os_Hal_StartNewThread
                0x3408653c                Os_Hal_StorePermanentRegisters
                0x34086542                Os_Hal_SysCallHandler
                0x34086600                Os_Hal_UnhandledIRQ
                0x34086646                Os_Hal_UnhandledEXC
                0x340866a2                Os_Hal_MemFault
 .OS_CODE       0x3408673c        0x0 obj/external/ap-cp-gateway/Appl/GenData/Os_Hal_EntryAsm_Lcfg.o
 .OS_CODE       0x3408673c        0x8 obj/external/Components/Os/Implementation/Os_AccessCheck.o
                0x3408673c                Os_Api_CheckTaskMemoryAccess
                0x34086740                Os_Api_CheckISRMemoryAccess
 .OS_CODE       0x34086744      0x4f4 obj/external/Components/Os/Implementation/Os_Alarm.o
                0x34086744                Os_AlarmInit
                0x3408677a                Os_AlarmKill
                0x34086794                Os_AlarmActionSetEvent
                0x340867da                Os_AlarmActionActivateTask
                0x340867e0                Os_AlarmActionIncrementCounter
                0x340867e6                Os_AlarmActionCallback
                0x340867ec                Os_AlarmGetAlarmLocal
                0x3408684c                Os_AlarmSetRelAlarmLocal
                0x3408689c                Os_AlarmSetAbsAlarmLocal
                0x340868e4                Os_AlarmCancelAlarmLocal
                0x34086904                Os_Api_GetAlarmBase
                0x3408696c                Os_Api_GetAlarm
                0x34086a3c                Os_Api_SetRelAlarm
                0x34086af8                Os_Api_SetAbsAlarm
                0x34086bac                Os_Api_CancelAlarm
 .OS_CODE       0x34086c38      0x3d4 obj/external/Components/Os/Implementation/Os_Application.o
                0x34086d0e                Os_AppServicesInit
                0x34086d1e                Os_AppInit
                0x34086dac                Os_AppKill
                0x34086db2                Os_AppKillNoSuicide
                0x34086ea4                Os_Api_GetApplicationID
                0x34086ec8                Os_Api_GetCurrentApplicationID
                0x34086eec                Os_Api_GetApplicationState
                0x34086f54                Os_Api_CheckObjectAccess
                0x34086f58                Os_Api_CheckObjectOwnership
                0x34086fdc                Os_Api_AllowAccess
                0x34086fec                Os_Api_TerminateApplication
                0x34086ffc                Os_AppTerminateApplicationLocal
                0x34087002                Os_AppGetApplicationStateLocal
 .OS_CODE       0x3408700c       0x28 obj/external/Components/Os/Implementation/Os_Barrier.o
                0x3408700c                Os_BarrierInit
                0x34087016                Os_BarrierAttach
                0x34087018                Os_BarrierAttachUserBarrier
                0x3408701a                Os_BarrierDetach
                0x34087022                Os_BarrierSynchronizeInternal
                0x34087024                Os_Api_BarrierSynchronize
 .OS_CODE       0x34087034      0x8b8 obj/external/Components/Os/Implementation/Os_Core.o
                0x340871c0                Os_CoreShutdownAllLocal
                0x340871c8                Os_SystemShutdown
                0x340871f4                Os_Task_Os_IdleTask
                0x340871f8                Os_Api_GetVersionInfo
                0x34087208                Os_Api_GetExceptionContext
                0x34087250                Os_Api_SetExceptionContext
                0x34087256                Os_Api_GetExceptionAddress
                0x34087274                Os_Api_InitMemory
                0x34087276                Os_Api_Init
                0x340873e0                Os_Api_InitInterruptOnly
                0x340873e2                Os_Api_EnterPreStartTask
                0x340873f0                Os_CorePreStartTaskWrapper
                0x34087458                Os_Api_StartCore
                0x3408745e                Os_Api_StartNonAutosarCore
                0x34087464                Os_Api_GetCoreID
                0x34087470                Os_Api_GetNumberOfActivatedCores
                0x340874a0                Os_Api_GetActiveApplicationMode
                0x340874c4                Os_Api_StartOS
                0x34087500                Os_CoreInitHook
                0x3408768c                Os_Api_ShutdownOS
                0x340876c8                Os_Api_ShutdownAllCores
                0x34087704                Os_UnhandledIrq
                0x34087730                Os_Api_GetUnhandledIrq
                0x34087768                Os_UnhandledExc
                0x340877ac                Os_Api_GetUnhandledExc
                0x340877e8                Os_Api_GetCoreStartState
                0x34087850                Os_UnhandledSysCall
                0x34087870                Os_CoreControlIdle
                0x3408787a                Os_Api_ControlIdle
 .OS_CODE       0x340878ec      0xdd8 obj/external/Components/Os/Implementation/Os_Counter.o
                0x340878ec                Os_CounterGetValue
                0x340879a0                Os_CounterGetModulo
                0x340879f8                Os_CounterSub
                0x34087a06                Os_CounterInit
                0x34087a64                Os_CounterStart
                0x34087ba8                Os_CounterGetUserValueLocal
                0x34087c70                Os_CounterWorkJobs
                0x34087f9a                Os_CounterAddRelJob
                0x34088110                Os_CounterAddAbsJob
                0x340882e2                Os_CounterReloadJob
                0x340883fa                Os_CounterDeleteJob
                0x34088586                Os_CounterIncrementInternal
                0x34088590                Os_Api_IncrementCounter
                0x340885a0                Os_Api_GetCounterValue
                0x34088614                Os_Api_GetElapsedValue
 .OS_CODE       0x340886c4      0x6fc obj/external/Components/Os/Implementation/Os_Error.o
                0x340886f8                Os_ErrInit
                0x34088706                Os_ErrorGetParameter_AlarmType
                0x34088730                Os_ErrorGetParameter_AlarmBaseRefType
                0x3408875a                Os_ErrorGetParameter_ApplicationStateRefType
                0x34088784                Os_ErrorGetParameter_ApplicationType
                0x340887ae                Os_ErrorGetParameter_boolean
                0x340887d8                Os_ErrorGetParameter_booleanRefType
                0x34088802                Os_ErrorGetParameter_CoreIdType
                0x3408882c                Os_ErrorGetParameter_ExceptionContextRefType
                0x34088856                Os_ErrorGetParameter_CounterType
                0x34088880                Os_ErrorGetParameter_EventMaskType
                0x340888aa                Os_ErrorGetParameter_EventMaskRefType
                0x340888d4                Os_ErrorGetParameter_IdleModeType
                0x340888fe                Os_ErrorGetParameter_ISRType
                0x34088928                Os_ErrorGetParameter_ResourceType
                0x34088952                Os_ErrorGetParameter_InterruptSourceIdRefType
                0x3408897c                Os_ErrorGetParameter_ExceptionSourceIdRefType
                0x340889a6                Os_ErrorGetParameter_RestartType
                0x340889d0                Os_ErrorGetParameter_ScheduleTableStatusRefType
                0x340889fa                Os_ErrorGetParameter_ScheduleTableType
                0x34088a24                Os_ErrorGetParameter_SpinlockIdType
                0x34088a4e                Os_ErrorGetParameter_TaskRefType
                0x34088a78                Os_ErrorGetParameter_TaskStateRefType
                0x34088aa2                Os_ErrorGetParameter_BarrierIdType
                0x34088acc                Os_ErrorGetParameter_TaskType
                0x34088af6                Os_ErrorGetParameter_TickRefType
                0x34088b20                Os_ErrorGetParameter_TickType
                0x34088b4a                Os_ErrorGetParameter_TrustedFunctionIndexType
                0x34088b74                Os_ErrorGetParameter_TrustedFunctionParameterRefType
                0x34088b9e                Os_ErrorGetParameter_FastTrustedFunctionIndexType
                0x34088bc8                Os_ErrorGetParameter_FastTrustedFunctionParameterRefType
                0x34088bf2                Os_ErrorGetParameter_Os_NonTrustedFunctionIndexType
                0x34088c1c                Os_ErrorGetParameter_Os_NonTrustedFunctionParameterRefType
                0x34088c46                Os_ErrorGetParameter_TryToGetSpinlockRefType
                0x34088c70                Os_ErrApplicationError
                0x34088cfc                Os_ErrProtectionError
                0x34088d04                Os_Api_GetDetailedError
                0x34088d40                Os_Api_ErrorGetServiceId
                0x34088d64                Os_ErrKernelPanic
                0x34088d7e                Os_ErrProtectionException
 .OS_CODE       0x34088dc0      0x3d0 obj/external/Components/Os/Implementation/Os_Event.o
                0x34088dc0                Os_Api_ClearEvent
                0x34088e3c                Os_Api_WaitEvent
                0x34088f6c                Os_EventSetLocal
                0x34088fe2                Os_Api_SetEvent
                0x340890e8                Os_EventSetInternal
                0x340890f8                Os_EventGetLocal
                0x34089124                Os_Api_GetEvent
 .OS_CODE       0x34089190      0x100 obj/external/Components/Os/Implementation/Os_Hal_Context.o
                0x34089190                Os_Hal_ContextSwitch
                0x340891e0                Os_Hal_ContextCall
                0x34089240                Os_Hal_ContextCallOnStack
 .OS_CODE       0x34089290       0x38 obj/external/Components/Os/Implementation/Os_Hal_Core.o
                0x34089290                Os_Hal_CoreInit
                0x340892c0                Os_Hal_CoreInitHardware
                0x340892c2                Os_Hal_CoreFreeze
 .OS_CODE       0x340892c8      0x500 obj/external/Components/Os/Implementation/Os_Hook.o
                0x340893ec                Os_HookReturn
                0x34089534                Os_HookGetStatus
                0x3408953c                Os_HookInfoInit
                0x34089542                Os_HookInit
                0x340895b8                Os_HookCallStatusHook
                0x340896f4                Os_HookWrapperStatusHook
                0x34089704                Os_HookCallOs_CoreInitHook
                0x34089778                Os_HookWrapperOs_CoreInitHook
                0x340897a4                Os_HookWrapperProtectionHook
                0x340897aa                Os_HookCallProtectionHook
                0x340897ae                Os_HookCallCallback
                0x340897b2                Os_HookCallCallbackLocal
                0x340897b8                Os_HookWrapperCallback
                0x340897be                Os_HookKill
                0x340897c4                Os_HookCallPanicHook
 .OS_CODE       0x340897c8      0x198 obj/external/Components/Os/Implementation/Os_Interrupt.o
                0x340897c8                Os_InterruptInit
                0x340897d8                Os_Api_DisableAllInterrupts
                0x34089814                Os_Api_EnableAllInterrupts
                0x34089840                Os_Api_SuspendAllInterrupts
                0x34089884                Os_Api_ResumeAllInterrupts
                0x340898b4                Os_Api_SuspendOSInterrupts
                0x340898f0                Os_Api_ResumeOSInterrupts
                0x34089920                Os_Api_DisableGlobal
                0x34089930                Os_Api_EnableGlobal
                0x34089940                Os_Api_DisableLevel
                0x34089950                Os_Api_EnableLevel
 .OS_CODE       0x34089960       0x8a obj/external/Components/Os/Implementation/Os_Ioc.o
                0x34089960                Os_IocInitInternal
                0x34089966                Os_Ioc08MultiReceive
                0x3408996c                Os_Ioc08Receive
                0x34089972                Os_Ioc08EmptyQueue
                0x34089978                Os_Ioc08EmptyMultiQueue
                0x3408997e                Os_Ioc08Send
                0x34089984                Os_Ioc16MultiReceive
                0x3408998a                Os_Ioc16EmptyMultiQueue
                0x34089990                Os_Ioc16Receive
                0x34089996                Os_Ioc16EmptyQueue
                0x3408999c                Os_Ioc16Send
                0x340899a2                Os_Ioc32MultiReceive
                0x340899a8                Os_Ioc32Receive
                0x340899ae                Os_Ioc32EmptyQueue
                0x340899b4                Os_Ioc32EmptyMultiQueue
                0x340899ba                Os_Ioc32Send
                0x340899c0                Os_IocRefMultiReceive
                0x340899c6                Os_IocRefReceive
                0x340899cc                Os_IocRefEmptyQueue
                0x340899d2                Os_IocRefEmptyMultiQueue
                0x340899d8                Os_IocRefSend
                0x340899de                Os_IocRead
                0x340899e4                Os_IocWrite
 *fill*         0x340899ea        0x2 
 .OS_CODE       0x340899ec      0x684 obj/external/Components/Os/Implementation/Os_Isr.o
                0x34089aa8                Os_IsrInit
                0x34089b18                Os_IsrRun
                0x34089c04                Os_IsrEpilogue
                0x34089d18                Os_IsrEpilogueTp
                0x34089d1e                Os_Api_GetISRID
                0x34089da8                Os_Api_DisableInterruptSource
                0x34089e04                Os_Api_EnableInterruptSource
                0x34089e90                Os_Api_InitialEnableInterruptSources
                0x34089f34                Os_Api_ClearPendingInterrupt
                0x34089f90                Os_Api_IsInterruptSourceEnabled
                0x34089ffc                Os_Api_IsInterruptPending
                0x3408a068                Os_IsrKill
 .OS_CODE       0x3408a070       0x40 obj/external/Components/Os/Implementation/Os_MemoryProtection.o
                0x3408a070                Os_MemFault
 .OS_CODE       0x3408a0b0      0x1ec obj/external/Components/Os/Implementation/Os_Peripheral.o
                0x3408a0b0                Os_Api_ReadPeripheral8
                0x3408a0e0                Os_Api_ReadPeripheral16
                0x3408a114                Os_Api_ReadPeripheral32
                0x3408a148                Os_Api_WritePeripheral8
                0x3408a17c                Os_Api_WritePeripheral16
                0x3408a1b0                Os_Api_WritePeripheral32
                0x3408a1e4                Os_Api_ModifyPeripheral8
                0x3408a220                Os_Api_ModifyPeripheral16
                0x3408a260                Os_Api_ModifyPeripheral32
 .OS_CODE       0x3408a29c      0x2a2 obj/external/Components/Os/Implementation/Os_PriorityQueue.o
                0x3408a29c                Os_PriorityQueueInit
                0x3408a2a4                Os_PriorityQueueInsert
                0x3408a31e                Os_PriorityQueueDeleteTop
                0x3408a3d8                Os_PriorityQueueDelete
 *fill*         0x3408a53e        0x2 
 .OS_CODE       0x3408a540      0x340 obj/external/Components/Os/Implementation/Os_Resource.o
                0x3408a540                Os_ResourceInit
                0x3408a54a                Os_ResourceForciblyReleaseLocks
                0x3408a5ac                Os_Api_GetResource
                0x3408a6f4                Os_Api_ReleaseResource
 .OS_CODE       0x3408a880       0xb0 obj/external/Components/Os/Implementation/Os_ScheduleTable.o
                0x3408a880                Os_Api_StartScheduleTableRel
                0x3408a890                Os_Api_StartScheduleTableAbs
                0x3408a8a0                Os_Api_StopScheduleTable
                0x3408a8b0                Os_Api_NextScheduleTable
                0x3408a8c0                Os_Api_StartScheduleTableSynchron
                0x3408a8d0                Os_Api_SyncScheduleTable
                0x3408a8e0                Os_Api_SetScheduleTableAsync
                0x3408a8f0                Os_Api_GetScheduleTableStatus
                0x3408a900                Os_SchTInit
                0x3408a906                Os_SchTKill
                0x3408a90c                Os_SchTStartScheduleTableRelLocal
                0x3408a912                Os_SchTStartScheduleTableAbsLocal
                0x3408a918                Os_SchTStopScheduleTableLocal
                0x3408a91e                Os_SchTNextScheduleTableLocal
                0x3408a924                Os_SchTGetScheduleTableStatusLocal
                0x3408a92a                Os_SchTWorkScheduleTable
 .OS_CODE       0x3408a930      0x564 obj/external/Components/Os/Implementation/Os_Scheduler.o
                0x3408a930                Os_SchedulerInit
                0x3408a9b8                Os_SchedulerInsert
                0x3408aa1e                Os_SchedulerRobRound
                0x3408aa20                Os_SchedulerTaskRoundRobinEvent
                0x3408aa22                Os_SchedulerRemoveCurrentTask
                0x3408ab36                Os_SchedulerDeleteTask
                0x3408abcc                Os_SchedulerRemoveTaskAll
                0x3408ac2c                Os_SchedulerIncreasePrio
                0x3408ac96                Os_SchedulerDecreasePrio
                0x3408ad48                Os_SchedulerInternalSchedule
                0x3408add4                Os_SchedulerReleaseRunningPrio
 .OS_CODE       0x3408ae94       0x34 obj/external/Components/Os/Implementation/Os_ServiceFunction.o
                0x3408ae94                Os_ServiceInitInternal
                0x3408ae96                Os_ServiceReturn
                0x3408ae9c                Os_ServiceTfWrapper
                0x3408aea2                Os_ServiceNtfWrapper
                0x3408aea8                Os_ServiceCallForceRelease
                0x3408aeaa                Os_Api_CallTrustedFunction
                0x3408aeb8                Os_Api_CallNonTrustedFunction
                0x3408aec4                Os_Api_CallFastTrustedFunction
 .OS_CODE       0x3408aec8       0x26 obj/external/Components/Os/Implementation/Os_Spinlock.o
                0x3408aec8                Os_SpinlockForciblyReleaseThreadLocks
                0x3408aeca                Os_SpinlockGet
                0x3408aed0                Os_SpinlockRelease
                0x3408aed6                Os_SpinlockTryGet
                0x3408aedc                Os_Api_GetSpinlock
                0x3408aee2                Os_Api_ReleaseSpinlock
                0x3408aee8                Os_Api_TryToGetSpinlock
 .OS_CODE       0x3408aeee      0x11a obj/external/Components/Os/Implementation/Os_Stack.o
                0x3408aeee                Os_StackInitInternal
                0x3408aef8                Os_StackGetTaskStackUsageLocal
                0x3408aefe                Os_StackGetISRStackUsageLocal
                0x3408af04                Os_StackGetKernelStackUsageLocal
                0x3408af0a                Os_StackGetStartupHookStackUsageLocal
                0x3408af10                Os_StackGetErrorHookStackUsageLocal
                0x3408af16                Os_StackGetShutdownHookStackUsageLocal
                0x3408af1c                Os_StackGetProtectionHookStackUsageLocal
                0x3408af22                Os_StackGetNonTrustedFunctionStackUsageLocal
                0x3408af28                Os_Api_GetTaskStackUsage
                0x3408af44                Os_Api_GetISRStackUsage
                0x3408af60                Os_Api_GetKernelStackUsage
                0x3408af7c                Os_Api_GetStartupHookStackUsage
                0x3408af98                Os_Api_GetErrorHookStackUsage
                0x3408afb4                Os_Api_GetShutdownHookStackUsage
                0x3408afd0                Os_Api_GetProtectionHookStackUsage
                0x3408afec                Os_Api_GetNonTrustedFunctionStackUsage
 .OS_CODE       0x3408b008      0x8bc obj/external/Components/Os/Implementation/Os_Task.o
                0x3408b2b8                Os_TaskActivateLocalTask
                0x3408b2ec                Os_Api_ActivateTask
                0x3408b3e4                Os_TaskActivateRestartTask
                0x3408b408                Os_Api_TerminateTask
                0x3408b4ac                Os_Api_ChainTask
                0x3408b5a8                Os_Api_Schedule
                0x3408b6c0                Os_TaskInit
                0x3408b6fc                Os_TaskIdleTaskInit
                0x3408b724                Os_TaskKillAll
                0x3408b74c                Os_TaskGetStateInternal
                0x3408b778                Os_TaskKill
                0x3408b7b4                Os_Api_GetTaskID
                0x3408b80c                Os_Api_GetTaskState
                0x3408b868                Os_TaskMissingTerminateTask
                0x3408b8c0                Os_TaskCallPreTaskHook
 .OS_CODE       0x3408b8c4      0x174 obj/external/Components/Os/Implementation/Os_Thread.o
                0x3408b8c4                Os_ThreadSuicide
 .OS_CODE       0x3408ba38       0x8c obj/external/Components/Os/Implementation/Os_Timer.o
                0x3408ba38                Os_TimerSwIncrement
                0x3408ba60                Os_TimerPfrtStart
                0x3408ba66                Os_Isr_Os_TimerPitIsr
                0x3408bab8                Os_Isr_Os_TimerHrtIsr
                0x3408babe                Os_Isr_Os_TimerPfrtIsr
 .OS_CODE       0x3408bac4       0x44 obj/external/Components/Os/Implementation/Os_TimingProtection.o
                0x3408bac4                Os_TpThreadInitInternal
                0x3408baca                Os_TpThreadKillInternal
                0x3408bafc                Os_TpReducedInit
                0x3408bafe                Os_TpInit
                0x3408bb00                Os_TpStart
                0x3408bb02                Os_Isr_Os_TpIsr
 .OS_CODE       0x3408bb08      0xe64 obj/external/Components/Os/Implementation/Os_Trap.o
                0x3408bb08                Os_TrapSpinlockGet
                0x3408bb10                Os_TrapSpinlockRelease
                0x3408bb18                Os_TrapSpinlockTryGet
                0x3408bb20                Os_TrapIoc08Receive
                0x3408bb2c                Os_TrapIoc08EmptyQueue
                0x3408bb36                Os_TrapIoc08Send
                0x3408bb42                Os_TrapIoc16Receive
                0x3408bb4e                Os_TrapIoc16EmptyQueue
                0x3408bb58                Os_TrapIoc16Send
                0x3408bb64                Os_TrapIoc32Receive
                0x3408bb70                Os_TrapIoc32EmptyQueue
                0x3408bb7a                Os_TrapIoc32Send
                0x3408bb86                Os_TrapIocRefReceive
                0x3408bb92                Os_TrapIocRefEmptyQueue
                0x3408bb9c                Os_TrapIocRefSend
                0x3408bba8                Os_TrapIocRead
                0x3408bbb4                Os_TrapIocWrite
                0x3408bbc0                Os_TrapIoc08MultiReceive
                0x3408bbcc                Os_TrapIoc08EmptyMultiQueue
                0x3408bbd6                Os_TrapIoc16MultiReceive
                0x3408bbe2                Os_TrapIoc16EmptyMultiQueue
                0x3408bbec                Os_TrapIoc32MultiReceive
                0x3408bbf8                Os_TrapIoc32EmptyMultiQueue
                0x3408bc02                Os_TrapIocRefMultiReceive
                0x3408bc0e                Os_TrapIocRefEmptyMultiQueue
                0x3408bc18                Os_TrapErrApplicationError
                0x3408bc20                Os_TrapServiceReturn
                0x3408bc34                Os_TrapIsrEpilogue
                0x3408bc3a                Os_TrapTaskMissingTerminateTask
                0x3408bc40                Os_TrapHookGetStatus
                0x3408bc48                Os_TrapHookReturn
                0x3408bc4e                Os_TrapCoreGetLastErrorParametersLocal
                0x3408bc88                Os_GetVersionInfo
                0x3408bc90                Os_GetExceptionContext
                0x3408bcb8                Os_SetExceptionContext
                0x3408bce0                Os_GetExceptionAddress
                0x3408bce8                Os_InitMemory
                0x3408bcf0                Os_Init
                0x3408bcf8                Os_InitInterruptOnly
                0x3408bd00                Os_EnterPreStartTask
                0x3408bd08                StartCore
                0x3408bd14                StartNonAutosarCore
                0x3408bd20                GetCoreID
                0x3408bd28                GetNumberOfActivatedCores
                0x3408bd30                Os_GetCoreStartState
                0x3408bd46                GetActiveApplicationMode
                0x3408bd4e                StartOS
                0x3408bd56                ShutdownOS
                0x3408bd5e                ShutdownAllCores
                0x3408bd66                ControlIdle
                0x3408bd8e                Os_GetUnhandledIrq
                0x3408bdb6                Os_GetUnhandledExc
                0x3408bdde                Os_GetTaskStackUsage
                0x3408bde6                Os_GetISRStackUsage
                0x3408bdee                Os_GetKernelStackUsage
                0x3408bdf6                Os_GetStartupHookStackUsage
                0x3408bdfe                Os_GetErrorHookStackUsage
                0x3408be06                Os_GetShutdownHookStackUsage
                0x3408be0e                Os_GetProtectionHookStackUsage
                0x3408be16                Os_GetNonTrustedFunctionStackUsage
                0x3408be1e                GetSpinlock
                0x3408be40                ReleaseSpinlock
                0x3408be62                TryToGetSpinlock
                0x3408be90                DisableAllInterrupts
                0x3408be98                EnableAllInterrupts
                0x3408bea0                SuspendAllInterrupts
                0x3408bea8                ResumeAllInterrupts
                0x3408beb0                SuspendOSInterrupts
                0x3408beb8                ResumeOSInterrupts
                0x3408bec0                Os_DisableLevelAM
                0x3408bed0                Os_DisableLevelKM
                0x3408bee0                Os_DisableLevelUM
                0x3408bef0                Os_EnableLevelAM
                0x3408bf00                Os_EnableLevelKM
                0x3408bf10                Os_EnableLevelUM
                0x3408bf20                Os_DisableGlobalAM
                0x3408bf30                Os_DisableGlobalKM
                0x3408bf40                Os_DisableGlobalUM
                0x3408bf50                Os_EnableGlobalAM
                0x3408bf60                Os_EnableGlobalKM
                0x3408bf70                Os_EnableGlobalUM
                0x3408bf80                Os_DisableInterruptSource
                0x3408bfa2                Os_EnableInterruptSource
                0x3408bfca                Os_InitialEnableInterruptSources
                0x3408bfec                Os_ClearPendingInterrupt
                0x3408c00e                Os_IsInterruptSourceEnabled
                0x3408c03c                Os_IsInterruptPending
                0x3408c06a                Os_BarrierSynchronize
                0x3408c08c                ActivateTask
                0x3408c0ae                TerminateTask
                0x3408c0ca                ChainTask
                0x3408c0ec                Schedule
                0x3408c108                GetTaskID
                0x3408c130                GetTaskState
                0x3408c15e                GetISRID
                0x3408c166                Os_SetEvent
                0x3408c190                ClearEvent
                0x3408c1b4                GetEvent
                0x3408c1e2                WaitEvent
                0x3408c206                IncrementCounter
                0x3408c228                GetCounterValue
                0x3408c256                GetElapsedValue
                0x3408c290                GetAlarmBase
                0x3408c2be                GetAlarm
                0x3408c2ec                SetRelAlarm
                0x3408c316                SetAbsAlarm
                0x3408c340                CancelAlarm
                0x3408c362                GetResource
                0x3408c384                ReleaseResource
                0x3408c3a6                StartScheduleTableRel
                0x3408c3cc                StartScheduleTableAbs
                0x3408c3f2                StopScheduleTable
                0x3408c414                NextScheduleTable
                0x3408c43c                GetScheduleTableStatus
                0x3408c46a                StartScheduleTableSynchron
                0x3408c48c                SyncScheduleTable
                0x3408c4b2                SetScheduleTableAsync
                0x3408c4d4                GetApplicationID
                0x3408c4dc                GetCurrentApplicationID
                0x3408c4e4                GetApplicationState
                0x3408c512                CheckObjectAccess
                0x3408c51a                CheckObjectOwnership
                0x3408c522                AllowAccess
                0x3408c53e                TerminateApplication
                0x3408c566                Os_ReadPeripheral8
                0x3408c56e                Os_ReadPeripheral8Legacy
                0x3408c576                Os_ReadPeripheral16
                0x3408c57e                Os_ReadPeripheral16Legacy
                0x3408c586                Os_ReadPeripheral32
                0x3408c58e                Os_ReadPeripheral32Legacy
                0x3408c596                Os_WritePeripheral8
                0x3408c59e                Os_WritePeripheral8Legacy
                0x3408c5a6                Os_WritePeripheral16
                0x3408c5ae                Os_WritePeripheral16Legacy
                0x3408c5b6                Os_WritePeripheral32
                0x3408c5be                Os_WritePeripheral32Legacy
                0x3408c5c6                Os_ModifyPeripheral8
                0x3408c5ce                Os_ModifyPeripheral8Legacy
                0x3408c5d6                Os_ModifyPeripheral16
                0x3408c5de                Os_ModifyPeripheral16Legacy
                0x3408c5e6                Os_ModifyPeripheral32
                0x3408c5ee                Os_ModifyPeripheral32Legacy
                0x3408c5f6                CallTrustedFunction
                0x3408c61c                Os_CallNonTrustedFunction
                0x3408c642                Os_CallFastTrustedFunction
                0x3408c668                CheckTaskMemoryAccess
                0x3408c670                CheckISRMemoryAccess
                0x3408c678                Os_GetDetailedError
                0x3408c68c                OSErrorGetServiceId
                0x3408c694                OSError_Os_DisableInterruptSource_ISRID
                0x3408c69e                OSError_Os_EnableInterruptSource_ISRID
                0x3408c6a8                OSError_Os_EnableInterruptSource_ClearPending
                0x3408c6b2                OSError_Os_ClearPendingInterrupt_ISRID
                0x3408c6bc                OSError_Os_IsInterruptSourceEnabled_ISRID
                0x3408c6c6                OSError_Os_IsInterruptSourceEnabled_IsEnabled
                0x3408c6d0                OSError_Os_IsInterruptPending_ISRID
                0x3408c6da                OSError_Os_IsInterruptPending_IsPending
                0x3408c6e4                OSError_CallTrustedFunction_FunctionIndex
                0x3408c6ee                OSError_CallTrustedFunction_FunctionParams
                0x3408c6f8                OSError_CallFastTrustedFunction_FunctionIndex
                0x3408c702                OSError_CallFastTrustedFunction_FunctionParams
                0x3408c70c                OSError_CallNonTrustedFunction_FunctionIndex
                0x3408c716                OSError_CallNonTrustedFunction_FunctionParams
                0x3408c720                OSError_StartScheduleTableRel_ScheduleTableID
                0x3408c72a                OSError_StartScheduleTableRel_Offset
                0x3408c734                OSError_StartScheduleTableAbs_ScheduleTableID
                0x3408c73e                OSError_StartScheduleTableAbs_Start
                0x3408c748                OSError_StopScheduleTable_ScheduleTableID
                0x3408c752                OSError_NextScheduleTable_ScheduleTableID_From
                0x3408c75c                OSError_NextScheduleTable_ScheduleTableID_To
                0x3408c766                OSError_StartScheduleTableSynchron_ScheduleTableID
                0x3408c770                OSError_SyncScheduleTable_ScheduleTableID
                0x3408c77a                OSError_SyncScheduleTable_Value
                0x3408c784                OSError_SetScheduleTableAsync_ScheduleTableID
                0x3408c78e                OSError_GetScheduleTableStatus_ScheduleTableID
                0x3408c798                OSError_GetScheduleTableStatus_ScheduleStatus
                0x3408c7a2                OSError_IncrementCounter_CounterID
                0x3408c7ac                OSError_GetCounterValue_CounterID
                0x3408c7b6                OSError_GetCounterValue_Value
                0x3408c7c0                OSError_GetElapsedValue_CounterID
                0x3408c7ca                OSError_GetElapsedValue_Value
                0x3408c7d4                OSError_GetElapsedValue_ElapsedValue
                0x3408c7de                OSError_TerminateApplication_Application
                0x3408c7e8                OSError_TerminateApplication_RestartOption
                0x3408c7f2                OSError_GetApplicationState_Application
                0x3408c7fc                OSError_GetApplicationState_Value
                0x3408c806                OSError_GetSpinlock_SpinlockId
                0x3408c810                OSError_ReleaseSpinlock_SpinlockId
                0x3408c81a                OSError_TryToGetSpinlock_SpinlockId
                0x3408c824                OSError_TryToGetSpinlock_Success
                0x3408c82e                OSError_Os_GetExceptionContext_Context
                0x3408c838                OSError_Os_SetExceptionContext_Context
                0x3408c842                OSError_ControlIdle_CoreID
                0x3408c84c                OSError_ControlIdle_IdleMode
                0x3408c856                OSError_BarrierSynchronize_BarrierID
                0x3408c860                OSError_ActivateTask_TaskID
                0x3408c86a                OSError_ChainTask_TaskID
                0x3408c874                OSError_GetTaskID_TaskID
                0x3408c87e                OSError_GetTaskState_TaskID
                0x3408c888                OSError_GetTaskState_State
                0x3408c892                OSError_SetEvent_TaskID
                0x3408c89c                OSError_SetEvent_Mask
                0x3408c8a6                OSError_ClearEvent_Mask
                0x3408c8b0                OSError_GetEvent_TaskID
                0x3408c8ba                OSError_GetEvent_Mask
                0x3408c8c4                OSError_WaitEvent_Mask
                0x3408c8ce                OSError_GetAlarmBase_AlarmID
                0x3408c8d8                OSError_GetAlarmBase_Info
                0x3408c8e2                OSError_GetAlarm_AlarmID
                0x3408c8ec                OSError_GetAlarm_Tick
                0x3408c8f6                OSError_SetRelAlarm_AlarmID
                0x3408c900                OSError_SetRelAlarm_increment
                0x3408c90a                OSError_SetRelAlarm_cycle
                0x3408c914                OSError_SetAbsAlarm_AlarmID
                0x3408c91e                OSError_SetAbsAlarm_start
                0x3408c928                OSError_SetAbsAlarm_cycle
                0x3408c932                OSError_CancelAlarm_AlarmID
                0x3408c93c                OSError_GetResource_ResID
                0x3408c946                OSError_ReleaseResource_ResID
                0x3408c950                OSError_Os_GetUnhandledIrq_InterruptSource
                0x3408c95a                OSError_Os_GetUnhandledExc_ExceptionSource
                0x3408c964                Os_TrapHandler
 .OS_CODE       0x3408c96c      0x494 obj/external/Components/Os/Implementation/Os_XSignal.o
                0x3408c96c                Os_Isr_Os_XSigRecvIsrHandler
                0x3408ca48                Os_XSigInit
                0x3408ca4a                Os_XSigSendAsync
                0x3408ca4e                Os_XSigSendSync
                0x3408ca52                Os_XSigRecv_ActivateTask
                0x3408ca78                Os_XSigRecv_GetTaskState
                0x3408cab8                Os_XSigRecv_GetCounterValue
                0x3408cae0                Os_XSigRecv_SetEvent
                0x3408cb0c                Os_XSigRecv_GetEvent
                0x3408cb34                Os_XSigRecv_GetAlarm
                0x3408cb5c                Os_XSigRecv_SetRelAlarm
                0x3408cb88                Os_XSigRecv_SetAbsAlarm
                0x3408cbb4                Os_XSigRecv_CancelAlarm
                0x3408cbdc                Os_XSigRecv_StartScheduleTableRel
                0x3408cbe2                Os_XSigRecv_StartScheduleTableAbs
                0x3408cbe8                Os_XSigRecv_StopScheduleTable
                0x3408cbee                Os_XSigRecv_NextScheduleTable
                0x3408cbf4                Os_XSigRecv_GetScheduleTableStatus
                0x3408cbfa                Os_XSigRecv_GetTaskStackUsage
                0x3408cc28                Os_XSigRecv_GetISRStackUsage
                0x3408cc54                Os_XSigRecv_ControlIdle
                0x3408cc9c                Os_XSigRecv_GetKernelStackUsage
                0x3408ccc8                Os_XSigRecv_GetStartupHookStackUsage
                0x3408ccf4                Os_XSigRecv_GetErrorHookStackUsage
                0x3408cd20                Os_XSigRecv_GetShutdownHookStackUsage
                0x3408cd4c                Os_XSigRecv_GetProtectionHookStackUsage
                0x3408cd78                Os_XSigRecv_GetNonTrustedFunctionStackUsage
                0x3408cd7e                Os_XSigRecv_TerminateApplication
                0x3408cda8                Os_XSigRecv_GetApplicationState
                0x3408cdd0                Os_XSigRecv_ShutdownAllCores
                0x3408cdd8                Os_XSigRecv_HookCallCallback
 *(*.OS_OS_COREINITHOOK_CODE)
                0x3408cdff                _OS_CODE_END = ABSOLUTE ((. - 0x1))
                0x3408ce00                _OS_CODE_LIMIT = ABSOLUTE (.)
                0x34086438                _OS_CODE_ALL_START = _OS_CODE_START
                0x3408cdff                _OS_CODE_ALL_END = _OS_CODE_END
                0x3408ce00                _OS_CODE_ALL_LIMIT = _OS_CODE_LIMIT

.OS_CONST       0x3408ce00      0x9e4
                0x3408ce00                _OS_CONST_START = ABSOLUTE (.)
 *(*.OS_CONST)
 .OS_CONST      0x3408ce00        0x8 obj/external/ap-cp-gateway/Appl/GenData/Os_AccessCheck_Lcfg.o
                0x3408ce00                OsCfg_AccessCheck_NoAccess
 .OS_CONST      0x3408ce08       0x10 obj/external/ap-cp-gateway/Appl/GenData/Os_Alarm_Lcfg.o
                0x3408ce08                OsCfg_AlarmRefs
 .OS_CONST      0x3408ce18        0x8 obj/external/ap-cp-gateway/Appl/GenData/Os_Application_Lcfg.o
                0x3408ce18                OsCfg_AppRefs
 .OS_CONST      0x3408ce20        0x4 obj/external/ap-cp-gateway/Appl/GenData/Os_Barrier_Lcfg.o
 .OS_CONST      0x3408ce24       0x34 obj/external/ap-cp-gateway/Appl/GenData/Os_Core_Lcfg.o
                0x3408ce24                OsCfg_System
                0x3408ce4c                OsCfg_CoreBootBarrierRefs
 .OS_CONST      0x3408ce58        0x8 obj/external/ap-cp-gateway/Appl/GenData/Os_Counter_Lcfg.o
                0x3408ce58                OsCfg_CounterRefs
 .OS_CONST      0x3408ce60       0x10 obj/external/ap-cp-gateway/Appl/GenData/Os_Error_Lcfg.o
                0x3408ce60                OsCfg_OsCode_Sections
 .OS_CONST      0x3408ce70        0x8 obj/external/ap-cp-gateway/Appl/GenData/Os_Hal_Context_Lcfg.o
                0x3408ce70                OsCfg_Hal_Context_ExceptionContextRef
 .OS_CONST      0x3408ce78        0xc obj/external/ap-cp-gateway/Appl/GenData/Os_Hal_Core_Lcfg.o
                0x3408ce78                OsCfg_Hal_System_InterruptSourceRefs
                0x3408ce7c                OsCfg_Hal_System
                0x3408ce80                OsCfg_Hal_Core2Thread
 .OS_CONST      0x3408ce84       0x18 obj/external/ap-cp-gateway/Appl/GenData/Os_Hal_Kernel_Lcfg.o
                0x3408ce84                OsCfg_Stack_KernelStacks
                0x3408ce8c                OsCfg_CorePhysicalRefs
                0x3408ce94                OsCfg_CoreRefs
 .OS_CONST      0x3408ce9c        0xc obj/external/ap-cp-gateway/Appl/GenData/Os_Hook_Lcfg.o
                0x3408ce9c                OsCfg_HookRefs
 .OS_CONST      0x3408cea8       0x18 obj/external/ap-cp-gateway/Appl/GenData/Os_Isr_Lcfg.o
                0x3408cea8                OsCfg_IsrRefs
 .OS_CONST      0x3408cec0        0x4 obj/external/ap-cp-gateway/Appl/GenData/Os_Peripheral_Lcfg.o
                0x3408cec0                OsCfg_PeripheralRefs
 .OS_CONST      0x3408cec4        0x8 obj/external/ap-cp-gateway/Appl/GenData/Os_Resource_Lcfg.o
                0x3408cec4                OsCfg_ResourceRefs
 .OS_CONST      0x3408cecc        0x4 obj/external/ap-cp-gateway/Appl/GenData/Os_ScheduleTable_Lcfg.o
                0x3408cecc                OsCfg_SchTRefs
 .OS_CONST      0x3408ced0        0xc obj/external/ap-cp-gateway/Appl/GenData/Os_ServiceFunction_Lcfg.o
                0x3408ced0                OsCfg_FastTrustedFunctionRefs
                0x3408ced4                OsCfg_NonTrustedFunctionRefs
                0x3408ced8                OsCfg_TrustedFunctionRefs
 .OS_CONST      0x3408cedc        0x4 obj/external/ap-cp-gateway/Appl/GenData/Os_Spinlock_Lcfg.o
                0x3408cedc                OsCfg_SpinlockRefs
 .OS_CONST      0x3408cee0       0x18 obj/external/ap-cp-gateway/Appl/GenData/Os_Task_Lcfg.o
                0x3408cee0                OsCfg_TaskRefs
 .OS_CONST      0x3408cef8       0x1c obj/external/ap-cp-gateway/Appl/GenData/Os_XSignal_Lcfg.o
                0x3408cef8                OsCfg_XSig_ServiceMap
 *(*.OS_CORE0_CONST)
 *fill*         0x3408cf14        0x4 
 .OS_CORE0_CONST
                0x3408cf18       0x90 obj/external/ap-cp-gateway/Appl/GenData/Os_Alarm_Lcfg.o
                0x3408cf18                OsCfg_Alarm_Rte_Al_TE2_Default_BSW_Async_Task_0_5ms
                0x3408cf48                OsCfg_Alarm_Rte_Al_TE2_Default_BSW_Async_Task_0_20ms
                0x3408cf78                OsCfg_Alarm_Rte_Al_TE2_Default_BSW_Async_Task_0_10ms
 .OS_CORE0_CONST
                0x3408cfa8       0xbc obj/external/ap-cp-gateway/Appl/GenData/Os_Application_Lcfg.o
                0x3408cfa8                OsCfg_App_SystemApplication_OsCore0
 .OS_CORE0_CONST
                0x3408d064       0x10 obj/external/ap-cp-gateway/Appl/GenData/Os_Barrier_Lcfg.o
                0x3408d064                OsCfg_Barrier_OsCore0
 .OS_CORE0_CONST
                0x3408d074       0xf8 obj/external/ap-cp-gateway/Appl/GenData/Os_Core_Lcfg.o
                0x3408d074                OsCfg_Core_OsCore0
 .OS_CORE0_CONST
                0x3408d16c       0x38 obj/external/ap-cp-gateway/Appl/GenData/Os_Counter_Lcfg.o
                0x3408d16c                OsCfg_Counter_System_Timer
 .OS_CORE0_CONST
                0x3408d1a4      0x15c obj/external/ap-cp-gateway/Appl/GenData/Os_Hal_Context_Lcfg.o
                0x3408d1a4                OsCfg_Hal_Stack_OsCore0_Kernel
                0x3408d1b0                OsCfg_Hal_Context_ipc_shm_softirq
                0x3408d1cc                OsCfg_Hal_Context_IdleTask_OsCore0
                0x3408d1e8                OsCfg_Hal_Context_Default_Init_Task_Trusted
                0x3408d204                OsCfg_Hal_Context_Default_Init_Task
                0x3408d220                OsCfg_Hal_Context_Default_BSW_Async_Task
                0x3408d23c                OsCfg_Hal_Context_shm_rx_handler
                0x3408d258                OsCfg_Hal_Context_CounterIsr_System_Timer
                0x3408d274                OsCfg_Hal_Context_Can_30_Flexcan4Isr_0_MB08To127
                0x3408d290                OsCfg_Hal_Context_Can_30_Flexcan4Isr_0_MB00To07
                0x3408d2ac                OsCfg_Hal_Context_Can_30_Flexcan4Isr_0_BusOff
                0x3408d2c8                OsCfg_Hal_Context_ErrorHook_OsCore0
                0x3408d2e4                OsCfg_Hal_Context_Os_CoreInitHook_OsCore0
 .OS_CORE0_CONST
                0x3408d300       0x30 obj/external/ap-cp-gateway/Appl/GenData/Os_Hal_Core_Lcfg.o
                0x3408d300                OsCfg_Hal_CoreAsr_OsCore0
                0x3408d314                OsCfg_Hal_Core_OsCore0
                0x3408d31c                OsCfg_Hal_Core_OsCore0_InterruptSourceRefs
 .OS_CORE0_CONST
                0x3408d330       0x3c obj/external/ap-cp-gateway/Appl/GenData/Os_Hal_Interrupt_Lcfg.o
                0x3408d330                OsCfg_Hal_IntIsrMap_shm_rx_handler
                0x3408d334                OsCfg_Hal_IntIsr_shm_rx_handler
                0x3408d33c                OsCfg_Hal_IntIsrMap_CounterIsr_System_Timer
                0x3408d340                OsCfg_Hal_IntIsr_CounterIsr_System_Timer
                0x3408d348                OsCfg_Hal_IntIsrMap_Can_30_Flexcan4Isr_0_MB08To127
                0x3408d34c                OsCfg_Hal_IntIsr_Can_30_Flexcan4Isr_0_MB08To127
                0x3408d354                OsCfg_Hal_IntIsrMap_Can_30_Flexcan4Isr_0_MB00To07
                0x3408d358                OsCfg_Hal_IntIsr_Can_30_Flexcan4Isr_0_MB00To07
                0x3408d360                OsCfg_Hal_IntIsrMap_Can_30_Flexcan4Isr_0_BusOff
                0x3408d364                OsCfg_Hal_IntIsr_Can_30_Flexcan4Isr_0_BusOff
 .OS_CORE0_CONST
                0x3408d36c        0x4 obj/external/ap-cp-gateway/Appl/GenData/Os_Hal_Timer_Lcfg.o
                0x3408d36c                OsCfg_Hal_TimerPit_System_Timer
 .OS_CORE0_CONST
                0x3408d370       0xa0 obj/external/ap-cp-gateway/Appl/GenData/Os_Hook_Lcfg.o
                0x3408d370                OsCfg_Hook_ErrorHook_OsCore0
                0x3408d3c0                OsCfg_Hook_Os_CoreInitHook_OsCore0
 .OS_CORE0_CONST
                0x3408d410      0x194 obj/external/ap-cp-gateway/Appl/GenData/Os_Isr_Lcfg.o
                0x3408d410                OsCfg_Isr_shm_rx_handler
                0x3408d454                OsCfg_Isr_shm_rx_handler_HwConfig
                0x3408d460                OsCfg_Isr_CounterIsr_System_Timer
                0x3408d4a8                OsCfg_Isr_CounterIsr_System_Timer_HwConfig
                0x3408d4b4                OsCfg_Isr_Can_30_Flexcan4Isr_0_MB08To127
                0x3408d4f8                OsCfg_Isr_Can_30_Flexcan4Isr_0_MB08To127_HwConfig
                0x3408d504                OsCfg_Isr_Can_30_Flexcan4Isr_0_MB00To07
                0x3408d548                OsCfg_Isr_Can_30_Flexcan4Isr_0_MB00To07_HwConfig
                0x3408d554                OsCfg_Isr_Can_30_Flexcan4Isr_0_BusOff
                0x3408d598                OsCfg_Isr_Can_30_Flexcan4Isr_0_BusOff_HwConfig
 .OS_CORE0_CONST
                0x3408d5a4       0x14 obj/external/ap-cp-gateway/Appl/GenData/Os_Resource_Lcfg.o
                0x3408d5a4                OsCfg_Resource_OsResource_EcuM
 .OS_CORE0_CONST
                0x3408d5b8       0x54 obj/external/ap-cp-gateway/Appl/GenData/Os_Scheduler_Lcfg.o
                0x3408d5b8                OsCfg_Scheduler_OsCore0
 .OS_CORE0_CONST
                0x3408d60c       0x48 obj/external/ap-cp-gateway/Appl/GenData/Os_Stack_Lcfg.o
                0x3408d60c                OsCfg_Stack_ipc_shm_softirq
                0x3408d614                OsCfg_Stack_OsCore0_Task_Prio50
                0x3408d61c                OsCfg_Stack_OsCore0_Task_Prio49
                0x3408d624                OsCfg_Stack_OsCore0_Task_Prio4294967295
                0x3408d62c                OsCfg_Stack_OsCore0_Kernel
                0x3408d634                OsCfg_Stack_OsCore0_Isr_Core
                0x3408d63c                OsCfg_Stack_OsCore0_Init
                0x3408d644                OsCfg_Stack_OsCore0_Error
                0x3408d64c                OsCfg_Stack_Default_BSW_Async_Task
 .OS_CORE0_CONST
                0x3408d654      0x190 obj/external/ap-cp-gateway/Appl/GenData/Os_Task_Lcfg.o
                0x3408d654                OsCfg_Task_ipc_shm_softirq
                0x3408d6a4                OsCfg_Task_IdleTask_OsCore0
                0x3408d6f4                OsCfg_Task_Default_Init_Task_Trusted
                0x3408d744                OsCfg_Task_Default_Init_Task
                0x3408d794                OsCfg_Task_Default_BSW_Async_Task
 *(*.OS_SystemApplication_OsCore0_CONST)
                0x3408d7e3                _OS_CONST_END = ABSOLUTE ((. - 0x1))
                0x3408d7e4                _OS_CONST_LIMIT = ABSOLUTE (.)
                0x3408ce00                _OS_CONST_ALL_START = _OS_CONST_START
                0x3408d7e3                _OS_CONST_ALL_END = _OS_CONST_END
                0x3408d7e4                _OS_CONST_ALL_LIMIT = _OS_CONST_LIMIT

.OS_DATA_CORE0_VAR_INIT
                0x3408d7e4        0x0
                0x3408d7e4                _OS_DATA_CORE0_VAR_INIT_START = ABSOLUTE (.)
 *(*.OS_CORE0_VAR)
 *(*.OS_CORE0_VAR_NOCACHE)
 *(*.OS_SystemApplication_OsCore0_VAR)
 *(*.OS_SystemApplication_OsCore0_VAR_NOCACHE)
 *(*.OS_SystemApplication_OsCore0_VAR_SAVED_ZONE)
                0x3408d7e4                . = ALIGN (0x4)
                0x3408d7e3                _OS_DATA_CORE0_VAR_INIT_END = ABSOLUTE ((. - 0x1))
                0x3408d7e4                _OS_DATA_CORE0_VAR_INIT_LIMIT = ABSOLUTE (.)
                0x3408d7e4                _OS_DATA_CORE0_VAR_INIT_ROM_START = LOADADDR (.OS_DATA_CORE0_VAR_INIT)
                0x3408d7e4                _OS_DATA_CORE0_VAR_INIT_ROM_LIMIT = (LOADADDR (.OS_DATA_CORE0_VAR_INIT) + SIZEOF (.OS_DATA_CORE0_VAR_INIT))

.OS_DATA_CORE0_VAR_NOINIT
                0x3408d7e8      0x890
                0x3408d7e8                _OS_DATA_CORE0_VAR_NOINIT_START = ABSOLUTE (.)
 *(*.OS_CORE0_VAR_NOCACHE_NOINIT)
 *(*.OS_CORE0_VAR_NOINIT)
 .OS_CORE0_VAR_NOINIT
                0x3408d7e8       0x24 obj/external/ap-cp-gateway/Appl/GenData/Os_Alarm_Lcfg.o
 .OS_CORE0_VAR_NOINIT
                0x3408d80c        0x1 obj/external/ap-cp-gateway/Appl/GenData/Os_Application_Lcfg.o
 *fill*         0x3408d80d        0x3 
 .OS_CORE0_VAR_NOINIT
                0x3408d810       0x98 obj/external/ap-cp-gateway/Appl/GenData/Os_Core_Lcfg.o
                0x3408d818                OsCfg_Core_OsCore0_Dyn
 .OS_CORE0_VAR_NOINIT
                0x3408d8a8       0x1a obj/external/ap-cp-gateway/Appl/GenData/Os_Counter_Lcfg.o
 *fill*         0x3408d8c2        0x2 
 .OS_CORE0_VAR_NOINIT
                0x3408d8c4      0x4d8 obj/external/ap-cp-gateway/Appl/GenData/Os_Hal_Context_Lcfg.o
                0x3408d8c4                OsCfg_Hal_Context_IdleTask_OsCore0_Dyn
                0x3408d920                OsCfg_Hal_Context_OsCore0_Isr_Level4_Dyn
                0x3408d97c                OsCfg_Hal_Context_OsCore0_ExceptionContext
                0x3408da60                OsCfg_Hal_Context_Default_Init_Task_Dyn
                0x3408dabc                OsCfg_Hal_Context_ErrorHook_OsCore0_Dyn
                0x3408db18                OsCfg_Hal_Context_OsCore0_Isr_Level2_Dyn
                0x3408db74                OsCfg_Hal_Context_Default_BSW_Async_Task_Dyn
                0x3408dbd0                OsCfg_Hal_Context_OsCore0_Isr_Level1_Dyn
                0x3408dc2c                OsCfg_Hal_Context_Default_Init_Task_Trusted_Dyn
                0x3408dc88                OsCfg_Hal_Context_OsCore0_Isr_Level3_Dyn
                0x3408dce4                OsCfg_Hal_Context_ipc_shm_softirq_Dyn
                0x3408dd40                OsCfg_Hal_Context_Os_CoreInitHook_OsCore0_Dyn
 .OS_CORE0_VAR_NOINIT
                0x3408dd9c       0x80 obj/external/ap-cp-gateway/Appl/GenData/Os_Hook_Lcfg.o
 .OS_CORE0_VAR_NOINIT
                0x3408de1c       0xa0 obj/external/ap-cp-gateway/Appl/GenData/Os_Isr_Lcfg.o
 .OS_CORE0_VAR_NOINIT
                0x3408debc        0x8 obj/external/ap-cp-gateway/Appl/GenData/Os_Resource_Lcfg.o
 .OS_CORE0_VAR_NOINIT
                0x3408dec4       0x70 obj/external/ap-cp-gateway/Appl/GenData/Os_Scheduler_Lcfg.o
 *fill*         0x3408df34        0x4 
 .OS_CORE0_VAR_NOINIT
                0x3408df38      0x140 obj/external/ap-cp-gateway/Appl/GenData/Os_Task_Lcfg.o
 *(*.OS_SystemApplication_OsCore0_VAR_NOCACHE_NOINIT)
 *(*.OS_SystemApplication_OsCore0_VAR_NOINIT)
 *(*.OS_SystemApplication_OsCore0_VAR_SAVED_ZONE_NOINIT)
                0x3408e077                _OS_DATA_CORE0_VAR_NOINIT_END = ABSOLUTE ((. - 0x1))
                0x3408e078                _OS_DATA_CORE0_VAR_NOINIT_LIMIT = ABSOLUTE (.)

.OS_DATA_CORE0_VAR_ZERO_INIT
                0x3408e078        0x0
                0x3408e078                _OS_DATA_CORE0_VAR_ZERO_INIT_START = ABSOLUTE (.)
 *(*.OS_SystemApplication_OsCore0_VAR_NOCACHE_ZERO_INIT)
 *(*.OS_SystemApplication_OsCore0_VAR_ZERO_INIT)
                0x3408e078                . = ALIGN (0x4)
                0x3408e077                _OS_DATA_CORE0_VAR_ZERO_INIT_END = ABSOLUTE ((. - 0x1))
                0x3408e078                _OS_DATA_CORE0_VAR_ZERO_INIT_LIMIT = ABSOLUTE (.)
                0x3408d7e4                _OS_DATA_CORE0_VAR_ALL_START = _OS_DATA_CORE0_VAR_INIT_START
                0x3408e077                _OS_DATA_CORE0_VAR_ALL_END = _OS_DATA_CORE0_VAR_ZERO_INIT_END
                0x3408e078                _OS_DATA_CORE0_VAR_ALL_LIMIT = _OS_DATA_CORE0_VAR_ZERO_INIT_LIMIT

.OS_DATA_SHARED_VAR_INIT
                0x3408e078        0x0
                0x3408e078                _OS_DATA_SHARED_VAR_INIT_START = ABSOLUTE (.)
 *(*.OS_VAR_NOCACHE)
                0x3408e078                . = ALIGN (0x4)
                0x3408e077                _OS_DATA_SHARED_VAR_INIT_END = ABSOLUTE ((. - 0x1))
                0x3408e078                _OS_DATA_SHARED_VAR_INIT_LIMIT = ABSOLUTE (.)
                0x3408e078                _OS_DATA_SHARED_VAR_INIT_ROM_START = LOADADDR (.OS_DATA_SHARED_VAR_INIT)
                0x3408e078                _OS_DATA_SHARED_VAR_INIT_ROM_LIMIT = (LOADADDR (.OS_DATA_SHARED_VAR_INIT) + SIZEOF (.OS_DATA_SHARED_VAR_INIT))

.OS_DATA_SHARED_VAR_NOINIT
                0x3408e078       0x18
                0x3408e078                _OS_DATA_SHARED_VAR_NOINIT_START = ABSOLUTE (.)
 *(*.OS_BARRIER_CORE0_VAR_NOCACHE_NOINIT)
 .OS_BARRIER_CORE0_VAR_NOCACHE_NOINIT
                0x3408e078        0x2 obj/external/ap-cp-gateway/Appl/GenData/Os_Barrier_Lcfg.o
 *(*.OS_CORESTATUS_CORE0_VAR_NOCACHE_NOINIT)
 *fill*         0x3408e07a        0x2 
 .OS_CORESTATUS_CORE0_VAR_NOCACHE_NOINIT
                0x3408e07c        0x8 obj/external/ap-cp-gateway/Appl/GenData/Os_Core_Lcfg.o
 *(*.OS_PUBLIC_CORE0_VAR_NOINIT)
 *(*.OS_VAR_NOCACHE_NOINIT)
 .OS_VAR_NOCACHE_NOINIT
                0x3408e084        0xc obj/external/ap-cp-gateway/Appl/GenData/Os_Core_Lcfg.o
                0x3408e08f                _OS_DATA_SHARED_VAR_NOINIT_END = ABSOLUTE ((. - 0x1))
                0x3408e090                _OS_DATA_SHARED_VAR_NOINIT_LIMIT = ABSOLUTE (.)
                0x3408e078                _OS_DATA_SHARED_VAR_ALL_START = _OS_DATA_SHARED_VAR_INIT_START
                0x3408e08f                _OS_DATA_SHARED_VAR_ALL_END = _OS_DATA_SHARED_VAR_NOINIT_END
                0x3408e090                _OS_DATA_SHARED_VAR_ALL_LIMIT = _OS_DATA_SHARED_VAR_NOINIT_LIMIT

.OS_EXCVEC_CORE0_CODE
                0x3408e090        0x0
                0x3408e090                _OS_EXCVEC_CORE0_CODE_START = ABSOLUTE (.)
 *(*.OS_EXCVEC_CORE0_CODE)
                0x3408e08f                _OS_EXCVEC_CORE0_CODE_END = ABSOLUTE ((. - 0x1))
                0x3408e090                _OS_EXCVEC_CORE0_CODE_LIMIT = ABSOLUTE (.)
                0x3408e090                _OS_EXCVEC_CORE0_CODE_ALL_START = _OS_EXCVEC_CORE0_CODE_START
                0x3408e08f                _OS_EXCVEC_CORE0_CODE_ALL_END = _OS_EXCVEC_CORE0_CODE_END
                0x3408e090                _OS_EXCVEC_CORE0_CODE_ALL_LIMIT = _OS_EXCVEC_CORE0_CODE_LIMIT

.OS_EXCVEC_CORE0_CONST
                0x3408e090        0x0
                0x3408e090                _OS_EXCVEC_CORE0_CONST_START = ABSOLUTE (.)
 *(*.OS_EXCVEC_CORE0_CONST)
                0x3408e08f                _OS_EXCVEC_CORE0_CONST_END = ABSOLUTE ((. - 0x1))
                0x3408e090                _OS_EXCVEC_CORE0_CONST_LIMIT = ABSOLUTE (.)
                0x3408e090                _OS_EXCVEC_CORE0_CONST_ALL_START = _OS_EXCVEC_CORE0_CONST_START
                0x3408e08f                _OS_EXCVEC_CORE0_CONST_ALL_END = _OS_EXCVEC_CORE0_CONST_END
                0x3408e090                _OS_EXCVEC_CORE0_CONST_ALL_LIMIT = _OS_EXCVEC_CORE0_CONST_LIMIT

.OS_GLOBALSHARED_CONST
                0x3408e090        0x0
                0x3408e090                _OS_GLOBALSHARED_CONST_START = ABSOLUTE (.)
 *(*.OS_GLOBALSHARED_CONST)
                0x3408e08f                _OS_GLOBALSHARED_CONST_END = ABSOLUTE ((. - 0x1))
                0x3408e090                _OS_GLOBALSHARED_CONST_LIMIT = ABSOLUTE (.)
                0x3408e090                _OS_GLOBALSHARED_CONST_ALL_START = _OS_GLOBALSHARED_CONST_START
                0x3408e08f                _OS_GLOBALSHARED_CONST_ALL_END = _OS_GLOBALSHARED_CONST_END
                0x3408e090                _OS_GLOBALSHARED_CONST_ALL_LIMIT = _OS_GLOBALSHARED_CONST_LIMIT

.OS_GLOBALSHARED_VAR_INIT
                0x3408e090        0x0
                0x3408e090                _OS_GLOBALSHARED_VAR_INIT_START = ABSOLUTE (.)
 *(*.OS_GLOBALSHARED_VAR)
 *(*.OS_GLOBALSHARED_VAR_NOCACHE)
                0x3408e090                . = ALIGN (0x4)
                0x3408e08f                _OS_GLOBALSHARED_VAR_INIT_END = ABSOLUTE ((. - 0x1))
                0x3408e090                _OS_GLOBALSHARED_VAR_INIT_LIMIT = ABSOLUTE (.)
                0x3408e090                _OS_GLOBALSHARED_VAR_INIT_ROM_START = LOADADDR (.OS_GLOBALSHARED_VAR_INIT)
                0x3408e090                _OS_GLOBALSHARED_VAR_INIT_ROM_LIMIT = (LOADADDR (.OS_GLOBALSHARED_VAR_INIT) + SIZEOF (.OS_GLOBALSHARED_VAR_INIT))

.OS_GLOBALSHARED_VAR_NOINIT
                0x3408e090        0x0
                0x3408e090                _OS_GLOBALSHARED_VAR_NOINIT_START = ABSOLUTE (.)
 *(*.OS_GLOBALSHARED_VAR_NOCACHE_NOINIT)
 *(*.OS_GLOBALSHARED_VAR_NOINIT)
                0x3408e08f                _OS_GLOBALSHARED_VAR_NOINIT_END = ABSOLUTE ((. - 0x1))
                0x3408e090                _OS_GLOBALSHARED_VAR_NOINIT_LIMIT = ABSOLUTE (.)

.OS_GLOBALSHARED_VAR_ZERO_INIT
                0x3408e090        0x0
                0x3408e090                _OS_GLOBALSHARED_VAR_ZERO_INIT_START = ABSOLUTE (.)
 *(*.OS_GLOBALSHARED_VAR_NOCACHE_ZERO_INIT)
 *(*.OS_GLOBALSHARED_VAR_ZERO_INIT)
                0x3408e090                . = ALIGN (0x4)
                0x3408e08f                _OS_GLOBALSHARED_VAR_ZERO_INIT_END = ABSOLUTE ((. - 0x1))
                0x3408e090                _OS_GLOBALSHARED_VAR_ZERO_INIT_LIMIT = ABSOLUTE (.)
                0x3408e090                _OS_GLOBALSHARED_VAR_ALL_START = _OS_GLOBALSHARED_VAR_INIT_START
                0x3408e08f                _OS_GLOBALSHARED_VAR_ALL_END = _OS_GLOBALSHARED_VAR_ZERO_INIT_END
                0x3408e090                _OS_GLOBALSHARED_VAR_ALL_LIMIT = _OS_GLOBALSHARED_VAR_ZERO_INIT_LIMIT

.OS_GLOBALSHARED_VAR_SAVED_ZONE_INIT
                0x3408e090        0x0
                0x3408e090                _OS_GLOBALSHARED_VAR_SAVED_ZONE_INIT_START = ABSOLUTE (.)
 *(*.OS_GLOBALSHARED_VAR_SAVED_ZONE)
                0x3408e090                . = ALIGN (0x4)
                0x3408e08f                _OS_GLOBALSHARED_VAR_SAVED_ZONE_INIT_END = ABSOLUTE ((. - 0x1))
                0x3408e090                _OS_GLOBALSHARED_VAR_SAVED_ZONE_INIT_LIMIT = ABSOLUTE (.)
                0x3408e090                _OS_GLOBALSHARED_VAR_SAVED_ZONE_INIT_ROM_START = LOADADDR (.OS_GLOBALSHARED_VAR_SAVED_ZONE_INIT)
                0x3408e090                _OS_GLOBALSHARED_VAR_SAVED_ZONE_INIT_ROM_LIMIT = (LOADADDR (.OS_GLOBALSHARED_VAR_SAVED_ZONE_INIT) + SIZEOF (.OS_GLOBALSHARED_VAR_SAVED_ZONE_INIT))

.OS_GLOBALSHARED_VAR_SAVED_ZONE_NOINIT
                0x3408e090        0x0
                0x3408e090                _OS_GLOBALSHARED_VAR_SAVED_ZONE_NOINIT_START = ABSOLUTE (.)
 *(*.OS_GLOBALSHARED_VAR_SAVED_ZONE_NOINIT)
                0x3408e08f                _OS_GLOBALSHARED_VAR_SAVED_ZONE_NOINIT_END = ABSOLUTE ((. - 0x1))
                0x3408e090                _OS_GLOBALSHARED_VAR_SAVED_ZONE_NOINIT_LIMIT = ABSOLUTE (.)
                0x3408e090                _OS_GLOBALSHARED_VAR_SAVED_ZONE_ALL_START = _OS_GLOBALSHARED_VAR_SAVED_ZONE_INIT_START
                0x3408e08f                _OS_GLOBALSHARED_VAR_SAVED_ZONE_ALL_END = _OS_GLOBALSHARED_VAR_SAVED_ZONE_NOINIT_END
                0x3408e090                _OS_GLOBALSHARED_VAR_SAVED_ZONE_ALL_LIMIT = _OS_GLOBALSHARED_VAR_SAVED_ZONE_NOINIT_LIMIT

.OS_INTVEC_CODE
                0x3408e400        0x0
                0x3408e400                _OS_INTVEC_CODE_START = ABSOLUTE (.)
                0x3408e400                . = ALIGN (0x400)
 *(*.OS_INTVEC_CODE)
                0x3408e3ff                _OS_INTVEC_CODE_END = ABSOLUTE ((. - 0x1))
                0x3408e400                _OS_INTVEC_CODE_LIMIT = ABSOLUTE (.)
                0x3408e400                _OS_INTVEC_CODE_ALL_START = _OS_INTVEC_CODE_START
                0x3408e3ff                _OS_INTVEC_CODE_ALL_END = _OS_INTVEC_CODE_END
                0x3408e400                _OS_INTVEC_CODE_ALL_LIMIT = _OS_INTVEC_CODE_LIMIT

.OS_INTVEC_CONST
                0x3408e400        0x0
                0x3408e400                _OS_INTVEC_CONST_START = ABSOLUTE (.)
 *(*.OS_INTVEC_CONST)
                0x3408e3ff                _OS_INTVEC_CONST_END = ABSOLUTE ((. - 0x1))
                0x3408e400                _OS_INTVEC_CONST_LIMIT = ABSOLUTE (.)
                0x3408e400                _OS_INTVEC_CONST_ALL_START = _OS_INTVEC_CONST_START
                0x3408e3ff                _OS_INTVEC_CONST_ALL_END = _OS_INTVEC_CONST_END
                0x3408e400                _OS_INTVEC_CONST_ALL_LIMIT = _OS_INTVEC_CONST_LIMIT

.OS_INTVEC_CORE0_CODE
                0x3408e400      0x17c
                0x3408e400                _OS_INTVEC_CORE0_CODE_START = ABSOLUTE (.)
                0x3408e400                . = ALIGN (0x400)
 *(*.OS_INTVEC_CORE0_CODE)
 .OS_INTVEC_CORE0_CODE
                0x3408e400      0x17c obj/external/ap-cp-gateway/Appl/GenData/Os_Hal_EntryAsm_Lcfg.o
                0x3408e400                Os_Isr_Core0_Exception_15
                0x3408e44c                Os_Isr_Core0_Interrupt_19
                0x3408e498                Os_Isr_Core0_Interrupt_53
                0x3408e4e4                Os_Isr_Core0_Interrupt_55
                0x3408e530                Os_Isr_Core0_Interrupt_56
                0x3408e57b                _OS_INTVEC_CORE0_CODE_END = ABSOLUTE ((. - 0x1))
                0x3408e57c                _OS_INTVEC_CORE0_CODE_LIMIT = ABSOLUTE (.)
                0x3408e400                _OS_INTVEC_CORE0_CODE_ALL_START = _OS_INTVEC_CORE0_CODE_START
                0x3408e57b                _OS_INTVEC_CORE0_CODE_ALL_END = _OS_INTVEC_CORE0_CODE_END
                0x3408e57c                _OS_INTVEC_CORE0_CODE_ALL_LIMIT = _OS_INTVEC_CORE0_CODE_LIMIT

.OS_INTVEC_CORE0_CONST
                0x3408e800      0x400
                0x3408e800                _OS_INTVEC_CORE0_CONST_START = ABSOLUTE (.)
                0x3408e800                . = ALIGN (0x400)
 *(*.OS_INTVEC_CORE0_CONST)
 .OS_INTVEC_CORE0_CONST
                0x3408e800      0x400 obj/external/ap-cp-gateway/Appl/GenData/Os_Hal_Entry_Lcfg.o
                0x3408e800                OsCfg_Hal_Core_OsCore0_VectorTable
                0x3408ebff                _OS_INTVEC_CORE0_CONST_END = ABSOLUTE ((. - 0x1))
                0x3408ec00                _OS_INTVEC_CORE0_CONST_LIMIT = ABSOLUTE (.)
                0x3408e800                _OS_INTVEC_CORE0_CONST_ALL_START = _OS_INTVEC_CORE0_CONST_START
                0x3408ebff                _OS_INTVEC_CORE0_CONST_ALL_END = _OS_INTVEC_CORE0_CONST_END
                0x3408ec00                _OS_INTVEC_CORE0_CONST_ALL_LIMIT = _OS_INTVEC_CORE0_CONST_LIMIT

.OS_OsApplication_Trusted_Core0_VAR_INIT
                0x3408ec00        0x0
                0x3408ec00                _OS_OsApplication_Trusted_Core0_VAR_INIT_START = ABSOLUTE (.)
                0x3408ec00                . = ALIGN (0x4)
                0x3408ebff                _OS_OsApplication_Trusted_Core0_VAR_INIT_END = ABSOLUTE ((. - 0x1))
                0x3408ec00                _OS_OsApplication_Trusted_Core0_VAR_INIT_LIMIT = ABSOLUTE (.)
                0x3408ec00                _OS_OsApplication_Trusted_Core0_VAR_INIT_ROM_START = LOADADDR (.OS_OsApplication_Trusted_Core0_VAR_INIT)
                0x3408ec00                _OS_OsApplication_Trusted_Core0_VAR_INIT_ROM_LIMIT = (LOADADDR (.OS_OsApplication_Trusted_Core0_VAR_INIT) + SIZEOF (.OS_OsApplication_Trusted_Core0_VAR_INIT))

.OS_OsApplication_Trusted_Core0_VAR_NOINIT
                0x3408ec00        0x0
                0x3408ec00                _OS_OsApplication_Trusted_Core0_VAR_NOINIT_START = ABSOLUTE (.)
                0x3408ebff                _OS_OsApplication_Trusted_Core0_VAR_NOINIT_END = ABSOLUTE ((. - 0x1))
                0x3408ec00                _OS_OsApplication_Trusted_Core0_VAR_NOINIT_LIMIT = ABSOLUTE (.)

.OS_OsApplication_Trusted_Core0_VAR_ZERO_INIT
                0x3408ec00        0x0
                0x3408ec00                _OS_OsApplication_Trusted_Core0_VAR_ZERO_INIT_START = ABSOLUTE (.)
                0x3408ec00                . = ALIGN (0x4)
                0x3408ebff                _OS_OsApplication_Trusted_Core0_VAR_ZERO_INIT_END = ABSOLUTE ((. - 0x1))
                0x3408ec00                _OS_OsApplication_Trusted_Core0_VAR_ZERO_INIT_LIMIT = ABSOLUTE (.)
                0x3408ec00                _OS_OsApplication_Trusted_Core0_VAR_ALL_START = _OS_OsApplication_Trusted_Core0_VAR_INIT_START
                0x3408ebff                _OS_OsApplication_Trusted_Core0_VAR_ALL_END = _OS_OsApplication_Trusted_Core0_VAR_ZERO_INIT_END
                0x3408ec00                _OS_OsApplication_Trusted_Core0_VAR_ALL_LIMIT = _OS_OsApplication_Trusted_Core0_VAR_ZERO_INIT_LIMIT

.OS_OsApplication_Trusted_Core0_VAR_SAVED_ZONE_INIT
                0x3408ec00        0x0
                0x3408ec00                _OS_OsApplication_Trusted_Core0_VAR_SAVED_ZONE_INIT_START = ABSOLUTE (.)
                0x3408ec00                . = ALIGN (0x4)
                0x3408ebff                _OS_OsApplication_Trusted_Core0_VAR_SAVED_ZONE_INIT_END = ABSOLUTE ((. - 0x1))
                0x3408ec00                _OS_OsApplication_Trusted_Core0_VAR_SAVED_ZONE_INIT_LIMIT = ABSOLUTE (.)
                0x3408ec00                _OS_OsApplication_Trusted_Core0_VAR_SAVED_ZONE_INIT_ROM_START = LOADADDR (.OS_OsApplication_Trusted_Core0_VAR_SAVED_ZONE_INIT)
                0x3408ec00                _OS_OsApplication_Trusted_Core0_VAR_SAVED_ZONE_INIT_ROM_LIMIT = (LOADADDR (.OS_OsApplication_Trusted_Core0_VAR_SAVED_ZONE_INIT) + SIZEOF (.OS_OsApplication_Trusted_Core0_VAR_SAVED_ZONE_INIT))

.OS_OsApplication_Trusted_Core0_VAR_SAVED_ZONE_NOINIT
                0x3408ec00        0x0
                0x3408ec00                _OS_OsApplication_Trusted_Core0_VAR_SAVED_ZONE_NOINIT_START = ABSOLUTE (.)
                0x3408ebff                _OS_OsApplication_Trusted_Core0_VAR_SAVED_ZONE_NOINIT_END = ABSOLUTE ((. - 0x1))
                0x3408ec00                _OS_OsApplication_Trusted_Core0_VAR_SAVED_ZONE_NOINIT_LIMIT = ABSOLUTE (.)
                0x3408ec00                _OS_OsApplication_Trusted_Core0_VAR_SAVED_ZONE_ALL_START = _OS_OsApplication_Trusted_Core0_VAR_SAVED_ZONE_INIT_START
                0x3408ebff                _OS_OsApplication_Trusted_Core0_VAR_SAVED_ZONE_ALL_END = _OS_OsApplication_Trusted_Core0_VAR_SAVED_ZONE_NOINIT_END
                0x3408ec00                _OS_OsApplication_Trusted_Core0_VAR_SAVED_ZONE_ALL_LIMIT = _OS_OsApplication_Trusted_Core0_VAR_SAVED_ZONE_NOINIT_LIMIT

.OS_USER_CODE   0x3408ec00      0x2d8
                0x3408ec00                _OS_USER_CODE_START = ABSOLUTE (.)
 *(*.OS_Can_30_Flexcan4BusOffIsr_0_CODE)
 .OS_Can_30_Flexcan4BusOffIsr_0_CODE
                0x3408ec00        0x8 obj/external/Components/Can_30_Flexcan4/Implementation/Can_30_Flexcan4_Irq.o
                0x3408ec00                Os_Isr_Can_30_Flexcan4BusOffIsr_0
 *(*.OS_Can_30_Flexcan4MailboxIsr_0_CODE)
 .OS_Can_30_Flexcan4MailboxIsr_0_CODE
                0x3408ec08        0x8 obj/external/Components/Can_30_Flexcan4/Implementation/Can_30_Flexcan4_Irq.o
                0x3408ec08                Os_Isr_Can_30_Flexcan4MailboxIsr_0
 *(*.OS_Default_BSW_Async_Task_CODE)
 .OS_Default_BSW_Async_Task_CODE
                0x3408ec10      0x12a obj/external/ap-cp-gateway/Appl/GenData/Rte.o
                0x3408ec10                Os_Task_Default_BSW_Async_Task
 *(*.OS_Default_Init_Task_CODE)
 .OS_Default_Init_Task_CODE
                0x3408ed3a        0xc obj/external/ap-cp-gateway/Appl/Source/BrsMain.o
                0x3408ed3a                Os_Task_Default_Init_Task
 *(*.OS_Default_Init_Task_Trusted_CODE)
 .OS_Default_Init_Task_Trusted_CODE
                0x3408ed46        0xe obj/external/ap-cp-gateway/Appl/Source/BrsMain.o
                0x3408ed46                Os_Task_Default_Init_Task_Trusted
 *(*.OS_ERRORHOOK_CODE)
 .OS_ERRORHOOK_CODE
                0x3408ed54       0x1e obj/external/ap-cp-gateway/Appl/Source/Os_Callout_Stubs.o
                0x3408ed54                ErrorHook
 *(*.OS_ipc_shm_hardirq_CODE)
 *fill*         0x3408ed72        0x2 
 .OS_ipc_shm_hardirq_CODE
                0x3408ed74       0x60 obj/external/ap-cp-gateway/Appl/Source/ipc-shm/os/autosar/ipc-os-autosar.o
                0x3408ed74                Os_Isr_ipc_shm_hardirq
 *(*.OS_ipc_shm_softirq_CODE)
 .OS_ipc_shm_softirq_CODE
                0x3408edd4      0x104 obj/external/ap-cp-gateway/Appl/Source/ipc-shm/os/autosar/ipc-os-autosar.o
                0x3408edd4                Os_Task_ipc_shm_softirq
                0x3408eed7                _OS_USER_CODE_END = ABSOLUTE ((. - 0x1))
                0x3408eed8                _OS_USER_CODE_LIMIT = ABSOLUTE (.)
                0x3408ec00                _OS_USER_CODE_ALL_START = _OS_USER_CODE_START
                0x3408eed7                _OS_USER_CODE_ALL_END = _OS_USER_CODE_END
                0x3408eed8                _OS_USER_CODE_ALL_LIMIT = _OS_USER_CODE_LIMIT

.OS_USER_CONST  0x3408eed8        0x0
                0x3408eed8                _OS_USER_CONST_START = ABSOLUTE (.)
                0x3408eed7                _OS_USER_CONST_END = ABSOLUTE ((. - 0x1))
                0x3408eed8                _OS_USER_CONST_LIMIT = ABSOLUTE (.)
                0x3408eed8                _OS_USER_CONST_ALL_START = _OS_USER_CONST_START
                0x3408eed7                _OS_USER_CONST_ALL_END = _OS_USER_CONST_END
                0x3408eed8                _OS_USER_CONST_ALL_LIMIT = _OS_USER_CONST_LIMIT

.STACK_C0       0x34280000      0x400
                0x34280000                _STACK_C0_START = ABSOLUTE (.)
                0x34280400                . = (. + 0x400)
 *fill*         0x34280000      0x400 
                0x34280400                . = ALIGN (0x4)
                0x342803ff                _STACK_C0_END = ABSOLUTE ((. - 0x1))
                0x34280400                _STACK_C0_LIMIT = ABSOLUTE (.)
                0x34280000                _STACK_C0_ALL_START = _STACK_C0_START
                0x342803ff                _STACK_C0_ALL_END = _STACK_C0_END
                0x34280400                _STACK_C0_ALL_LIMIT = _STACK_C0_LIMIT
                0x34000041                _start = (brsStartupEntry + 0x1)
                0x34280400                __section_stack_c0_end = _STACK_C0_LIMIT

.rodata         0x3408eed8      0x7dc
                0x3408eed8                _rodata_START = ABSOLUTE (.)
 *(*.rodata)
 .rodata        0x3408eed8       0xfc obj/external/ThirdParty/Mcal_S32x/Supply/SW32G_RTD_4.4_3.0.4/eclipse/plugins/Fls_TS_T40D11M30I4R0/src/Qspi_Ip_Sfdp.o
 .rodata        0x3408efd4       0x30 obj/external/ThirdParty/Mcal_S32x/Supply/SW32G_RTD_4.4_3.0.4/eclipse/plugins/Mcu_TS_T40D11M30I4R0/src/Clock_Ip_ProgFreqSwitch.o
 .rodata        0x3408f004       0x90 obj/external/ap-cp-gateway/Appl/GenData/Fee_Lcfg.o
                0x3408f004                Fee_BlockConfig_at
 .rodata        0x3408f094       0x20 obj/external/ap-cp-gateway/Appl/GenData/vBrs_Lcfg.o
                0x3408f094                BrsMain_CoreConfig
                0x3408f0b0                BrsMain_CoreConfig_Size
 .rodata        0x3408f0b4      0x328 obj/external/ap-cp-gateway/Appl/GenData/vLinkGen_Lcfg.o
                0x3408f0b4                vLinkGen_Init_HardReset_GroupsSet
                0x3408f0bc                vLinkGen_Init_Three_GroupsSet
                0x3408f0c4                vLinkGen_Init_Two_GroupsSet
                0x3408f0cc                vLinkGen_Init_One_GroupsSet
                0x3408f0d4                vLinkGen_Init_Zero_GroupsSet
                0x3408f0dc                vLinkGen_ZeroInit_HardReset_GroupsSet
                0x3408f0e4                vLinkGen_ZeroInit_Three_GroupsSet
                0x3408f0ec                vLinkGen_ZeroInit_Two_GroupsSet
                0x3408f0f4                vLinkGen_ZeroInit_One_GroupsSet
                0x3408f0fc                vLinkGen_ZeroInit_Zero_GroupsSet
                0x3408f104                vLinkGen_ZeroInit_Early_GroupsSet
                0x3408f10c                vLinkGen_ZeroInit_HardReset_BlocksSet
                0x3408f114                vLinkGen_ZeroInit_One_BlocksSet
                0x3408f11c                vLinkGen_ZeroInit_Early_BlocksSet
                0x3408f124                vLinkGen_Init_HardReset_Groups
                0x3408f13c                vLinkGen_Init_Three_Groups
                0x3408f154                vLinkGen_Init_Two_Groups
                0x3408f16c                vLinkGen_Init_One_Groups
                0x3408f2a4                vLinkGen_Init_Zero_Groups
                0x3408f2bc                vLinkGen_ZeroInit_HardReset_Groups
                0x3408f2cc                vLinkGen_ZeroInit_Three_Groups
                0x3408f2dc                vLinkGen_ZeroInit_Two_Groups
                0x3408f2ec                vLinkGen_ZeroInit_One_Groups
                0x3408f38c                vLinkGen_ZeroInit_Zero_Groups
                0x3408f39c                vLinkGen_ZeroInit_Early_Groups
                0x3408f3ac                vLinkGen_ZeroInit_HardReset_Blocks
                0x3408f3bc                vLinkGen_ZeroInit_One_Blocks
                0x3408f3cc                vLinkGen_ZeroInit_Early_Blocks
 .rodata        0x3408f3dc        0x3 obj/external/ap-cp-gateway/Appl/Source/BrsHw.o
                0x3408f3dc                kBrsHwBugfixVersion
                0x3408f3dd                kBrsHwSubVersion
                0x3408f3de                kBrsHwMainVersion
 *(.rodata.*)
 *fill*         0x3408f3df        0x1 
 .rodata.str1.4
                0x3408f3e0      0x2d4 obj/external/Components/Dem/Implementation/Dem.o
                                0x2d5 (size before relaxing)
                0x3408f6b3                _rodata_END = ABSOLUTE ((. - 0x1))
                0x3408f6b4                _rodata_LIMIT = ABSOLUTE (.)

.srodata        0x3408f6b4        0x0
                0x3408f6b4                _srodata_START = ABSOLUTE (.)
 *(*.srodata)
 *(.srodata.*)
                0x3408f6b3                _srodata_END = ABSOLUTE ((. - 0x1))
                0x3408f6b4                _srodata_LIMIT = ABSOLUTE (.)

.text           0x3408f6b8    0x319d8
                0x3408f6b8                _text_START = ABSOLUTE (.)
 *(*.text)
 .text          0x3408f6b8        0x0 obj/external/Components/Os/Implementation/Os_Hal_Compiler_TiInt.o
 .text          0x3408f6b8        0x0 obj/external/Components/Os/Implementation/Os_Hal_ContextAsm.o
 .text          0x3408f6b8        0x0 obj/external/ap-cp-gateway/Appl/GenData/Os_Hal_EntryAsm_Lcfg.o
 .text          0x3408f6b8      0x6e8 obj/external/Components/BswM/Implementation/BswM.o
                0x3408f7e0                BswM_ImmediateModeRequest
                0x3408f86c                BswM_InitMemory
                0x3408f878                BswM_PreInit
                0x3408f898                BswM_Init
                0x3408f9ec                BswM_Deinit
                0x3408fa18                BswM_RequestMode
                0x3408fa6c                BswM_ComM_CurrentMode
                0x3408faa0                BswM_Dcm_ApplicationUpdated
                0x3408fabc                BswM_Dcm_CommunicationMode_CurrentState
                0x3408fae4                BswM_CanSM_CurrentState
                0x3408fb24                BswM_EcuM_CurrentState
                0x3408fbc0                BswM_EcuM_CurrentWakeup
                0x3408fbe4                BswM_EcuM_RequestedState
                0x3408fc14                BswM_NvM_CurrentBlockMode
                0x3408fc38                BswM_NvM_CurrentJobMode
                0x3408fc94                BswM_MainFunction
 .text          0x3408fda0      0xbc0 obj/external/Components/CanIf/Implementation/CanIf.o
                0x3409005c                CanIf_Init
                0x34090084                CanIf_SetControllerMode
                0x340901a0                CanIf_GetControllerMode
                0x340901d0                CanIf_Transmit
                0x340903dc                CanIf_TxConfirmation
                0x34090454                CanIf_RxIndicationAsr403
                0x34090688                CanIf_SetPduMode
                0x34090718                CanIf_ControllerBusOff
                0x34090764                CanIf_GetPduMode
                0x3409079c                CanIf_InitMemory
                0x340907b4                CanIf_CancelTransmit
                0x34090880                CanIf_CancelTxNotification
                0x340908f0                CanIf_ControllerModeIndication
 .text          0x34090960      0x8e0 obj/external/Components/CanNm/Implementation/CanNm.o
                0x34090acc                CanNm_Init
                0x34090c0c                CanNm_PassiveStartUp
                0x34090c68                CanNm_NetworkRequest
                0x34090cc8                CanNm_NetworkRelease
                0x34090d04                CanNm_GetState
                0x34090d68                CanNm_GetUserData
                0x34090de0                CanNm_GetNodeIdentifier
                0x34090e58                CanNm_GetLocalNodeIdentifier
                0x34090eb8                CanNm_GetPduData
                0x34090f30                CanNm_InitMemory
                0x34090f3c                CanNm_RxIndication
                0x34090fd8                CanNm_TxConfirmation
                0x34091018                CanNm_Transmit
                0x3409101c                CanNm_CancelTransmit
                0x3409103c                CanNm_MainFunction
 .text          0x34091240      0x8b4 obj/external/Components/CanSM/Implementation/CanSM.o
                0x3409145c                CanSM_InitMemory
                0x34091468                CanSM_PreInit
                0x340914cc                CanSM_Init
                0x3409151c                CanSM_MainFunction
                0x3409167c                CanSM_RequestComMode
                0x3409173c                CanSM_GetCurrentComMode
                0x34091788                CanSM_ControllerBusOff
                0x3409182c                CanSM_ControllerModeIndication
                0x3409195c                CanSM_TxTimeoutException
                0x340919d0                CanSM_StartWakeupSources
                0x34091a50                CanSM_StopWakeupSources
 .text          0x34091af4     0x150c obj/external/Components/CanTp/Implementation/CanTp.o
                0x340929f0                CanTp_Init
                0x34092a58                CanTp_InitMemory
                0x34092a64                CanTp_Shutdown
                0x34092a8c                CanTp_MainFunctionRx
                0x34092cc0                CanTp_MainFunctionTx
                0x34092e04                CanTp_MainFunction
                0x34092e10                CanTp_Transmit
                0x34092e8c                CanTp_RxIndication
                0x34092f28                CanTp_TxConfirmation
                0x34092fdc                CanTp_CancelTransmit
 .text          0x34093000      0x248 obj/external/Components/CanXcp/Implementation/CanXcp.o
                0x34093000                CanXcp_InitMemory
                0x3409300c                CanXcp_Init
                0x3409304c                CanXcp_MainFunction
                0x340930c8                Xcp_CanIfRxIndication
                0x34093160                Xcp_CanIfTxConfirmation
                0x340931ac                CanXcp_Send
                0x3409320c                CanXcp_SendFlush
                0x34093228                CanXcp_TLService
 .text          0x34093248     0x1544 obj/external/Components/Can_30_Flexcan4/Implementation/Can_30_Flexcan4.o
                0x34093ca8                Can_30_Flexcan4_InitMemory
                0x34093cb4                Can_30_Flexcan4_ChangeBaudrate
                0x34093dac                Can_30_Flexcan4_Init
                0x34093e94                Can_30_Flexcan4_SetControllerMode
                0x3409417c                Can_30_Flexcan4_DisableControllerInterrupts
                0x34094200                Can_30_Flexcan4_EnableControllerInterrupts
                0x34094290                Can_30_Flexcan4_Write
                0x34094598                Can_30_Flexcan4_CheckWakeup
                0x3409459c                Can_30_Flexcan4_MainFunction_Write
                0x3409459e                Can_30_Flexcan4_MainFunction_Read
                0x340945cc                Can_30_Flexcan4_MainFunction_BusOff
                0x340945ce                Can_30_Flexcan4_MainFunction_Wakeup
                0x340945d0                Can_30_Flexcan4_MainFunction_Mode
                0x3409469c                Can_30_Flexcan4_CancelTx
                0x3409471c                Can_30_Flexcan4BusOffInterrupt
                0x34094724                Can_30_Flexcan4MailboxInterrupt
 .text          0x3409478c        0x0 obj/external/Components/Can_30_Flexcan4/Implementation/Can_30_Flexcan4_Irq.o
 .text          0x3409478c      0x434 obj/external/Components/Com/Implementation/Com.o
                0x3409478c                Com_IpduGroupStart
                0x340947f4                Com_IpduGroupStop
                0x3409481c                Com_SwitchIpduTxMode
                0x34094890                Com_EnableReceptionDM
                0x340948b4                Com_DisableReceptionDM
                0x340948d8                Com_Init
                0x3409490c                Com_InitMemory
                0x34094918                Com_DeInit
                0x34094944                Com_GetConfigurationId
                0x34094964                Com_GetStatus
                0x34094974                Com_ReceiveSignal
                0x340949c4                Com_SendSignalGroup
                0x34094a20                Com_InvalidateSignal
                0x34094a40                Com_InvalidateSignalGroup
                0x34094a60                Com_ReceiveSignalGroup
                0x34094aac                Com_SendSignal
                0x34094af4                Com_TriggerIPDUSend
                0x34094b1c                Com_RxIndication
                0x34094b58                Com_TriggerTransmit
                0x34094b98                Com_TxConfirmation
 .text          0x34094bc0      0x224 obj/external/Components/Com/Implementation/Com_Buffers.o
                0x34094bc0                Com_TxBuffer_InitTxIpdu
                0x34094bf8                Com_TxBuffer_WriteSignalGroup
                0x34094c50                Com_RxProcessing_ExtractToShdwBffr
                0x34094cf0                Com_Signal_SetRxSigBufferValue
 .text          0x34094de4        0x0 obj/external/Components/Com/Implementation/Com_CprQueue.o
 .text          0x34094de4        0x0 obj/external/Components/Com/Implementation/Com_CprQueueDescrGw.o
 .text          0x34094de4        0x0 obj/external/Components/Com/Implementation/Com_CprQueueSigGw.o
 .text          0x34094de4        0x0 obj/external/Components/Com/Implementation/Com_DescriptionGateway.o
 .text          0x34094de4      0x314 obj/external/Components/Com/Implementation/Com_Deserializer.o
                0x34094de4                Com_Signal_ReadSignal_UInt8
                0x34094eec                Com_Signal_ReadSignal_UInt16
                0x34094ff4                Com_Signal_ReadSignal_UInt32
 .text          0x340950f8      0x380 obj/external/Components/Com/Implementation/Com_IPduGroupHdlr.o
                0x340950f8                Com_IPduGroupHdlr_IPduGroupsInit
                0x34095110                Com_ActivateAlwaysOnTxComIPdus
                0x34095134                Com_RxIPduGroup_EnterExclusiveArea
                0x3409513c                Com_RxIPduGroup_ExitExclusiveArea
                0x34095144                Com_IPduGroupHdlr_ReloadRxIPduGroupISRLockCounter
                0x34095154                Com_IPduGroupHdlr_RxISRThresholdCheck
                0x3409517c                Com_IpduGroupStartRx
                0x34095210                Com_TxIPduGroup_EnterExclusiveArea
                0x34095218                Com_TxIPduGroup_ExitExclusiveArea
                0x34095220                Com_IPduGroupHdlr_ReloadTxIPduGroupISRLockCounter
                0x34095230                Com_IPduGroupHdlr_TxISRThresholdCheck
                0x34095258                Com_IPduGroupHdlr_DeactivateAlwaysOnTxComIPdus
                0x34095298                Com_IpduGroupStartTx
                0x3409530c                Com_IPduGroupHdlr_Stop
                0x34095460                Com_IPduGroupHdlr_StopAllIpduGroups
 .text          0x34095478      0x16c obj/external/Components/Com/Implementation/Com_LLIf.o
                0x34095478                Com_TriggerTransmit_Process
                0x340954e4                Com_TxConfirmation_Process
                0x340954f0                Com_TxLLIf_Transmit
                0x3409553c                Com_TxLLIf_InitTxIpdu
                0x34095558                Com_RxIndication_Processing
 .text          0x340955e4       0xdc obj/external/Components/Com/Implementation/Com_LMgt.o
                0x340955e4                Com_LMgt_InitRxIpdu
                0x340955ec                Com_LMgt_InitTxIpdu
                0x3409567c                Com_LMgt_InitRx
                0x3409569c                Com_LMgt_InitTx
 .text          0x340956c0       0x94 obj/external/Components/Com/Implementation/Com_MainFunctions.o
                0x340956c0                Com_MainFunctions_Init
                0x3409571c                Com_MainFunctionRxInternal
                0x34095734                Com_MainFunctionTxInternal
 .text          0x34095754        0x0 obj/external/Components/Com/Implementation/Com_Notifications.o
 .text          0x34095754        0x0 obj/external/Components/Com/Implementation/Com_RxInv.o
 .text          0x34095754      0x38c obj/external/Components/Com/Implementation/Com_RxProcessing.o
                0x34095754                Com_RxProcessing_EnterExclusiveArea_Deferred
                0x3409575c                Com_RxProcessing_ExitExclusiveArea_Deferred
                0x34095770                Com_RxProcessing_InitRxIpdu
                0x34095814                Com_RxProcessing_RxPduSigEvent
                0x34095918                Com_RxProcessing_RxPduSigGrpEvent
                0x340959f4                Com_RxDeferredPduProcessing
 .text          0x34095ae0      0x1ec obj/external/Components/Com/Implementation/Com_Serializer.o
                0x34095ae0                Com_Serializer_WriteSignal
                0x34095c30                Com_Serializer_WriteGroupSignal
 .text          0x34095ccc        0x0 obj/external/Components/Com/Implementation/Com_SignalFilterHdlr.o
 .text          0x34095ccc        0x0 obj/external/Components/Com/Implementation/Com_SignalGateway.o
 .text          0x34095ccc      0x1b4 obj/external/Components/Com/Implementation/Com_SignalIf.o
                0x34095ccc                Com_ReceiveSignal_GetRxSigBuffer
                0x34095d28                Com_ReadSignalGroupData
                0x34095dd4                Com_SendSignalGroup_Processing
                0x34095df4                Com_SendSignal_Processing
 .text          0x34095e80        0x0 obj/external/Components/Com/Implementation/Com_Timer.o
 .text          0x34095e80      0x23c obj/external/Components/Com/Implementation/Com_TxModeHdlr.o
                0x34095e80                Com_TxModeHdlr_MainFunctionTx_CycleCounter
                0x34095f40                Com_TxModeHdlr_MainFunctionTx_Transmit
                0x34095fc0                Com_TxModeHdlr_InitTxMode
                0x34096010                Com_TxModeHdlr_InitTxIpdu
                0x3409606c                Com_TxModeHdlr_StopTxIpdus
                0x340960a4                Com_TxModeHdlr_TriggerIpduSendOnceDeferred
 .text          0x340960bc      0x9d8 obj/external/Components/ComM/Implementation/ComM.o
                0x3409622c                ComM_PreInit
                0x34096254                ComM_PostInit
                0x34096290                ComM_Init
                0x3409633c                ComM_InitMemory
                0x34096348                ComM_DeInit
                0x34096390                ComM_GetState
                0x34096400                ComM_GetStatus
                0x34096428                ComM_RequestComMode
                0x3409649c                ComM_GetMaxComMode
                0x340964d4                ComM_GetRequestedComMode
                0x34096534                ComM_GetCurrentComMode
                0x340965b4                ComM_GetInhibitionStatus
                0x340965f4                ComM_PreventWakeUp
                0x34096620                ComM_LimitChannelToNoComMode
                0x3409664c                ComM_LimitECUToNoComMode
                0x3409666c                ComM_ReadInhibitCounter
                0x340966a0                ComM_ResetInhibitCounter
                0x340966c8                ComM_SetECUGroupClassification
                0x340966fc                ComM_CommunicationAllowed
                0x34096728                ComM_GetDcmRequestStatus
                0x34096770                ComM_MainFunction
                0x3409687c                ComM_Nm_NetworkStartIndication
                0x340968a4                ComM_Nm_NetworkMode
                0x340968e8                ComM_Nm_PrepareBusSleepMode
                0x34096920                ComM_Nm_BusSleepMode
                0x3409695c                ComM_Nm_RestartIndication
                0x34096984                ComM_DCM_ActiveDiagnostic
                0x340969b0                ComM_DCM_InactiveDiagnostic
                0x340969dc                ComM_EcuM_WakeUpIndication
                0x34096a28                ComM_BusSM_ModeIndication
 .text          0x34096a94      0x178 obj/external/Components/Crc/Implementation/Crc.o
                0x34096b24                Crc_CalculateCRC8
                0x34096b50                Crc_CalculateCRC8H2F
                0x34096b7c                Crc_CalculateCRC16
                0x34096b94                Crc_CalculateCRC32
                0x34096bc8                Crc_CalculateCRC32P4
                0x34096be4                Crc_CalculateCRC64
 .text          0x34096c0c     0x3870 obj/external/Components/Dcm/Implementation/Dcm.o
                0x34096c7c                Dcm_DiagSvcWithOnlySubFuncReqLengthGetter
                0x34096c80                Dcm_DiagNoSequenceChecker
                0x34096f84                Dcm_NetSetComControlChannelState
                0x34096fb0                Dcm_GetActiveProtocol
                0x34097008                Dcm_SetActiveDiagnostic
                0x34097054                Dcm_NetUnRegisterAllComMActivity
                0x34097090                Dcm_ComM_NoComModeEntered
                0x340970bc                Dcm_ComM_SilentComModeEntered
                0x340970e8                Dcm_ComM_FullComModeEntered
                0x34097114                Dcm_InitMemory
                0x34097120                Dcm_MainFunction
                0x34097144                Dcm_GetThreadContext
                0x34097234                Dcm_DiagIsKernelBusy
                0x34097252                Dcm_DiagVariantLookUpFilter
                0x3409725c                Dcm_ExternalProcessingDone
                0x3409728c                Dcm_ExternalSetNegResponse
                0x340972c0                Dcm_DiagGetCancelFunc
                0x34097332                Dcm_NetGetPeriodicTxObject
                0x34097368                Dcm_NetPeriodicMsgGetTxBuffer
                0x34097372                Dcm_NetPeriodicMsgRelease
                0x3409738c                Dcm_NetGetKeepAlive
                0x34097398                Dcm_NetSetRxAllowed
                0x340973a4                Dcm_NetGetInvalidConnHdl
                0x340973a8                Dcm_NetGetSessionConnection
                0x340973b4                Dcm_PbCfgNetGetConnectionInfo
                0x340973d8                Dcm_PbCfgNetGetConnComMChannelMap
                0x340973e4                Dcm_PbCfgNetGetComCtrlChannelListAll
                0x340973f0                Dcm_PbCfgNetGetNumAllComMChannels
                0x340973f4                Dcm_PbRamNetGetComCtrlChannels
                0x34097404                Dcm_PbCfgNetAllComMChannelMapGetEntry
                0x34097410                Dcm_NetGetConnHdlOfRxPduId
                0x34097420                Dcm_GetTesterSourceAddress
                0x34097480                Dcm_DiagGetDemClientId
                0x34097504                Dcm_DiagVerifyServiceWithSubFunction
                0x34097662                Dcm_NetGetNumConnections
                0x34097690                Dcm_NetGetNumPeriodicTxPduIds
                0x340976a4                Dcm_NetGetNumPerTxObjects
                0x340976a8                Dcm_NetPeriodicMsgGetConnection
                0x340976b4                Dcm_TriggerTransmit
                0x34097770                Dcm_TxConfirmation
                0x340977e8                Dcm_NetPeriodicMsgAllocate
                0x34097844                Dcm_NetPeriodicMsgStopDid
                0x340978b0                Dcm_NetPeriodicMsgTransmit
                0x340978de                Dcm_NetPeriodicMsgSetConnection
                0x340978ec                Dcm_NetPeriodicMsgResetConnection
                0x34097908                Dcm_NetPeriodicMsgGetClientSrcAddr
                0x34097914                Dcm_NetPeriodicMsgSetClientSrcAddr
                0x34097920                Dcm_NetGetBufferInfo
                0x3409794c                Dcm_NetGetTransportObject
                0x340979c0                Dcm_GetRequestKind
                0x34097a3c                Dcm_CopyRxData
                0x34097bf8                Dcm_PagedBufferStart
                0x34097c84                Dcm_Init
                0x34097dc4                Dcm_DiagTaskRx
                0x34098020                Dcm_NetGetComState
                0x34098064                Dcm_NetBufferUsageLeave
                0x340980c4                Dcm_NetBufferUsageEnter
                0x34098100                Dcm_PagedBufferTask
                0x34098328                Dcm_NetGetProtObjOfConnection
                0x340984a0                Dcm_StartOfReception
                0x340984ec                Dcm_DiagTaskFblRes
                0x340987c4                Dcm_NetGetProtObjOfTranspObj
                0x340987ce                Dcm_TpRxIndication
                0x340988a8                Dcm_CopyTxData
                0x34098b54                Dcm_DiagTaskWorker
                0x34099224                Dcm_DiagTaskTx
                0x340993e6                Dcm_TpTxConfirmation
                0x34099450                Dcm_NetGetHasRespPendOnBoot
                0x340994ae                Dcm_NetTaskRx
                0x340996c4                Dcm_NetTaskTx
                0x34099840                Dcm_OnTimeoutPeriodicTx
                0x340998a0                Dcm_Service10Processor
                0x34099a8c                Dcm_Service10FastPostProcessor
                0x34099aac                Dcm_Service10PostProcessor
                0x34099ad2                Dcm_Svc2CDefMgrRead
                0x34099d28                Dcm_Svc2CDefMgrReadDataLength
                0x34099d64                Dcm_Svc2CIsDidDefined
                0x34099dac                Dcm_Service2CInit
                0x34099dd8                Dcm_Service2C_01Processor
                0x34099e1c                Dcm_Service2C_02Processor
                0x34099fcc                Dcm_Service2C_03Processor
                0x34099ffe                Dcm_Service2CProcessor
                0x3409a3bc                Dcm_Service2CPostProcessor
                0x3409a408                Dcm_PagedBufferDataPadding
                0x3409a42a                Dcm_OnTimeoutP2
                0x3409a43a                Dcm_OnTimeoutS3
                0x3409a46c                Dcm_OnTimeoutFblRes
 .text          0x3409a47c        0x0 obj/external/Components/Dcm/Implementation/Dcm_AuthMgr.o
 .text          0x3409a47c        0x0 obj/external/Components/Dcm/Implementation/Dcm_CfgWrap.o
 .text          0x3409a47c       0x1c obj/external/Components/Dcm/Implementation/Dcm_Debug.o
                0x3409a47c                Dcm_DebugInit
                0x3409a490                Dcm_DebugReportSecurityEvent
                0x3409a492                Dcm_DebugResetSecurityEventStatus
                0x3409a494                Dcm_DebugReportSecurityEventNRC
 .text          0x3409a498       0x60 obj/external/Components/Dcm/Implementation/Dcm_DemIf.o
                0x3409a498                Dcm_DemIfGetNrcForDemRetValue
                0x3409a4c8                Dcm_DemIfConvDemRsltGetNextFilteredItem
 .text          0x3409a4f8        0x0 obj/external/Components/Dcm/Implementation/Dcm_Diag.o
 .text          0x3409a4f8     0x1878 obj/external/Components/Dcm/Implementation/Dcm_DidMgr.o
                0x3409acec                Dcm_DidMgrInit
                0x3409ad00                Dcm_DidMgrInitOpInfo
                0x3409ad38                Dcm_DidMgrInitOpTypeHandler
                0x3409ad9c                Dcm_DidMgrInitOpClassInfo
                0x3409adc4                Dcm_DidMgrReadCheckCond
                0x3409aeb4                Dcm_DidMgrReadDid
                0x3409b324                Dcm_DidMgrReadLength
                0x3409b420                Dcm_DidMgrConcreteDidLookUp
                0x3409b47c                Dcm_DidMgrGetDidInfo
                0x3409b558                Dcm_DidMgrIoControlRtrnCtrl2Ecu
                0x3409b71c                Dcm_DidMgrIoControl
                0x3409bbb0                Dcm_DidMgrWrite
                0x3409bd48                Dcm_DidMgrDynDidStateCheck
                0x3409bd6c                Dcm_DidMgrDidNoOp
 .text          0x3409bd70        0x0 obj/external/Components/Dcm/Implementation/Dcm_Ext.o
 .text          0x3409bd70        0x0 obj/external/Components/Dcm/Implementation/Dcm_FblMgr.o
 .text          0x3409bd70      0x1f0 obj/external/Components/Dcm/Implementation/Dcm_MemMgr.o
                0x3409bd70                Dcm_MemMgrCheckMemBlock
                0x3409be40                Dcm_MemMgrReadMemory
                0x3409bee8                Dcm_MemMgrWriteMemory
 .text          0x3409bf60       0xc8 obj/external/Components/Dcm/Implementation/Dcm_Mode.o
                0x3409bf60                Dcm_ModeGetLastDisableDTCClientID
                0x3409bf6c                Dcm_ModeSetDTCMode
                0x3409bf78                Dcm_ModeGetDTCMode
                0x3409bf84                Dcm_ModeSetDTCGroup
                0x3409bf90                Dcm_ModeInit
                0x3409bfbc                Dcm_ModeGetDTCGroup
                0x3409bfc8                Dcm_ModeSwitchAckEcuReset
                0x3409bfe2                Dcm_ModeSwitchEcuReset
                0x3409bfea                Dcm_ModeSwitchDtcSetting
                0x3409c002                Dcm_ModeSwitchCommControl
 .text          0x3409c028        0x0 obj/external/Components/Dcm/Implementation/Dcm_Net.o
 .text          0x3409c028        0x0 obj/external/Components/Dcm/Implementation/Dcm_ObdDtcMgr.o
 .text          0x3409c028       0x68 obj/external/Components/Dcm/Implementation/Dcm_ObdIdMgr.o
                0x3409c028                Dcm_ObdIdMgrIdLookUp
                0x3409c04c                Dcm_ObdIdMgrGetAvailabilityMask
 .text          0x3409c090        0x0 obj/external/Components/Dcm/Implementation/Dcm_PagedBuffer.o
 .text          0x3409c090       0xb4 obj/external/Components/Dcm/Implementation/Dcm_Repeater.o
                0x3409c090                Dcm_RepeaterNextSubStep
                0x3409c09c                Dcm_RepeaterNextStep
                0x3409c0aa                Dcm_RepeaterSetCallee
                0x3409c0b8                Dcm_RepeaterExecute
                0x3409c140                Dcm_RepeaterDeadEnd
 .text          0x3409c144      0x2fc obj/external/Components/Dcm/Implementation/Dcm_RidMgr.o
                0x3409c144                Dcm_RidMgrInit
                0x3409c146                Dcm_RidMgrGetOpInfo
                0x3409c178                Dcm_RidMgrExecuteRoutine
                0x3409c400                Dcm_RidMgrRidLookUp
 .text          0x3409c440      0x1f4 obj/external/Components/Dcm/Implementation/Dcm_RsrcMgr.o
                0x3409c440                Dcm_RsrcMgrInit
                0x3409c47c                Dcm_RsrcMgrHasMemLock
                0x3409c490                Dcm_RsrcMgrGetMemLock
                0x3409c4b8                Dcm_RsrcMgrReleaseMemLock
                0x3409c4c4                Dcm_RsrcMgrHasDidLock
                0x3409c4e8                Dcm_RsrcMgrGetDidLock
                0x3409c568                Dcm_RsrcMgrReleaseDidLock
                0x3409c594                Dcm_RsrcMgrGetRidLock
                0x3409c608                Dcm_RsrcMgrReleaseRidLock
 .text          0x3409c634      0x2e4 obj/external/Components/Dcm/Implementation/Dcm_State.o
                0x3409c634                Dcm_ResetToDefaultSession
                0x3409c668                Dcm_GetSesCtrlType
                0x3409c6c0                Dcm_GetSecurityLevel
                0x3409c71c                Dcm_StateGetSession
                0x3409c728                Dcm_StateGetPendingSession
                0x3409c734                Dcm_StateSetPendingSession
                0x3409c740                Dcm_StateInit
                0x3409c758                Dcm_StateGetSecurity
                0x3409c764                Dcm_StateSetSecurity
                0x3409c7d0                Dcm_StateSetSession
                0x3409c854                Dcm_StateCheckDID
                0x3409c894                Dcm_StateCheckRID
                0x3409c8d4                Dcm_StateCheck
 .text          0x3409c918        0x0 obj/external/Components/Dcm/Implementation/Dcm_Svc01.o
 .text          0x3409c918        0x0 obj/external/Components/Dcm/Implementation/Dcm_Svc02.o
 .text          0x3409c918        0x0 obj/external/Components/Dcm/Implementation/Dcm_Svc03.o
 .text          0x3409c918        0x0 obj/external/Components/Dcm/Implementation/Dcm_Svc04.o
 .text          0x3409c918        0x0 obj/external/Components/Dcm/Implementation/Dcm_Svc06.o
 .text          0x3409c918        0x0 obj/external/Components/Dcm/Implementation/Dcm_Svc07.o
 .text          0x3409c918        0x0 obj/external/Components/Dcm/Implementation/Dcm_Svc08.o
 .text          0x3409c918        0x0 obj/external/Components/Dcm/Implementation/Dcm_Svc09.o
 .text          0x3409c918        0x0 obj/external/Components/Dcm/Implementation/Dcm_Svc0A.o
 .text          0x3409c918      0x130 obj/external/Components/Dcm/Implementation/Dcm_Svc11.o
                0x3409c93a                Dcm_Service11Processor
                0x3409c9fc                Dcm_Service11PostProcessor
                0x3409ca20                Dcm_Service11FastPostProcessor
                0x3409ca38                Dcm_Service11_01Processor
 .text          0x3409ca48      0x184 obj/external/Components/Dcm/Implementation/Dcm_Svc14.o
                0x3409caf4                Dcm_Service14Processor
                0x3409cbc8                Dcm_Service14Cancel
 .text          0x3409cbcc      0x4d8 obj/external/Components/Dcm/Implementation/Dcm_Svc19.o
                0x3409cbdc                Dcm_Service19Processor
                0x3409cd9c                Dcm_Service19PostProcessor
                0x3409cda8                Dcm_Service19Updater
                0x3409cdb8                Dcm_Service19_01Processor
                0x3409cdd4                Dcm_Service19_02Processor
                0x3409cdf0                Dcm_Service19_03Processor
                0x3409ce34                Dcm_Service19_04Processor
                0x3409ce42                Dcm_Service19_06Processor
                0x3409ce58                Dcm_Service19_07Processor
                0x3409ce82                Dcm_Service19_08Processor
                0x3409cf64                Dcm_Service19_09Processor
                0x3409d024                Dcm_Service19_0AProcessor
                0x3409d040                Dcm_Service19_0CProcessor
                0x3409d056                Dcm_Service19_0DProcessor
                0x3409d06c                Dcm_Service19_14Processor
                0x3409d0a0                Dcm_Service19Cancel
 .text          0x3409d0a4      0xf1c obj/external/Components/Dcm/Implementation/Dcm_Svc19Uti.o
                0x3409d0a4                Dcm_Svc19UtiDemSetDTCFilter
                0x3409d0e8                Dcm_Svc19UtiDemGetDTCStatusAvailabilityMask
                0x3409d108                Dcm_Svc19UtiStartReporting
                0x3409d11a                Dcm_Svc19UtiCopyData
                0x3409d634                Dcm_Svc19UtiDemGetSizeOfFFRecord
                0x3409d67c                Dcm_Svc19UtiDemGetSizeOfExtRecord
                0x3409d6c4                Dcm_Svc19UtiDemGetNxtFltrdSeverity
                0x3409d6e2                Dcm_Svc19UtiDemGetNxtFltrdFDC
                0x3409d6fc                Dcm_Svc19UtiDemGetNxtFltrdDtc
                0x3409d716                Dcm_Svc19UtiPutNumFilteredDtc
                0x3409d7b2                Dcm_Svc19UtiChainStart
                0x3409d7c0                Dcm_Svc19UtiReportNumDtcByStatusMaskData
                0x3409d9a0                Dcm_Svc19UtiReportDtcByStatusMaskData
                0x3409da84                Dcm_Svc19UtiReportExtDataRecordByDtcNum
                0x3409dacc                Dcm_Svc19UtiChainNext
                0x3409dade                Dcm_Svc19UtiDemSelectDTC
                0x3409db10                Dcm_Svc19UtiDemDisableRecordUpdate
                0x3409db44                Dcm_Svc19UtiDemGetStatusOfDtc
                0x3409dcc8                Dcm_Svc19UtiDemSelectExtRecord
                0x3409dcf8                Dcm_Svc19UtiDemGetNumFltrdDtc
                0x3409dd30                Dcm_Svc19UtiDemGetSeverityOfDtc
                0x3409ddd8                Dcm_Svc19UtiDemGetFuncUnitOfDtc
                0x3409de80                Dcm_Svc19UtiDemSelectFFData
                0x3409deb0                Dcm_Svc19UtiReportNumDtcByOccurenceTime
                0x3409df78                Dcm_Svc19UtiReportDtcFFRByDtc
 .text          0x3409dfc0      0x3cc obj/external/Components/Dcm/Implementation/Dcm_Svc22.o
                0x3409dfc0                Dcm_Service22Processor
                0x3409e388                Dcm_Service22Cancel
 .text          0x3409e38c      0x184 obj/external/Components/Dcm/Implementation/Dcm_Svc23.o
                0x3409e38c                Dcm_Service23Processor
 .text          0x3409e510        0x0 obj/external/Components/Dcm/Implementation/Dcm_Svc24.o
 .text          0x3409e510      0x5c0 obj/external/Components/Dcm/Implementation/Dcm_Svc27.o
                0x3409e554                Dcm_OnTimeoutSecurityAccess
                0x3409e588                Dcm_Svc27OnStateChanged
                0x3409e594                Dcm_Service27Init
                0x3409e5b8                Dcm_Service27Processor
                0x3409ea6c                Dcm_Service27PostProcessor
 .text          0x3409ead0      0x218 obj/external/Components/Dcm/Implementation/Dcm_Svc28.o
                0x3409eae0                Dcm_Svc28EnableCommunication
                0x3409eb04                Dcm_Svc28OnChangeSession
                0x3409eb40                Dcm_Service28_XXProcessor
                0x3409ebdc                Dcm_Service28Processor
                0x3409ec88                Dcm_Service28PostProcessor
 .text          0x3409ece8        0x0 obj/external/Components/Dcm/Implementation/Dcm_Svc29.o
 .text          0x3409ece8      0x2a8 obj/external/Components/Dcm/Implementation/Dcm_Svc2A.o
                0x3409ed36                Dcm_Service2AInit
                0x3409ed3e                Dcm_Service2AProcessor
                0x3409ef5c                Dcm_Service2APostProcessor
 .text          0x3409ef90      0x550 obj/external/Components/Dcm/Implementation/Dcm_Svc2ASchd.o
                0x3409f0b4                Dcm_Svc2ASchdStopItemByHandle
                0x3409f12c                Dcm_Svc2ASchdStopAll
                0x3409f150                Dcm_Svc2ASchdStopItemByDid
                0x3409f170                Dcm_Svc2ATaskSchdProcess
                0x3409f378                Dcm_Service2ASchedulerInit
                0x3409f3b0                Dcm_Svc2ASchdAddItemByDid
                0x3409f440                Dcm_Svc2ASchdCommit
                0x3409f4a8                Dcm_Svc2ASchdDiscard
                0x3409f4cc                Dcm_Svc2ASchdGetFreeSpace
 .text          0x3409f4e0      0x1a0 obj/external/Components/Dcm/Implementation/Dcm_Svc2E.o
                0x3409f4e0                Dcm_Service2EProcessor
                0x3409f674                Dcm_Service2ECancel
 .text          0x3409f680      0x4f0 obj/external/Components/Dcm/Implementation/Dcm_Svc2F.o
                0x3409f680                Dcm_Svc2FReturnControlToEcu
                0x3409f6d0                Dcm_Svc2FOnStateChanged
                0x3409f764                Dcm_Service2FInit
                0x3409f780                Dcm_Service2FProcessor
                0x3409fb5c                Dcm_Service2FPostProcessor
                0x3409fb66                Dcm_Service2FCancel
 .text          0x3409fb70      0x39c obj/external/Components/Dcm/Implementation/Dcm_Svc31.o
                0x3409fb70                Dcm_Service31Processor
 .text          0x3409ff0c        0x0 obj/external/Components/Dcm/Implementation/Dcm_Svc34.o
 .text          0x3409ff0c        0x0 obj/external/Components/Dcm/Implementation/Dcm_Svc36.o
 .text          0x3409ff0c        0x0 obj/external/Components/Dcm/Implementation/Dcm_Svc37.o
 .text          0x3409ff0c      0x14c obj/external/Components/Dcm/Implementation/Dcm_Svc3D.o
                0x3409ff0c                Dcm_Service3DProcessor
 .text          0x340a0058       0x30 obj/external/Components/Dcm/Implementation/Dcm_Svc3E.o
                0x340a0058                Dcm_Service3EProcessor
 .text          0x340a0088      0x1cc obj/external/Components/Dcm/Implementation/Dcm_Svc85.o
                0x340a00e0                Dcm_Svc85EnableDtcSetting
                0x340a0120                Dcm_Svc85OnChangeSession
                0x340a0160                Dcm_Service85Processor
                0x340a0220                Dcm_Service85PostProcessor
                0x340a0252                Dcm_Service85Cancel
 .text          0x340a0254      0x304 obj/external/Components/Dcm/Implementation/Dcm_Tmr.o
                0x340a0254                Dcm_TmrInit
                0x340a0274                Dcm_TmrSetTimerByThread
                0x340a02d4                Dcm_TmrStartTimerByThread
                0x340a035c                Dcm_TmrStopTimerByThread
                0x340a03a8                Dcm_TmrIsTimerRunningByThread
                0x340a03f8                Dcm_TmrResumeTimerByThread
                0x340a0478                Dcm_TmrTaskTimer
 .text          0x340a0558      0x3c0 obj/external/Components/Dcm/Implementation/Dcm_Tsk.o
                0x340a0558                Dcm_TskInit
                0x340a0580                Dcm_TskGetEventByThread
                0x340a05d8                Dcm_TskSetEventByThread
                0x340a06ac                Dcm_TskClrEventByThread
                0x340a0754                Dcm_TskScheduler
                0x340a0820                Dcm_TskGetEvent
                0x340a084c                Dcm_TskSetEvent
                0x340a087c                Dcm_TskClrEvent
                0x340a08ac                Dcm_TskKillAllTasks
                0x340a0914                Dcm_TskReviveAllTasks
 .text          0x340a0918      0x2c6 obj/external/Components/Dcm/Implementation/Dcm_Uti.o
                0x340a0918                Dcm_UtiLookUpUint16
                0x340a0948                Dcm_UtiGetBitPosition
                0x340a097c                Dcm_UtiLookUpUint8
                0x340a0996                Dcm_UtiLookUpUint8IsEmpty
                0x340a09a0                Dcm_UtiConvertToUint16Array
                0x340a09d6                Dcm_UtiConvertToUint32Array
                0x340a0a24                Dcm_UtiConvertToFloat32Array
                0x340a0a72                Dcm_UtiResetRuntimeLimiter
                0x340a0a74                Dcm_UtiRuntimeLimitReached
                0x340a0a78                Dcm_UtiLookUpRangeUint16
                0x340a0ab2                Dcm_UtiMemCopySafe
                0x340a0af4                Dcm_UtiCommitData
                0x340a0b1e                Dcm_UtiGetResDataAt
                0x340a0b46                Dcm_UtiConvMemoryOpResult
                0x340a0b78                Dcm_UtiDwordExtract
                0x340a0ba0                Dcm_UtiValidateAndGetAlfid
 .text          0x340a0bde        0x4 obj/external/Components/Dcm/Implementation/Dcm_VarMgr.o
                0x340a0bde                Dcm_VarMgrGetActiveCfgVariantId
 *fill*         0x340a0be2        0x2 
 .text          0x340a0be4     0x8868 obj/external/Components/Dem/Implementation/Dem.o
                0x340a545c                Dem_SetEventStatus
                0x340a5698                Dem_ReportErrorStatus
                0x340a58a8                Dem_ResetEventStatus
                0x340a5924                Dem_ResetEventDebounceStatus
                0x340a5acc                Dem_GetDebouncingOfEvent
                0x340a5b30                Dem_GetMonitorStatus
                0x340a5b98                Dem_GetFaultDetectionCounter
                0x340a5fe8                Dem_NvM_InitDebounceData
                0x340a5ffa                Dem_SetSI30Symptom
                0x340a600c                Dem_GetEventFreezeFrameDataEx
                0x340a63b0                Dem_GetEventExtendedDataRecordEx
                0x340a6558                Dem_DisableDTCRecordUpdate
                0x340a6664                Dem_EnableDTCRecordUpdate
                0x340a66c8                Dem_SelectFreezeFrameData
                0x340a678c                Dem_GetNextFreezeFrameData
                0x340a6840                Dem_GetSizeOfFreezeFrameSelection
                0x340a6a04                Dem_SelectExtendedDataRecord
                0x340a6ad0                Dem_GetNextExtendedDataRecord
                0x340a6cf4                Dem_GetSizeOfExtendedDataRecordSelection
                0x340a6edc                Dem_DcmGetOBDFreezeFrameData
                0x340a6f08                Dem_SetExtendedDataRecordFilter
                0x340a6f1a                Dem_GetSizeOfFilteredExtendedDataRecords
                0x340a6f2c                Dem_GetNextFilteredExtendedDataRecord
                0x340a6f3e                Dem_MasterMainFunctionTimer
                0x340a6f64                Dem_MasterMainFunctionWorker
                0x340a6f94                Dem_InitMemory
                0x340a6fd4                Dem_SatellitePreInit
                0x340a7068                Dem_SafePreInit
                0x340a708c                Dem_MasterPreInit
                0x340a7140                Dem_PreInit
                0x340a714e                Dem_SatelliteInit
                0x340a71cc                Dem_SafeInit
                0x340a720c                Dem_Shutdown
                0x340a72a4                Dem_MasterMainFunction
                0x340a72b0                Dem_SatelliteMainFunction
                0x340a72dc                Dem_MainFunction
                0x340a72ec                Dem_PostRunRequested
                0x340a7310                Dem_NvM_InitAdminData
                0x340a7378                Dem_NvM_JobFinished
                0x340a737c                Dem_DisableDTCSetting
                0x340a7430                Dem_EnableDTCSetting
                0x340a74e8                Dem_DcmReadDataOfPIDF501
                0x340a7514                Dem_GetIndicatorStatus
                0x340a759c                Dem_PrestoreFreezeFrame
                0x340a75fc                Dem_GetFreezeFramePrestored
                0x340a7650                Dem_ClearPrestoredFreezeFrame
                0x340a76b0                Dem_GetEventMemoryOverflow
                0x340a7744                Dem_GetNumberOfEventMemoryEntries
                0x340a77c4                Dem_NvM_InitObdFreezeFrameData
                0x340a77ec                Dem_SetDTR
                0x340a7818                Dem_UpdateAvailableOBDMIDs
                0x340a7844                Dem_SetEventDisabled
                0x340a7870                Dem_RepIUMPRFaultDetect
                0x340a7882                Dem_IUMPRLockNumerators
                0x340a7894                Dem_RepIUMPRDenLock
                0x340a78a6                Dem_RepIUMPRDenRelease
                0x340a78b8                Dem_SetIUMPRDenCondition
                0x340a78ca                Dem_SetIUMPRFilter
                0x340a78dc                Dem_GetNumberOfFilteredIUMPR
                0x340a78ee                Dem_GetIUMPRGeneralData
                0x340a7900                Dem_GetNextIUMPRRatioDataAndDTC
                0x340a7912                Dem_GetCurrentIUMPRRatioDataAndDTC
                0x340a7924                Dem_GetDTCByOccurrenceTime
                0x340a79d8                Dem_NvM_InitObdIumprData
                0x340a79ea                Dem_SetOperationCycleState
                0x340a7a28                Dem_GetOperationCycleState
                0x340a7a84                Dem_GetEventUdsStatus
                0x340a7ae8                Dem_GetEventFailed
                0x340a7b58                Dem_GetEventTested
                0x340a7be8                Dem_GetDTCOfEvent
                0x340a7c74                Dem_NvM_InitStatusData
                0x340a7cec                Dem_MasterInit
                0x340a8160                Dem_Init
                0x340a8180                Dem_NvM_InitCycleCounterData
                0x340a81a8                Dem_GetSI30Status
                0x340a81ba                Dem_SetDTCFilter
                0x340a835c                Dem_GetNumberOfFilteredDTC
                0x340a83b8                Dem_GetNextFilteredDTC
                0x340a84a4                Dem_GetNextFilteredDTCAndFDC
                0x340a85bc                Dem_GetNextFilteredDTCAndSeverity
                0x340a8720                Dem_SetFreezeFrameRecordFilter
                0x340a8860                Dem_GetNextFilteredRecord
                0x340a8a80                Dem_GetStatusOfDTC
                0x340a8b38                Dem_GetDTCStatusAvailabilityMask
                0x340a8b84                Dem_GetTranslationType
                0x340a8bbc                Dem_GetSeverityOfDTC
                0x340a8c48                Dem_GetDTCSeverityAvailabilityMask
                0x340a8c90                Dem_GetFunctionalUnitOfDTC
                0x340a8d38                Dem_SelectDTC
                0x340a8ef8                Dem_GetDTCSelectionResult
                0x340a8f4c                Dem_GetEventIdOfDTC
                0x340a8fcc                Dem_ClearDTC
                0x340a9428                Dem_SetDTCFilterByReadinessGroup
                0x340a943a                Dem_SetDTCFilterByExtendedDataRecordNumber
 .text          0x340a944c       0x80 obj/external/Components/Det/Implementation/Det.o
                0x340a944e                Det_Init
                0x340a945c                Det_Start
                0x340a945e                Det_InitMemory
                0x340a946c                Det_ReportError
                0x340a94b4                Det_ReportRuntimeError
                0x340a94c0                Det_ReportTransientFault
 .text          0x340a94cc      0x670 obj/external/Components/EcuM/Implementation/EcuM.o
                0x340a9550                EcuM_MainFunction
                0x340a9564                EcuM_Init
                0x340a9600                EcuM_Shutdown
                0x340a9668                EcuM_SelectShutdownTarget
                0x340a96e8                EcuM_GetShutdownTarget
                0x340a9734                EcuM_GetLastShutdownTarget
                0x340a9774                EcuM_SelectShutdownCause
                0x340a97a8                EcuM_GetShutdownCause
                0x340a97dc                EcuM_GetPendingWakeupEvents
                0x340a97fc                EcuM_ClearWakeupEvent
                0x340a9860                EcuM_ClearValidatedWakeupEvent
                0x340a98a0                EcuM_GetValidatedWakeupEvents
                0x340a98c8                EcuM_GetExpiredWakeupEvents
                0x340a98e8                EcuM_GetBootTarget
                0x340a991c                EcuM_SelectBootTarget
                0x340a9950                EcuM_StartupTwo
                0x340a99c8                EcuM_ValidateWakeupEvent
                0x340a9a70                EcuM_SetWakeupEvent
                0x340a9a98                EcuM_GoHalt
                0x340a9aaa                EcuM_GoPoll
                0x340a9abc                EcuM_GoDown
                0x340a9b30                EcuM_GoToSelectedShutdownTarget
 .text          0x340a9b3c      0x674 obj/external/Components/Fee/Implementation/Fee.o
                0x340a9b94                Fee_InitEx
                0x340a9c28                Fee_Init
                0x340a9c38                Fee_SetMode
                0x340a9c98                Fee_Read
                0x340a9d74                Fee_Write
                0x340a9e5c                Fee_InvalidateBlock
                0x340a9f3c                Fee_EraseImmediateBlock
                0x340aa01c                Fee_Cancel
                0x340aa080                Fee_GetStatus
                0x340aa08c                Fee_GetJobResult
                0x340aa0b8                Fee_MainFunction
                0x340aa0f8                Fee_GetSectorSwitchStatus
                0x340aa144                Fee_SuspendWrites
                0x340aa178                Fee_ResumeWrites
 .text          0x340aa1b0      0x864 obj/external/Components/Fee/Implementation/Fee_ChunkInfo.o
                0x340aa1b0                Fee_ChunkInfo_GetInstanceCount
                0x340aa1ca                Fee_ChunkInfo_CreateNewLinktableChunk
                0x340aa1ec                Fee_ChunkInfo_CreateNewDataChunk
                0x340aa216                Fee_ChunkInfo_AssembleHeader
                0x340aa242                Fee_ChunkInfo_Construct
                0x340aa284                Fee_ChunkInfo_Equals
                0x340aa2c8                Fee_ChunkInfo_Clone
                0x340aa2d2                Fee_ChunkInfo_Clear
                0x340aa2ea                Fee_ChunkInfo_GetSector
                0x340aa2ee                Fee_ChunkInfo_GetBaseAddress
                0x340aa2f2                Fee_ChunkInfo_ReadChunkHeader
                0x340aa32c                Fee_ChunkInfo_WriteHeader
                0x340aa34a                Fee_ChunkInfo_isDataChunk
                0x340aa352                Fee_ChunkInfo_isInitialLinkTable
                0x340aa36c                Fee_ChunkInfo_isLinkAllowed
                0x340aa37a                Fee_ChunkInfo_isLinkConsistent
                0x340aa388                Fee_ChunkInfo_confirmEmptyLink
                0x340aa396                Fee_ChunkInfo_unconfirmLink
                0x340aa3a0                Fee_ChunkInfo_getPayload
                0x340aa3a4                Fee_ChunkInfo_GetInstanceSize
                0x340aa406                Fee_ChunkInfo_AssignSector
                0x340aa440                Fee_ChunkInfo_SwitchToSuccessor
                0x340aa480                Fee_ChunkInfo_GetInstanceStartAddress
                0x340aa4ca                Fee_ChunkInfo_ReadInstanceHeader
                0x340aa502                Fee_ChunkInfo_ReadInstanceTrailer
                0x340aa53c                Fee_ChunkInfo_ReadInstancePayload
                0x340aa576                Fee_ChunkInfo_ReadChunkLink
                0x340aa602                Fee_ChunkInfo_AssembleLink
                0x340aa66a                Fee_ChunkInfo_WriteChunkLink
                0x340aa6f2                Fee_ChunkInfo_GetEndAddress
                0x340aa708                Fee_ChunkInfo_EvaluateHeaderData
                0x340aa85c                Fee_ChunkInfo_InitFromLinkData
                0x340aa9b0                Fee_ChunkInfo_CheckHeaderConsistency
 .text          0x340aaa14        0x0 obj/external/Components/Fee/Implementation/Fee_LookUpTable.o
 .text          0x340aaa14      0x204 obj/external/Components/Fee/Implementation/Fee_Partition.o
                0x340aaa14                Fee_Partition_init
                0x340aaa5a                Fee_Partition_getNextSectorId
                0x340aaa6a                Fee_Partition_updateSectorId
                0x340aaa76                Fee_Partition_getOldestSector
                0x340aaa92                Fee_Partition_handleError
                0x340aaac4                Fee_Partition_initSector
                0x340aab44                Fee_Partition_getId
                0x340aab4c                Fee_Partition_getSectorByPos
                0x340aab62                Fee_Partition_getNewestSector
                0x340aab66                Fee_Partition_getFillLevel
                0x340aabce                Fee_Partition_getConfiguredLinktableSize
                0x340aabd4                Fee_Partition_switchSectors
                0x340aabe4                Fee_Partition_isWriteable
                0x340aabf0                Fee_Partition_getFromConfigById
                0x340aabfc                Fee_Partition_requiresSectorSwitch
                0x340aac04                Fee_Partition_setBlockCopyRequired
                0x340aac0e                Fee_Partition_clearBlockCopyRequired
 .text          0x340aac18     0x20e0 obj/external/Components/Fee/Implementation/Fee_Processing.o
                0x340ab960                Fee_FsmIsSectorSwitchFsmRunning
                0x340ab96e                Fee_FsmReset
                0x340ab9d4                Fee_SignalNeedProcessing
                0x340acbdc                Fee_DoProcessing
 .text          0x340accf8      0x3cc obj/external/Components/Fee/Implementation/Fee_Sector.o
                0x340accf8                Fee_Sector_Init
                0x340acd18                Fee_Sector_assembleHeader
                0x340acd3c                Fee_Sector_updateFillLevel
                0x340acd74                Fee_Sector_confirmFillLevel
                0x340acda4                Fee_Sector_erase
                0x340acdb8                Fee_Sector_readDataWithBlankCheck
                0x340acdd2                Fee_Sector_readDataWithoutBlankCheck
                0x340acdec                Fee_Sector_readMngmtData
                0x340acdf4                Fee_Sector_free
                0x340ace20                Fee_Sector_currentLinktableEntryCount
                0x340ace28                Fee_Sector_getEraseValueU32
                0x340ace2e                Fee_Sector_getSize
                0x340ace34                Fee_Sector_getFillLevel
                0x340ace44                Fee_Sector_isUsable
                0x340ace52                Fee_Sector_allocSpace
                0x340aceb2                Fee_Sector_isDefective
                0x340acecc                Fee_Sector_isFillLevelKnown
                0x340aceea                Fee_Sector_AbsAddr2Offset
                0x340acef2                Fee_Sector_Offset2AbsAddr
                0x340acefa                Fee_Sector_containsAbsAddr
                0x340acf1a                Fee_Sector_markFull
                0x340acf4c                Fee_Sector_alignTo
                0x340acf5c                Fee_Sector_alignAddress
                0x340acf6c                Fee_Sector_alignWrite
                0x340acf7c                Fee_Sector_calcFirstFreeAddress
                0x340acfa6                Fee_Sector_evaluateHeaderData
                0x340ad03c                Fee_Sector_reset
                0x340ad06e                Fee_Sector_writeData
                0x340ad092                Fee_Sector_writeMngmtData
                0x340ad09a                Fee_Sector_isWholePageErased
 .text          0x340ad0c4      0x1b8 obj/external/Components/IpduM/Implementation/IpduM.o
                0x340ad0c4                IpduM_Init
                0x340ad0fc                IpduM_InitMemory
                0x340ad108                IpduM_MainFunctionTxInternal
                0x340ad178                IpduM_Transmit
                0x340ad1c0                IpduM_TriggerTransmit
                0x340ad208                IpduM_TxConfirmation
                0x340ad23c                IpduM_RxIndication
 .text          0x340ad27c      0xbd4 obj/external/Components/IpduM/Implementation/IpduM_Container.o
                0x340ad27c                IpduM_ContainerTx_TxConfBuffer_Clear
                0x340ad2a0                IpduM_Container_Init
                0x340ad2f8                IpduM_ContainerTx_Transmit
                0x340ad6e0                IpduM_ContainerTx_TriggerTransmit
                0x340ad924                IpduM_ContainerTx_TxConf_TxConfirmation
                0x340ad9a8                IpduM_ContainerRx_RxIndication
                0x340adab0                IpduM_CalculateSizeOfContainer
                0x340adb6c                IpduM_ContainerTx_MainFunction
 .text          0x340ade50        0x0 obj/external/Components/IpduM/Implementation/IpduM_Mux.o
 .text          0x340ade50      0x1f4 obj/external/Components/MemIf/Implementation/MemIf.o
                0x340ade5e                MemIf_Read
                0x340ade98                MemIf_Write
                0x340adecc                MemIf_InvalidateBlock
                0x340adf00                MemIf_EraseImmediateBlock
                0x340adf34                MemIf_Cancel
                0x340adf60                MemIf_GetStatus
                0x340adfe8                MemIf_GetJobResult
                0x340ae018                MemIf_SetMode
 .text          0x340ae044      0x3b8 obj/external/Components/Nm/Implementation/Nm.o
                0x340ae044                Nm_PreInit
                0x340ae070                Nm_PostInit
                0x340ae0b0                Nm_Init
                0x340ae0e0                Nm_InitMemory
                0x340ae0ec                Nm_PassiveStartUp
                0x340ae130                Nm_NetworkRequest
                0x340ae174                Nm_NetworkRelease
                0x340ae1b8                Nm_GetUserData
                0x340ae204                Nm_GetPduData
                0x340ae250                Nm_GetNodeIdentifier
                0x340ae29c                Nm_GetLocalNodeIdentifier
                0x340ae2e4                Nm_GetState
                0x340ae33c                Nm_NetworkStartIndication
                0x340ae364                Nm_NetworkMode
                0x340ae38c                Nm_BusSleepMode
                0x340ae3b4                Nm_PrepareBusSleepMode
                0x340ae3dc                Nm_TxTimeoutException
 .text          0x340ae3fc      0xdf8 obj/external/Components/NvM/Implementation/NvM.o
                0x340ae3fc                NvM_Init
                0x340ae440                NvM_SetDataIndex
                0x340ae534                NvM_GetDataIndex
                0x340ae5c0                NvM_SetBlockProtection
                0x340ae6e0                NvM_GetErrorStatus
                0x340ae7a0                NvM_SetRamBlockStatus
                0x340ae8bc                NvM_ReadBlock
                0x340ae9fc                NvM_WriteBlock
                0x340aeb58                NvM_RestoreBlockDefaults
                0x340aecbc                NvM_EraseNvBlock
                0x340aeddc                NvM_InvalidateNvBlock
                0x340aeee8                NvM_CancelJobs
                0x340aef34                NvM_ReadAll
                0x340aef88                NvM_KillReadAll
                0x340aefc8                NvM_WriteAll
                0x340af01c                NvM_CancelWriteAll
                0x340af050                NvM_KillWriteAll
                0x340af100                NvM_MainFunction
                0x340af160                NvM_SetBlockLockStatus
 .text          0x340af1f4      0xc08 obj/external/Components/NvM/Implementation/NvM_Act.o
                0x340af638                NvM_ActCopyRamDataToInternalBuffer
                0x340af660                NvM_ActSetReqOk
                0x340af6d4                NvM_ActExportDataIntegrityInformation
                0x340af9b4                NvM_ActFinishReadBlockAndSetSkipped
                0x340afaf8                NvM_ActSetupDataIntegrityGeneration
                0x340afb20                NvM_ActSetupDataIntegrityVerification_ReadBlock
                0x340afb48                NvM_ActSetupDataIntegrityVerification_ReadAll
                0x340afb80                NvM_ActProcessDataIntegrityJob
                0x340afb90                NvM_ActCancelNV
                0x340afc00                NvM_BlockNotification
 .text          0x340afdfc      0x1cc obj/external/Components/NvM/Implementation/NvM_Crc.o
                0x340afeb0                NvM_CrcJob_Create
                0x340afec8                NvM_CrcJob_CreateGenerateJob
                0x340afee4                NvM_CrcJob_CreateValidateJob
                0x340aff00                NvM_CrcJob_GetStatus
                0x340aff1c                NvM_CrcJob_Compare
                0x340aff30                NvM_CrcJob_CompareToExternal
                0x340aff40                NvM_CrcJob_CopyToBuffer
                0x340aff52                NvM_CrcJob_Process
                0x340affa0                NvM_CrcJob_ExportBufferedValue
                0x340affb6                NvM_CrcJob_ImportBufferedValue
 .text          0x340affc8       0xe0 obj/external/Components/NvM/Implementation/NvM_DataIntegrity.o
                0x340afff4                NvM_DataIntegrity_CreateGenerateJob
                0x340b0024                NvM_DataIntegrity_CreateValidateJob
                0x340b0054                NvM_DataIntegrity_Process
                0x340b005e                NvM_DataIntegrity_GetStatus
                0x340b0068                NvM_DataIntegrity_ExportDataIntegrityRecord
                0x340b0072                NvM_DataIntegrity_Compare
                0x340b007c                NvM_DataIntegrity_GetIntegrityCodeLength
 .text          0x340b00a8      0x118 obj/external/Components/NvM/Implementation/NvM_JobProc.o
                0x340b00e4                NvM_JobProcInit
                0x340b0118                NvM_Fsm
                0x340b01b8                NvM_IsBooleanBitfieldTrue
 .text          0x340b01c0        0x0 obj/external/Components/NvM/Implementation/NvM_Mac.o
 .text          0x340b01c0       0x4c obj/external/Components/NvM/Implementation/NvM_MemIfAbstraction.o
                0x340b01c0                NvM_MemIfAbstraction_Init
                0x340b01c2                NvM_MemIfAbstraction_Read
                0x340b01d4                NvM_MemIfAbstraction_Write
                0x340b01dc                NvM_MemIfAbstraction_EraseImmediateBlock
                0x340b01e4                NvM_MemIfAbstraction_InvalidateBlock
                0x340b01ec                NvM_MemIfAbstraction_Cancel
                0x340b01f4                NvM_MemIfAbstraction_SetMode
                0x340b01fc                NvM_MemIfAbstraction_GetStatus
                0x340b0204                NvM_MemIfAbstraction_GetJobResult
 .text          0x340b020c        0x0 obj/external/Components/NvM/Implementation/NvM_MemIfMemoryCore.o
 .text          0x340b020c      0x3e4 obj/external/Components/NvM/Implementation/NvM_Qry.o
                0x340b0378                NvM_QrySyncDecrypt
                0x340b03d0                NvM_QryReadAllKilled
                0x340b04d0                NvM_QryCalcRamBlockCrcEnabledAndRamValid
                0x340b05ac                NvM_QryIsInitCallbackConfigured
 .text          0x340b05f0      0x2c4 obj/external/Components/NvM/Implementation/NvM_Queue.o
                0x340b06cc                NvM_QueueInit
                0x340b0710                NvM_QueueJob
                0x340b07b0                NvM_UnQueueJob
                0x340b084c                NvM_QryNormalPrioJob
                0x340b085c                NvM_ActGetNormalPrioJob
 .text          0x340b08b4        0x0 obj/external/Components/Os/Implementation/Os_AccessCheck.o
 .text          0x340b08b4        0x0 obj/external/Components/Os/Implementation/Os_Alarm.o
 .text          0x340b08b4        0x0 obj/external/Components/Os/Implementation/Os_Application.o
 .text          0x340b08b4        0x0 obj/external/Components/Os/Implementation/Os_Barrier.o
 .text          0x340b08b4        0x0 obj/external/Components/Os/Implementation/Os_Bit.o
 .text          0x340b08b4        0x0 obj/external/Components/Os/Implementation/Os_BitArray.o
 .text          0x340b08b4        0x0 obj/external/Components/Os/Implementation/Os_Core.o
 .text          0x340b08b4        0x0 obj/external/Components/Os/Implementation/Os_Counter.o
 .text          0x340b08b4        0x0 obj/external/Components/Os/Implementation/Os_Deque.o
 .text          0x340b08b4        0x0 obj/external/Components/Os/Implementation/Os_Error.o
 .text          0x340b08b4        0x0 obj/external/Components/Os/Implementation/Os_Event.o
 .text          0x340b08b4        0x0 obj/external/Components/Os/Implementation/Os_Fifo.o
 .text          0x340b08b4        0x0 obj/external/Components/Os/Implementation/Os_Fifo08.o
 .text          0x340b08b4        0x0 obj/external/Components/Os/Implementation/Os_Fifo16.o
 .text          0x340b08b4        0x0 obj/external/Components/Os/Implementation/Os_Fifo32.o
 .text          0x340b08b4        0x0 obj/external/Components/Os/Implementation/Os_FifoRef.o
 .text          0x340b08b4        0x0 obj/external/Components/Os/Implementation/Os_Hal_Compiler_Arm.o
 .text          0x340b08b4        0x0 obj/external/Components/Os/Implementation/Os_Hal_Compiler_Iar.o
 .text          0x340b08b4        0x0 obj/external/Components/Os/Implementation/Os_Hal_Context.o
 .text          0x340b08b4        0x0 obj/external/Components/Os/Implementation/Os_Hal_Core.o
 .text          0x340b08b4        0x0 obj/external/Components/Os/Implementation/Os_Hal_Entry.o
 .text          0x340b08b4        0x0 obj/external/Components/Os/Implementation/Os_Hook.o
 .text          0x340b08b4        0x0 obj/external/Components/Os/Implementation/Os_Interrupt.o
 .text          0x340b08b4        0x0 obj/external/Components/Os/Implementation/Os_Ioc.o
 .text          0x340b08b4        0x0 obj/external/Components/Os/Implementation/Os_Isr.o
 .text          0x340b08b4        0x0 obj/external/Components/Os/Implementation/Os_Job.o
 .text          0x340b08b4        0x0 obj/external/Components/Os/Implementation/Os_Lock.o
 .text          0x340b08b4        0x0 obj/external/Components/Os/Implementation/Os_MemoryProtection.o
 .text          0x340b08b4        0x0 obj/external/Components/Os/Implementation/Os_Peripheral.o
 .text          0x340b08b4        0x0 obj/external/Components/Os/Implementation/Os_PriorityQueue.o
 .text          0x340b08b4        0x0 obj/external/Components/Os/Implementation/Os_Resource.o
 .text          0x340b08b4        0x0 obj/external/Components/Os/Implementation/Os_ScheduleTable.o
 .text          0x340b08b4        0x0 obj/external/Components/Os/Implementation/Os_Scheduler.o
 .text          0x340b08b4        0x0 obj/external/Components/Os/Implementation/Os_ServiceFunction.o
 .text          0x340b08b4        0x0 obj/external/Components/Os/Implementation/Os_Spinlock.o
 .text          0x340b08b4        0x0 obj/external/Components/Os/Implementation/Os_Stack.o
 .text          0x340b08b4        0x0 obj/external/Components/Os/Implementation/Os_Task.o
 .text          0x340b08b4        0x0 obj/external/Components/Os/Implementation/Os_Thread.o
 .text          0x340b08b4        0x0 obj/external/Components/Os/Implementation/Os_Timer.o
 .text          0x340b08b4        0x0 obj/external/Components/Os/Implementation/Os_TimingProtection.o
 .text          0x340b08b4        0x0 obj/external/Components/Os/Implementation/Os_Trace.o
 .text          0x340b08b4        0x0 obj/external/Components/Os/Implementation/Os_Trap.o
 .text          0x340b08b4        0x0 obj/external/Components/Os/Implementation/Os_XSignal.o
 .text          0x340b08b4      0x52c obj/external/Components/PduR/Implementation/PduR.o
                0x340b08b4                PduR_GetConfigurationId
                0x340b08dc                PduR_UpTransmit
                0x340b0944                PduR_LoIfRxIndication
                0x340b0988                PduR_LoIfTxConfirmation
                0x340b09e4                PduR_LoIfTriggerTransmit
                0x340b0a38                PduR_LoTpStartOfReception
                0x340b0abc                PduR_LoTpCopyRxData
                0x340b0b40                PduR_LoTpCopyTxData
                0x340b0b8c                PduR_LoTpRxIndication
                0x340b0c0c                PduR_LoTpTxConfirmation
                0x340b0c54                PduR_CancelTransmit
                0x340b0d44                PduR_PreInit
                0x340b0d78                PduR_Init
                0x340b0dbc                PduR_Rm_GetSrcDestPdu
                0x340b0dd4                PduR_InitMemory
 .text          0x340b0de0      0xc3c obj/external/Components/PduR/Implementation/PduR_Bm.o
                0x340b0de0                PduR_Bm_EnableBmTxBufferInstance
                0x340b0e14                PduR_Bm_GetPduRBufferStateOfBmTxBufferInstanceRam
                0x340b0e64                PduR_Bm_ResetTxBuffer
                0x340b0e88                PduR_Bm_ResetTxBufferInstance
                0x340b0e98                PduR_Bm_Init
                0x340b0ec2                PduR_Bm_GetLinearDataSizeInstance
                0x340b0f38                PduR_Bm_GetTotalDataSizeInstance
                0x340b0fac                PduR_Bm_GetData
                0x340b1234                PduR_Bm_GetPduRBufferStateOfBmTxBufferRam
                0x340b12cc                PduR_Bm_GetTotalBufferSize
                0x340b13ac                PduR_Bm_PutData
                0x340b1844                PduR_Bm_PutDataAsPtr
                0x340b192c                PduR_Bm_AllocateTxBuffer
                0x340b19d8                PduR_Bm_CopyDataAsPtr
                0x340b1a0c                PduR_Bm_GetActualPduLengthToBeRouted
 .text          0x340b1a1c      0x3e0 obj/external/Components/PduR/Implementation/PduR_Fm.o
                0x340b1a1c                PduR_Fm_Init
                0x340b1a78                PduR_Fm_AssignTxBuffer2FifoElement
                0x340b1a84                PduR_Fm_GetCurrentlyUsedBmTxBufferRomIdxByFmFifoElementIdx
                0x340b1a9c                PduR_Fm_IsFifoElementAllocated
                0x340b1aae                PduR_Fm_ReleaseFifoElement
                0x340b1ae4                PduR_Fm_GetCurrentlyUsedBmTxBufferInstanceIdxByRmGDestIdx
                0x340b1b0c                PduR_Fm_GetFillLevel
                0x340b1b2c                PduR_Fm_FlushFiFo
                0x340b1bac                PduR_Fm_GetFmFifoElementRamReadIdxOfFmFifoRamSafe
                0x340b1bc0                PduR_Fm_IncrementReadIndex
                0x340b1c00                PduR_Fm_RemoveElement
                0x340b1c48                PduR_Fm_GetFmFifoElementRamWriteIdxSafe
                0x340b1c5c                PduR_Fm_IncrementWriteIndex
                0x340b1c94                PduR_Fm_PutFifo
                0x340b1d54                PduR_Fm_GetRmDestRomIdxOfFmFifoElementRamSafe
                0x340b1d68                PduR_Fm_GetNextElement
 .text          0x340b1dfc        0x0 obj/external/Components/PduR/Implementation/PduR_IFQ.o
 .text          0x340b1dfc      0x10c obj/external/Components/PduR/Implementation/PduR_Lock.o
                0x340b1dfc                PduR_Lock_LockRoutingPathBySrcPdu
                0x340b1e20                PduR_Lock_UnlockRoutingPathBySrcPdu
                0x340b1e48                PduR_Lock_LockRoutingPathByDestPdu
                0x340b1e7c                PduR_Lock_UnlockRoutingPathByDestPdu
                0x340b1eb4                PduR_Lock_LockRoutingPathByGDestPdu
                0x340b1edc                PduR_Lock_UnlockRoutingPathByGDestPdu
 .text          0x340b1f08        0x0 obj/external/Components/PduR/Implementation/PduR_McQ.o
 .text          0x340b1f08      0x6d0 obj/external/Components/PduR/Implementation/PduR_RmIf.o
                0x340b1f08                PduR_RmIf_InitDestPduState
                0x340b1f20                PduR_RmIf_MultipleSourceHandler_TriggerTransmit
                0x340b2020                PduR_RmIf_MultipleSourceHandler_CancelTransmit
                0x340b2068                PduR_RmIf_DispatchDestPdu
                0x340b23d8                PduR_RmIf_ProcessDestPdu
                0x340b23f4                PduR_RmIf_RoutePdu
                0x340b2424                PduR_RmIf_TxConfirmation_StateHandler_RM_TX_ACTIVE
                0x340b24e0                PduR_RmIf_TxConfirmation_StateHandler_RM_TX_IDLE
                0x340b2524                PduR_RmIf_MultipleSourceHandler_TxConfirmation
 .text          0x340b25d8      0x1c0 obj/external/Components/PduR/Implementation/PduR_RmTp.o
                0x340b25d8                PduR_RmTp_MultipleSourceHandler_TpTxConfirmation
                0x340b2644                PduR_RmTp_MultipleSourceHandler_CopyTxData
                0x340b26c0                PduR_RmTp_MultipleSourceHandler_CancelTransmit
                0x340b2708                PduR_RmTp_Transmit_MultiDest
 .text          0x340b2798        0x0 obj/external/Components/PduR/Implementation/PduR_RmTp_TxInst.o
 .text          0x340b2798        0x0 obj/external/Components/PduR/Implementation/PduR_Sm.o
 .text          0x340b2798     0x1968 obj/external/Components/VStdLib/Implementation/vstdlib.o
                0x340b2a34                VStdLib_MemSet
                0x340b2b40                VStdLib_MemCpy
                0x340b2cba                VStdLib_MemCpy16
                0x340b2cd6                VStdLib_MemCpy32
                0x340b2cf2                VStdLib_MemCpy_s
                0x340b2d06                VStdLib_MemCmp
                0x340b2e90                VStdLib_MemCpySwapEndian
                0x340b36f4                VStdLib_MemCpySwapEndian_s
                0x340b3714                VStdLib_MemCheck
                0x340b37ce                VStdLib_GetHighestBitPosOne8
                0x340b37f0                VStdLib_GetHighestBitPosZero8
                0x340b3814                VStdLib_GetLowestBitPosOne8
                0x340b3838                VStdLib_GetLowestBitPosZero8
                0x340b3860                VStdLib_GetCountLeadingOnes8
                0x340b388c                VStdLib_GetCountLeadingZeros8
                0x340b38b4                VStdLib_GetCountTrailingOnes8
                0x340b38dc                VStdLib_GetCountTrailingZeros8
                0x340b3900                VStdLib_GetHighestBitPosOne16
                0x340b3934                VStdLib_GetHighestBitPosZero16
                0x340b3970                VStdLib_GetLowestBitPosOne16
                0x340b39a8                VStdLib_GetLowestBitPosZero16
                0x340b39e8                VStdLib_GetCountLeadingOnes16
                0x340b3a2c                VStdLib_GetCountLeadingZeros16
                0x340b3a68                VStdLib_GetCountTrailingOnes16
                0x340b3aa8                VStdLib_GetCountTrailingZeros16
                0x340b3ae0                VStdLib_GetHighestBitPosOne32
                0x340b3b30                VStdLib_GetHighestBitPosZero32
                0x340b3b84                VStdLib_GetLowestBitPosOne32
                0x340b3bd0                VStdLib_GetLowestBitPosZero32
                0x340b3c24                VStdLib_GetCountLeadingOnes32
                0x340b3c80                VStdLib_GetCountLeadingZeros32
                0x340b3cd8                VStdLib_GetCountTrailingOnes32
                0x340b3d2c                VStdLib_GetCountTrailingZeros32
                0x340b3d78                VStdLib_GetHighestBitPosOne64
                0x340b3de4                VStdLib_GetHighestBitPosZero64
                0x340b3e58                VStdLib_GetLowestBitPosOne64
                0x340b3ec4                VStdLib_GetLowestBitPosZero64
                0x340b3f38                VStdLib_GetCountLeadingOnes64
                0x340b3fb0                VStdLib_GetCountLeadingZeros64
                0x340b4020                VStdLib_GetCountTrailingOnes64
                0x340b4094                VStdLib_GetCountTrailingZeros64
 .text          0x340b4100     0x1324 obj/external/Components/Xcp/Implementation/Xcp.o
                0x340b4a74                Xcp_InitMemory
                0x340b4a80                Xcp_SetActiveTl
                0x340b4b28                Xcp_Init
                0x340b4b9c                Xcp_GetActiveTl
                0x340b4bc4                Xcp_TlQueryMessagePending
                0x340b4c18                Xcp_Disconnect
                0x340b4cb2                Xcp_DaqSetComplementaryChannel
                0x340b4ce0                Xcp_StimEventStatus
                0x340b4db8                Xcp_DaqConfigInit
                0x340b4dd2                Xcp_EventEx
                0x340b50b8                Xcp_Event
                0x340b50c8                Xcp_SendCrm
                0x340b5164                Xcp_TlRxIndication
                0x340b5238                Xcp_TlTxConfirmation
                0x340b531c                Xcp_SetStimMode
                0x340b5348                Xcp_TlMainFunction
                0x340b540c                Xcp_MainFunction
 .text          0x340b5424        0x0 obj/external/ThirdParty/Mcal_S32x/Supply/SW32G_RTD_4.4_3.0.4/eclipse/plugins/Base_TS_T40D11M30I4R0/src/OsIf_Interrupts.o
 .text          0x340b5424       0x18 obj/external/ThirdParty/Mcal_S32x/Supply/SW32G_RTD_4.4_3.0.4/eclipse/plugins/Base_TS_T40D11M30I4R0/src/OsIf_Timer.o
                0x340b5424                OsIf_Init
                0x340b5426                OsIf_GetCounter
                0x340b542a                OsIf_GetElapsed
                0x340b5434                OsIf_SetTimerFrequency
                0x340b5436                OsIf_MicrosToTicks
 .text          0x340b543c        0x0 obj/external/ThirdParty/Mcal_S32x/Supply/SW32G_RTD_4.4_3.0.4/eclipse/plugins/Base_TS_T40D11M30I4R0/src/OsIf_Timer_System.o
 .text          0x340b543c        0x0 obj/external/ThirdParty/Mcal_S32x/Supply/SW32G_RTD_4.4_3.0.4/eclipse/plugins/Base_TS_T40D11M30I4R0/src/OsIf_Timer_System_Internal_Systick.o
 .text          0x340b543c       0x30 obj/external/ThirdParty/Mcal_S32x/Supply/SW32G_RTD_4.4_3.0.4/eclipse/plugins/Dio_TS_T40D11M30I4R0/src/Dio.o
                0x340b543c                Dio_ReadChannel
                0x340b5444                Dio_WriteChannel
                0x340b544c                Dio_ReadPort
                0x340b5454                Dio_WritePort
                0x340b545c                Dio_ReadChannelGroup
                0x340b5464                Dio_WriteChannelGroup
 .text          0x340b546c      0x16c obj/external/ThirdParty/Mcal_S32x/Supply/SW32G_RTD_4.4_3.0.4/eclipse/plugins/Dio_TS_T40D11M30I4R0/src/Dio_Ipw.o
                0x340b54a8                Dio_Ipw_ReadChannel
                0x340b54c0                Dio_Ipw_WriteChannel
                0x340b54e4                Dio_Ipw_ReadPort
                0x340b5520                Dio_Ipw_WritePort
                0x340b555c                Dio_Ipw_ReadChannelGroup
                0x340b55b0                Dio_Ipw_WriteChannelGroup
 .text          0x340b55d8      0x238 obj/external/ThirdParty/Mcal_S32x/Supply/SW32G_RTD_4.4_3.0.4/eclipse/plugins/Dio_TS_T40D11M30I4R0/src/Siul2_Dio_Ip.o
                0x340b55d8                Siul2_Dio_Ip_WritePin
                0x340b5604                Siul2_Dio_Ip_WritePins
                0x340b5638                Siul2_Dio_Ip_GetPinsOutput
                0x340b566e                Siul2_Dio_Ip_SetPins
                0x340b56a6                Siul2_Dio_Ip_ClearPins
                0x340b56e0                Siul2_Dio_Ip_TogglePins
                0x340b5718                Siul2_Dio_Ip_ReadPins
                0x340b5750                Siul2_Dio_Ip_ReadPin
                0x340b5792                Siul2_Dio_Ip_MaskedWritePins
 .text          0x340b5810      0xfc8 obj/external/ThirdParty/Mcal_S32x/Supply/SW32G_RTD_4.4_3.0.4/eclipse/plugins/Fls_TS_T40D11M30I4R0/src/Fls.o
                0x340b62b0                Fls_Init
                0x340b635c                Fls_Erase
                0x340b6428                Fls_Write
                0x340b650c                Fls_Cancel
                0x340b6558                Fls_GetStatus
                0x340b6578                Fls_GetJobResult
                0x340b65a0                Fls_Read
                0x340b6634                Fls_Compare
                0x340b66cc                Fls_SetMode
                0x340b672c                Fls_GetVersionInfo
                0x340b6754                Fls_MainFunction
 .text          0x340b67d8      0x5d0 obj/external/ThirdParty/Mcal_S32x/Supply/SW32G_RTD_4.4_3.0.4/eclipse/plugins/Fls_TS_T40D11M30I4R0/src/Fls_IPW.o
                0x340b6a6c                Fls_IPW_Init
                0x340b6aa8                Fls_IPW_AbortSuspended
                0x340b6b74                Fls_IPW_Cancel
                0x340b6ba4                Fls_IPW_LLDMainFunction
                0x340b6c20                Fls_IPW_SectorRead
                0x340b6c70                Fls_IPW_SectorErase
                0x340b6ce0                Fls_IPW_SectorWrite
 .text          0x340b6da8      0xf08 obj/external/ThirdParty/Mcal_S32x/Supply/SW32G_RTD_4.4_3.0.4/eclipse/plugins/Fls_TS_T40D11M30I4R0/src/Qspi_Ip.o
                0x340b6f0c                Qspi_Ip_RunCommand
                0x340b6f68                Qspi_Ip_RunReadCommand
                0x340b71d4                Qspi_Ip_RunWriteCommand
                0x340b7448                Qspi_Ip_EraseBlock
                0x340b74e0                Qspi_Ip_EraseChip
                0x340b752c                Qspi_Ip_ProgramSuspend
                0x340b7550                Qspi_Ip_ProgramResume
                0x340b7574                Qspi_Ip_EraseSuspend
                0x340b7594                Qspi_Ip_EraseResume
                0x340b75b4                Qspi_Ip_Reset
                0x340b763c                Qspi_Ip_GetMemoryStatus
                0x340b76c8                Qspi_Ip_Read
                0x340b77c8                Qspi_Ip_ReadId
                0x340b77fc                Qspi_Ip_ProgramVerify
                0x340b78dc                Qspi_Ip_EraseVerify
                0x340b79a0                Qspi_Ip_Program
                0x340b7a5c                Qspi_Ip_Enter0XX
                0x340b7aa4                Qspi_Ip_Exit0XX
                0x340b7af0                Qspi_Ip_SetProtection
                0x340b7b18                Qspi_Ip_GetProtection
                0x340b7b9c                Qspi_Ip_AhbReadEnable
                0x340b7bd4                Qspi_Ip_Init
                0x340b7c88                Qspi_Ip_Deinit
 .text          0x340b7cb0      0xd64 obj/external/ThirdParty/Mcal_S32x/Supply/SW32G_RTD_4.4_3.0.4/eclipse/plugins/Fls_TS_T40D11M30I4R0/src/Qspi_Ip_Controller.o
                0x340b8324                Qspi_Ip_SetLut
                0x340b8344                Qspi_Ip_SetAhbSeqId
                0x340b8358                Qspi_Ip_ControllerInit
                0x340b85fc                Qspi_Ip_ControllerDeinit
                0x340b8614                Qspi_Ip_GetBaseAdress
                0x340b8648                Qspi_Ip_IpRead
                0x340b88a8                Qspi_Ip_IpWrite
                0x340b895c                Qspi_Ip_ControllerGetStatus
                0x340b8998                Qspi_Ip_IpCommand
 .text          0x340b8a14     0x2c00 obj/external/ThirdParty/Mcal_S32x/Supply/SW32G_RTD_4.4_3.0.4/eclipse/plugins/Fls_TS_T40D11M30I4R0/src/Qspi_Ip_Sfdp.o
                0x340bb578                Qspi_Ip_ReadSfdp
 .text          0x340bb614       0x2c obj/external/ThirdParty/Mcal_S32x/Supply/SW32G_RTD_4.4_3.0.4/eclipse/plugins/Mcl_TS_T40D11M30I4R0/src/CDD_Mcl.o
                0x340bb614                Mcl_Init
                0x340bb62c                Mcl_DeInit
 .text          0x340bb640        0x0 obj/external/ThirdParty/Mcal_S32x/Supply/SW32G_RTD_4.4_3.0.4/eclipse/plugins/Mcl_TS_T40D11M30I4R0/src/Dma_Ip.o
 .text          0x340bb640        0x0 obj/external/ThirdParty/Mcal_S32x/Supply/SW32G_RTD_4.4_3.0.4/eclipse/plugins/Mcl_TS_T40D11M30I4R0/src/Dma_Ip_Driver_State.o
 .text          0x340bb640        0x0 obj/external/ThirdParty/Mcal_S32x/Supply/SW32G_RTD_4.4_3.0.4/eclipse/plugins/Mcl_TS_T40D11M30I4R0/src/Dma_Ip_Hw_Access.o
 .text          0x340bb640        0x0 obj/external/ThirdParty/Mcal_S32x/Supply/SW32G_RTD_4.4_3.0.4/eclipse/plugins/Mcl_TS_T40D11M30I4R0/src/Dma_Ip_Irq.o
 .text          0x340bb640        0x0 obj/external/ThirdParty/Mcal_S32x/Supply/SW32G_RTD_4.4_3.0.4/eclipse/plugins/Mcl_TS_T40D11M30I4R0/src/Dma_Ip_Multicore.o
 .text          0x340bb640        0x0 obj/external/ThirdParty/Mcal_S32x/Supply/SW32G_RTD_4.4_3.0.4/eclipse/plugins/Mcl_TS_T40D11M30I4R0/src/Ftm_Mcl_Ip.o
 .text          0x340bb640      0x930 obj/external/ThirdParty/Mcal_S32x/Supply/SW32G_RTD_4.4_3.0.4/eclipse/plugins/Mcu_TS_T40D11M30I4R0/src/Clock_Ip.o
                0x340bb814                Clock_Ip_InitClock
                0x340bbc4c                Clock_Ip_GetPllStatus
                0x340bbcdc                Clock_Ip_DistributePll
                0x340bbddc                Clock_Ip_Init
                0x340bbe04                Clock_Ip_DisableClockMonitor
                0x340bbe30                Clock_Ip_GetClockMonitorStatus
                0x340bbe5c                Clock_Ip_ClearClockMonitorStatus
                0x340bbe88                Clock_Ip_InstallNotificationsCallback
                0x340bbe94                Clock_Ip_DisableModuleClock
                0x340bbec0                Clock_Ip_EnableModuleClock
                0x340bbeec                Clock_Ip_ReportClockErrors
                0x340bbefc                Clock_Ip_StartTimeout
                0x340bbf1c                Clock_Ip_TimeoutExpired
                0x340bbf3a                Clock_Ip_GetConfiguredFrequencyValue
 .text          0x340bbf70        0x0 obj/external/ThirdParty/Mcal_S32x/Supply/SW32G_RTD_4.4_3.0.4/eclipse/plugins/Mcu_TS_T40D11M30I4R0/src/Clock_Ip_Data.o
 .text          0x340bbf70        0x0 obj/external/ThirdParty/Mcal_S32x/Supply/SW32G_RTD_4.4_3.0.4/eclipse/plugins/Mcu_TS_T40D11M30I4R0/src/Clock_Ip_Data1.o
 .text          0x340bbf70        0x0 obj/external/ThirdParty/Mcal_S32x/Supply/SW32G_RTD_4.4_3.0.4/eclipse/plugins/Mcu_TS_T40D11M30I4R0/src/Clock_Ip_Data2.o
 .text          0x340bbf70      0x1b0 obj/external/ThirdParty/Mcal_S32x/Supply/SW32G_RTD_4.4_3.0.4/eclipse/plugins/Mcu_TS_T40D11M30I4R0/src/Clock_Ip_Divider.o
 .text          0x340bc120        0x2 obj/external/ThirdParty/Mcal_S32x/Supply/SW32G_RTD_4.4_3.0.4/eclipse/plugins/Mcu_TS_T40D11M30I4R0/src/Clock_Ip_DividerTrigger.o
 *fill*         0x340bc122        0x2 
 .text          0x340bc124      0x124 obj/external/ThirdParty/Mcal_S32x/Supply/SW32G_RTD_4.4_3.0.4/eclipse/plugins/Mcu_TS_T40D11M30I4R0/src/Clock_Ip_ExtOsc.o
 .text          0x340bc248       0xf0 obj/external/ThirdParty/Mcal_S32x/Supply/SW32G_RTD_4.4_3.0.4/eclipse/plugins/Mcu_TS_T40D11M30I4R0/src/Clock_Ip_FracDiv.o
 .text          0x340bc338        0x0 obj/external/ThirdParty/Mcal_S32x/Supply/SW32G_RTD_4.4_3.0.4/eclipse/plugins/Mcu_TS_T40D11M30I4R0/src/Clock_Ip_Frequency.o
 .text          0x340bc338        0x0 obj/external/ThirdParty/Mcal_S32x/Supply/SW32G_RTD_4.4_3.0.4/eclipse/plugins/Mcu_TS_T40D11M30I4R0/src/Clock_Ip_Frequency1.o
 .text          0x340bc338        0x0 obj/external/ThirdParty/Mcal_S32x/Supply/SW32G_RTD_4.4_3.0.4/eclipse/plugins/Mcu_TS_T40D11M30I4R0/src/Clock_Ip_Frequency2.o
 .text          0x340bc338      0x13c obj/external/ThirdParty/Mcal_S32x/Supply/SW32G_RTD_4.4_3.0.4/eclipse/plugins/Mcu_TS_T40D11M30I4R0/src/Clock_Ip_Gate.o
 .text          0x340bc474        0x4 obj/external/ThirdParty/Mcal_S32x/Supply/SW32G_RTD_4.4_3.0.4/eclipse/plugins/Mcu_TS_T40D11M30I4R0/src/Clock_Ip_IntOsc.o
 .text          0x340bc478        0x8 obj/external/ThirdParty/Mcal_S32x/Supply/SW32G_RTD_4.4_3.0.4/eclipse/plugins/Mcu_TS_T40D11M30I4R0/src/Clock_Ip_Irq.o
                0x340bc478                Os_Isr_Mcu_Cmu_ClockFail_IRQHandler
 .text          0x340bc480      0x344 obj/external/ThirdParty/Mcal_S32x/Supply/SW32G_RTD_4.4_3.0.4/eclipse/plugins/Mcu_TS_T40D11M30I4R0/src/Clock_Ip_Monitor.o
                0x340bc728                Clock_Ip_CMU_GetInterruptStatus
                0x340bc73c                Clock_Ip_CMU_ClockFailInt
 .text          0x340bc7c4      0x23c obj/external/ThirdParty/Mcal_S32x/Supply/SW32G_RTD_4.4_3.0.4/eclipse/plugins/Mcu_TS_T40D11M30I4R0/src/Clock_Ip_Pll.o
 .text          0x340bca00      0x150 obj/external/ThirdParty/Mcal_S32x/Supply/SW32G_RTD_4.4_3.0.4/eclipse/plugins/Mcu_TS_T40D11M30I4R0/src/Clock_Ip_ProgFreqSwitch.o
 .text          0x340bcb50      0x3fc obj/external/ThirdParty/Mcal_S32x/Supply/SW32G_RTD_4.4_3.0.4/eclipse/plugins/Mcu_TS_T40D11M30I4R0/src/Clock_Ip_Selector.o
                0x340bcedc                Clock_Ip_ConfigureResetGenCtrl1
                0x340bcef8                Clock_Ip_ConfigureSetGenCtrl1
                0x340bcf20                Clock_Ip_SetRtcRtccClksel_TrustedCall
 .text          0x340bcf4c      0x1d8 obj/external/ThirdParty/Mcal_S32x/Supply/SW32G_RTD_4.4_3.0.4/eclipse/plugins/Mcu_TS_T40D11M30I4R0/src/Clock_Ip_Specific.o
                0x340bcf4c                Clock_Ip_McMeEnterKey
                0x340bcf60                Clock_Ip_SpecificPeripheralClockInitialization
                0x340bcf62                Clock_Ip_SpecificPlatformInitClock
                0x340bd0bc                Clock_Ip_ClockInitializeObjects
                0x340bd0be                Clock_Ip_ClockPowerModeChangeNotification
                0x340bd0c0                SRAMC_SetRamIWS
                0x340bd11c                Clock_Ip_SetRamWaitStates
 .text          0x340bd124        0x0 obj/external/ThirdParty/Mcal_S32x/Supply/SW32G_RTD_4.4_3.0.4/eclipse/plugins/Mcu_TS_T40D11M30I4R0/src/Clock_Ip_Specific1.o
 .text          0x340bd124        0x0 obj/external/ThirdParty/Mcal_S32x/Supply/SW32G_RTD_4.4_3.0.4/eclipse/plugins/Mcu_TS_T40D11M30I4R0/src/Clock_Ip_Specific2.o
 .text          0x340bd124       0xc8 obj/external/ThirdParty/Mcal_S32x/Supply/SW32G_RTD_4.4_3.0.4/eclipse/plugins/Mcu_TS_T40D11M30I4R0/src/Mcu.o
                0x340bd124                Mcu_Init
                0x340bd170                Mcu_InitRamSection
                0x340bd174                Mcu_InitClock
                0x340bd198                Mcu_SetMode
                0x340bd1c0                Mcu_DistributePllClock
                0x340bd1ca                Mcu_GetPllStatus
                0x340bd1d2                Mcu_GetResetReason
                0x340bd1da                Mcu_GetResetRawValue
                0x340bd1e2                Mcu_SleepOnExit
 .text          0x340bd1ec        0x0 obj/external/ThirdParty/Mcal_S32x/Supply/SW32G_RTD_4.4_3.0.4/eclipse/plugins/Mcu_TS_T40D11M30I4R0/src/Mcu_Dem_Wrapper.o
 .text          0x340bd1ec       0x68 obj/external/ThirdParty/Mcal_S32x/Supply/SW32G_RTD_4.4_3.0.4/eclipse/plugins/Mcu_TS_T40D11M30I4R0/src/Mcu_Ipw.o
                0x340bd1ec                ClockNotificationsCallback
                0x340bd1ee                Mcu_Ipw_Init
                0x340bd204                Mcu_Ipw_InitClock
                0x340bd20c                Mcu_Ipw_DistributePllClock
                0x340bd214                Mcu_Ipw_GetPllStatus
                0x340bd22c                Mcu_Ipw_SetMode
                0x340bd234                Mcu_Ipw_GetResetReason
                0x340bd23c                Mcu_Ipw_GetResetRawValue
                0x340bd244                Mcu_Ipw_SleepOnExit
 .text          0x340bd254       0x9c obj/external/ThirdParty/Mcal_S32x/Supply/SW32G_RTD_4.4_3.0.4/eclipse/plugins/Mcu_TS_T40D11M30I4R0/src/Power_Ip.o
                0x340bd29c                Power_Ip_SetMode
                0x340bd2c4                Power_Ip_GetResetReason
                0x340bd2cc                Power_Ip_GetResetRawValue
                0x340bd2d4                Power_Ip_Init
                0x340bd2e6                Power_Ip_InstallNotificationsCallback
 .text          0x340bd2f0        0x0 obj/external/ThirdParty/Mcal_S32x/Supply/SW32G_RTD_4.4_3.0.4/eclipse/plugins/Mcu_TS_T40D11M30I4R0/src/Power_Ip_CortexA.o
 .text          0x340bd2f0       0x64 obj/external/ThirdParty/Mcal_S32x/Supply/SW32G_RTD_4.4_3.0.4/eclipse/plugins/Mcu_TS_T40D11M30I4R0/src/Power_Ip_CortexM7.o
                0x340bd2f0                Power_Ip_CM7_DisableSleepOnExit
                0x340bd302                Power_Ip_CM7_EnableSleepOnExit
                0x340bd314                Power_Ip_CortexM_WarmReset
                0x340bd330                Power_Ip_CM7_DisableDeepSleep
                0x340bd342                Power_Ip_CM7_EnableDeepSleep
 .text          0x340bd354      0x500 obj/external/ThirdParty/Mcal_S32x/Supply/SW32G_RTD_4.4_3.0.4/eclipse/plugins/Mcu_TS_T40D11M30I4R0/src/Power_Ip_MC_ME.o
                0x340bd644                Power_Ip_MC_ME_ConfigCoreCOFBClock
                0x340bd746                Power_Ip_MC_ME_EnablePartitionClock
                0x340bd77e                Power_Ip_MC_ME_DisablePartitionClock
                0x340bd7b6                Power_Ip_MC_ME_EnablePartitionOutputSafe
                0x340bd7ee                Power_Ip_MC_ME_DisablePartitionOutputSafe
                0x340bd826                Power_Ip_MC_ME_SocTriggerResetEvent
 .text          0x340bd854      0x5b0 obj/external/ThirdParty/Mcal_S32x/Supply/SW32G_RTD_4.4_3.0.4/eclipse/plugins/Mcu_TS_T40D11M30I4R0/src/Power_Ip_MC_RGM.o
                0x340bdacc                Power_Ip_MC_RGM_ResetInit
                0x340bdb08                Power_Ip_MC_RGM_ModeConfig
                0x340bdbb8                Power_Ip_MC_RGM_CheckModeConfig
                0x340bdc68                Power_Ip_MC_RGM_EnableResetDomain
                0x340bdcb4                Power_Ip_MC_RGM_DisableResetDomain
                0x340bdcf8                Power_Ip_MC_RGM_GetResetReason
                0x340bdd64                Power_Ip_MC_RGM_GetResetRawValue
 .text          0x340bde04        0x0 obj/external/ThirdParty/Mcal_S32x/Supply/SW32G_RTD_4.4_3.0.4/eclipse/plugins/Mcu_TS_T40D11M30I4R0/src/Power_Ip_MC_RGM_Irq.o
 .text          0x340bde04       0x24 obj/external/ThirdParty/Mcal_S32x/Supply/SW32G_RTD_4.4_3.0.4/eclipse/plugins/Mcu_TS_T40D11M30I4R0/src/Power_Ip_MSCM.o
                0x340bde04                Power_Ip_MSCM_GetPersonality
 .text          0x340bde28        0xc obj/external/ThirdParty/Mcal_S32x/Supply/SW32G_RTD_4.4_3.0.4/eclipse/plugins/Mcu_TS_T40D11M30I4R0/src/Power_Ip_PMC.o
                0x340bde28                Power_Ip_PMC_PowerInit
 .text          0x340bde34       0x50 obj/external/ThirdParty/Mcal_S32x/Supply/SW32G_RTD_4.4_3.0.4/eclipse/plugins/Mcu_TS_T40D11M30I4R0/src/Power_Ip_Private.o
                0x340bde34                Power_Ip_ReportPowerErrors
                0x340bde44                Power_Ip_ReportPowerErrorsEmptyCallback
                0x340bde46                Power_Ip_StartTimeout
                0x340bde66                Power_Ip_TimeoutExpired
 .text          0x340bde84      0x120 obj/external/ThirdParty/Mcal_S32x/Supply/SW32G_RTD_4.4_3.0.4/eclipse/plugins/Mcu_TS_T40D11M30I4R0/src/Ram_Ip.o
                0x340bde84                Ram_Ip_InitRamSection
 .text          0x340bdfa4      0x100 obj/external/ThirdParty/Mcal_S32x/Supply/SW32G_RTD_4.4_3.0.4/eclipse/plugins/Port_TS_T40D11M30I4R0/src/Port.o
                0x340bdfa4                Port_Init
                0x340bdfdc                Port_SetPinDirection
                0x340be010                Port_SetPinMode
                0x340be044                Port_RefreshPortDirection
                0x340be07c                Port_GetVersionInfo
 .text          0x340be0a4      0x508 obj/external/ThirdParty/Mcal_S32x/Supply/SW32G_RTD_4.4_3.0.4/eclipse/plugins/Port_TS_T40D11M30I4R0/src/Port_Ipw.o
                0x340be0e4                Port_Ipw_Init
                0x340be1bc                Port_Ipw_SetPinDirection
                0x340be270                Port_Ipw_SetGpioDirChangeability
                0x340be2c4                Port_Ipw_SetGpioPadOutput
                0x340be2f4                Port_Ipw_SetPinMode
                0x340be548                Port_Ipw_RefreshPortDirection
 .text          0x340be5ac      0x3bc obj/external/ThirdParty/Mcal_S32x/Supply/SW32G_RTD_4.4_3.0.4/eclipse/plugins/Port_TS_T40D11M30I4R0/src/Siul2_Port_Ip.o
                0x340be698                Siul2_Port_Ip_Init
                0x340be6c8                Siul2_Port_Ip_SetPullSel
                0x340be712                Siul2_Port_Ip_SetOutputBuffer
                0x340be760                Siul2_Port_Ip_SetInputBuffer
                0x340be7dc                Siul2_Port_Ip_SetPinDirection
                0x340be848                Siul2_Port_Ip_RevertPinConfiguration
                0x340be8ac                Siul2_Port_Ip_GetPinConfiguration
 .text          0x340be968      0x6f0 obj/external/ap-cp-gateway/Appl/GenData/BswM_Lcfg.o
 .text          0x340bf058        0x0 obj/external/ap-cp-gateway/Appl/GenData/CanIf_Lcfg.o
 .text          0x340bf058        0x0 obj/external/ap-cp-gateway/Appl/GenData/CanIf_PBcfg.o
 .text          0x340bf058        0x0 obj/external/ap-cp-gateway/Appl/GenData/CanNm_Cfg.o
 .text          0x340bf058        0x0 obj/external/ap-cp-gateway/Appl/GenData/CanNm_Lcfg.o
 .text          0x340bf058        0x0 obj/external/ap-cp-gateway/Appl/GenData/CanNm_PBcfg.o
 .text          0x340bf058        0x0 obj/external/ap-cp-gateway/Appl/GenData/CanSM_Lcfg.o
 .text          0x340bf058        0x0 obj/external/ap-cp-gateway/Appl/GenData/CanTp_Lcfg.o
 .text          0x340bf058        0x0 obj/external/ap-cp-gateway/Appl/GenData/CanTp_PBcfg.o
 .text          0x340bf058        0x0 obj/external/ap-cp-gateway/Appl/GenData/CanXcp_Lcfg.o
 .text          0x340bf058        0x0 obj/external/ap-cp-gateway/Appl/GenData/CanXcp_PBcfg.o
 .text          0x340bf058        0x0 obj/external/ap-cp-gateway/Appl/GenData/Can_30_Flexcan4_Lcfg.o
 .text          0x340bf058        0x0 obj/external/ap-cp-gateway/Appl/GenData/Can_30_Flexcan4_PBcfg.o
 .text          0x340bf058        0xa obj/external/ap-cp-gateway/Appl/GenData/ComM_Lcfg.o
                0x340bf058                ComM_MainFunction_0
 .text          0x340bf062       0x14 obj/external/ap-cp-gateway/Appl/GenData/Com_Lcfg.o
                0x340bf062                Com_MainFunctionRx_ComMainFunctionRx
                0x340bf06c                Com_MainFunctionTx_ComMainFunctionTx
 .text          0x340bf076        0x0 obj/external/ap-cp-gateway/Appl/GenData/Com_PBcfg.o
 .text          0x340bf076      0x2b6 obj/external/ap-cp-gateway/Appl/GenData/Dcm_Lcfg.o
 .text          0x340bf32c        0x0 obj/external/ap-cp-gateway/Appl/GenData/Dcm_PBcfg.o
 .text          0x340bf32c        0x0 obj/external/ap-cp-gateway/Appl/GenData/Dem_Lcfg.o
 .text          0x340bf32c        0x0 obj/external/ap-cp-gateway/Appl/GenData/Dem_PBcfg.o
 .text          0x340bf32c        0x0 obj/external/ap-cp-gateway/Appl/GenData/Det_Cfg.o
 .text          0x340bf32c        0x0 obj/external/ap-cp-gateway/Appl/GenData/EcuM_Cfg.o
 .text          0x340bf32c        0x0 obj/external/ap-cp-gateway/Appl/GenData/EcuM_Init_Cfg.o
 .text          0x340bf32c        0x0 obj/external/ap-cp-gateway/Appl/GenData/EcuM_Init_PBcfg.o
 .text          0x340bf32c        0x0 obj/external/ap-cp-gateway/Appl/GenData/EcuM_PBcfg.o
 .text          0x340bf32c        0xc obj/external/ap-cp-gateway/Appl/GenData/Fee_Lcfg.o
                0x340bf32c                Fee_ErrorCallbackNotification
 .text          0x340bf338       0x18 obj/external/ap-cp-gateway/Appl/GenData/IpduM_Lcfg.o
                0x340bf338                IpduM_MainFunctionRx
                0x340bf33a                IpduM_MainFunctionTx
 .text          0x340bf350        0x0 obj/external/ap-cp-gateway/Appl/GenData/IpduM_PBcfg.o
 .text          0x340bf350        0x8 obj/external/ap-cp-gateway/Appl/GenData/MemIf_Cfg.o
 .text          0x340bf358        0x0 obj/external/ap-cp-gateway/Appl/GenData/Nm_Cfg.o
 .text          0x340bf358        0x0 obj/external/ap-cp-gateway/Appl/GenData/Nm_Lcfg.o
 .text          0x340bf358       0x1a obj/external/ap-cp-gateway/Appl/GenData/NvM_Cfg.o
                0x340bf358                NvM_EnterCriticalSection
                0x340bf360                NvM_ExitCriticalSection
                0x340bf368                NvM_MultiBlockCbk
                0x340bf370                NvM_NotifyLossOfRedundancy
 .text          0x340bf372        0x0 obj/external/ap-cp-gateway/Appl/GenData/Os_AccessCheck_Lcfg.o
 .text          0x340bf372        0x0 obj/external/ap-cp-gateway/Appl/GenData/Os_Alarm_Lcfg.o
 .text          0x340bf372        0x0 obj/external/ap-cp-gateway/Appl/GenData/Os_Application_Lcfg.o
 .text          0x340bf372        0x0 obj/external/ap-cp-gateway/Appl/GenData/Os_Barrier_Lcfg.o
 .text          0x340bf372        0x0 obj/external/ap-cp-gateway/Appl/GenData/Os_Core_Lcfg.o
 .text          0x340bf372        0x0 obj/external/ap-cp-gateway/Appl/GenData/Os_Counter_Lcfg.o
 .text          0x340bf372        0x0 obj/external/ap-cp-gateway/Appl/GenData/Os_Error_Lcfg.o
 .text          0x340bf372        0x0 obj/external/ap-cp-gateway/Appl/GenData/Os_Hal_Context_Lcfg.o
 .text          0x340bf372        0x0 obj/external/ap-cp-gateway/Appl/GenData/Os_Hal_Core_Lcfg.o
 .text          0x340bf372        0x0 obj/external/ap-cp-gateway/Appl/GenData/Os_Hal_Entry_Lcfg.o
 .text          0x340bf372        0x0 obj/external/ap-cp-gateway/Appl/GenData/Os_Hal_Interrupt_Lcfg.o
 .text          0x340bf372        0x0 obj/external/ap-cp-gateway/Appl/GenData/Os_Hal_Kernel_Lcfg.o
 .text          0x340bf372        0x0 obj/external/ap-cp-gateway/Appl/GenData/Os_Hal_MemoryProtection_Lcfg.o
 .text          0x340bf372        0x0 obj/external/ap-cp-gateway/Appl/GenData/Os_Hal_Timer_Lcfg.o
 .text          0x340bf372        0x0 obj/external/ap-cp-gateway/Appl/GenData/Os_Hook_Lcfg.o
 .text          0x340bf372        0x0 obj/external/ap-cp-gateway/Appl/GenData/Os_Ioc_Lcfg.o
 .text          0x340bf372        0x0 obj/external/ap-cp-gateway/Appl/GenData/Os_Isr_Lcfg.o
 .text          0x340bf372        0x0 obj/external/ap-cp-gateway/Appl/GenData/Os_MemoryProtection_Lcfg.o
 .text          0x340bf372        0x0 obj/external/ap-cp-gateway/Appl/GenData/Os_Peripheral_Lcfg.o
 .text          0x340bf372        0x0 obj/external/ap-cp-gateway/Appl/GenData/Os_Resource_Lcfg.o
 .text          0x340bf372        0x0 obj/external/ap-cp-gateway/Appl/GenData/Os_ScheduleTable_Lcfg.o
 .text          0x340bf372        0x0 obj/external/ap-cp-gateway/Appl/GenData/Os_Scheduler_Lcfg.o
 .text          0x340bf372        0x0 obj/external/ap-cp-gateway/Appl/GenData/Os_ServiceFunction_Lcfg.o
 .text          0x340bf372        0x0 obj/external/ap-cp-gateway/Appl/GenData/Os_Spinlock_Lcfg.o
 .text          0x340bf372        0x0 obj/external/ap-cp-gateway/Appl/GenData/Os_Stack_Lcfg.o
 .text          0x340bf372        0x0 obj/external/ap-cp-gateway/Appl/GenData/Os_Task_Lcfg.o
 .text          0x340bf372        0x0 obj/external/ap-cp-gateway/Appl/GenData/Os_TimingProtection_Lcfg.o
 .text          0x340bf372        0x0 obj/external/ap-cp-gateway/Appl/GenData/Os_Trace_Lcfg.o
 .text          0x340bf372        0x0 obj/external/ap-cp-gateway/Appl/GenData/Os_XSignal_Lcfg.o
 .text          0x340bf372       0xa8 obj/external/ap-cp-gateway/Appl/GenData/PduR_Lcfg.o
                0x340bf382                PduR_ComTransmit
                0x340bf38a                PduR_DcmTransmit
                0x340bf392                PduR_IpduMTransmit
                0x340bf39a                PduR_CanIfRxIndication
                0x340bf3a2                PduR_CanIfTxConfirmation
                0x340bf3aa                PduR_CanNmRxIndication
                0x340bf3b2                PduR_CanNmTxConfirmation
                0x340bf3ba                PduR_Cdd_IpcRxIndication
                0x340bf3c2                PduR_Cdd_IpcTxConfirmation
                0x340bf3ca                PduR_IpduMRxIndication
                0x340bf3d2                PduR_IpduMTxConfirmation
                0x340bf3da                PduR_CanNmTriggerTransmit
                0x340bf3e2                PduR_IpduMTriggerTransmit
                0x340bf3ea                PduR_CanTpStartOfReception
                0x340bf3f2                PduR_CanTpCopyRxData
                0x340bf3fa                PduR_CanTpCopyTxData
                0x340bf402                PduR_CanTpRxIndication
                0x340bf40a                PduR_CanTpTxConfirmation
                0x340bf412                PduR_DcmCancelTransmit
 .text          0x340bf41a        0x0 obj/external/ap-cp-gateway/Appl/GenData/PduR_PBcfg.o
 *fill*         0x340bf41a        0x2 
 .text          0x340bf41c      0x420 obj/external/ap-cp-gateway/Appl/GenData/Rte.o
                0x340bf41c                Rte_GetInternalModeIndex_BswM_ESH_Mode
                0x340bf444                SchM_Start
                0x340bf446                SchM_Init
                0x340bf450                SchM_StartTiming
                0x340bf472                Rte_Start
                0x340bf480                Rte_Stop
                0x340bf484                SchM_Deinit
                0x340bf49a                Rte_InitMemory
                0x340bf49c                Rte_Read_BswM_Request_ESH_PostRunRequest_0_requestedMode
                0x340bf4a4                Rte_Read_BswM_Request_ESH_PostRunRequest_1_requestedMode
                0x340bf4ac                Rte_Read_BswM_Request_ESH_RunRequest_0_requestedMode
                0x340bf4b4                Rte_Read_BswM_Request_ESH_RunRequest_1_requestedMode
                0x340bf4bc                Rte_Call_Dcm_DataServices_Boot_Software_Boot_Software_Identification_ConditionCheckRead
                0x340bf4c0                Rte_Call_Dcm_DataServices_Boot_Software_Boot_Software_Identification_ReadData
                0x340bf4c4                Rte_Call_Dcm_DataServices_Boot_Software_Boot_Software_Identification_WriteData
                0x340bf4c8                Rte_Call_Dcm_DataServices_Boot_Software_NumberOfModules_ConditionCheckRead
                0x340bf4cc                Rte_Call_Dcm_DataServices_Boot_Software_NumberOfModules_ReadData
                0x340bf4d0                Rte_Call_Dcm_DataServices_Boot_Software_NumberOfModules_WriteData
                0x340bf4d4                Rte_Call_Dcm_DataServices_DID_0xF410_DID_Data_ConditionCheckRead
                0x340bf4d8                Rte_Call_Dcm_DataServices_DID_0xF410_DID_Data_ReadData
                0x340bf4dc                Rte_Call_Dcm_DataServices_DID_0xF412_DID_Data_ConditionCheckRead
                0x340bf4e0                Rte_Call_Dcm_DataServices_DID_0xF412_DID_Data_ReadData
                0x340bf4e4                Rte_Call_Dcm_DataServices_DID_0xF413_DID_Data_ConditionCheckRead
                0x340bf4e8                Rte_Call_Dcm_DataServices_DID_0xF413_DID_Data_ReadData
                0x340bf4ec                Rte_Call_Dcm_DataServices_DataDiagnosticIdentifier_DID_DataDiagnosticIdentifier_ConditionCheckRead
                0x340bf4f0                Rte_Call_Dcm_DataServices_DataDiagnosticIdentifier_DID_DataDiagnosticIdentifier_ReadData
                0x340bf4f4                Rte_Call_Dcm_DataServices_DataDiagnosticIdentifier_DID_DataDiagnosticIdentifier_WriteData
                0x340bf4f8                Rte_Call_Dcm_DataServices_DevelopmentData_CanDriverVersion_ConditionCheckRead
                0x340bf4fc                Rte_Call_Dcm_DataServices_DevelopmentData_CanDriverVersion_ReadData
                0x340bf500                Rte_Call_Dcm_DataServices_DevelopmentData_CanDriverVersion_WriteData
                0x340bf504                Rte_Call_Dcm_DataServices_DevelopmentData_DiagnosticModuleVersion_ConditionCheckRead
                0x340bf508                Rte_Call_Dcm_DataServices_DevelopmentData_DiagnosticModuleVersion_ReadData
                0x340bf50c                Rte_Call_Dcm_DataServices_DevelopmentData_DiagnosticModuleVersion_WriteData
                0x340bf510                Rte_Call_Dcm_DataServices_DevelopmentData_NmVersion_ConditionCheckRead
                0x340bf514                Rte_Call_Dcm_DataServices_DevelopmentData_NmVersion_ReadData
                0x340bf518                Rte_Call_Dcm_DataServices_DevelopmentData_NmVersion_WriteData
                0x340bf51c                Rte_Call_Dcm_DataServices_DevelopmentData_OperatingSystemVersion_ConditionCheckRead
                0x340bf520                Rte_Call_Dcm_DataServices_DevelopmentData_OperatingSystemVersion_ReadData
                0x340bf524                Rte_Call_Dcm_DataServices_DevelopmentData_OperatingSystemVersion_WriteData
                0x340bf528                Rte_Call_Dcm_DataServices_DevelopmentData_TransportLayerVersion_ConditionCheckRead
                0x340bf52c                Rte_Call_Dcm_DataServices_DevelopmentData_TransportLayerVersion_ReadData
                0x340bf530                Rte_Call_Dcm_DataServices_DevelopmentData_TransportLayerVersion_WriteData
                0x340bf534                Rte_Call_Dcm_DataServices_EcuIdentification_Part_Number_ConditionCheckRead
                0x340bf538                Rte_Call_Dcm_DataServices_EcuIdentification_Part_Number_ReadData
                0x340bf53c                Rte_Call_Dcm_DataServices_EcuIdentification_Part_Number_WriteData
                0x340bf540                Rte_Call_Dcm_DataServices_Example_ReadOnlyDID_DID_Data_GlobalTime_ConditionCheckRead
                0x340bf544                Rte_Call_Dcm_DataServices_Example_ReadOnlyDID_DID_Data_GlobalTime_ReadData
                0x340bf548                Rte_Call_Dcm_DataServices_Example_ReadWriteData_GlobalTime_ConditionCheckRead
                0x340bf54c                Rte_Call_Dcm_DataServices_Example_ReadWriteData_GlobalTime_ReadData
                0x340bf550                Rte_Call_Dcm_DataServices_Example_ReadWriteData_GlobalTime_WriteData
                0x340bf554                Rte_Call_Dcm_DataServices_Example_WriteOnlyDID_DID_DataObject_WriteData
                0x340bf558                Rte_Call_Dcm_DataServices_Hardware_Version_Hardware_Version_Number_ConditionCheckRead
                0x340bf55c                Rte_Call_Dcm_DataServices_Hardware_Version_Hardware_Version_Number_ReadData
                0x340bf560                Rte_Call_Dcm_DataServices_Hardware_Version_Hardware_Version_Number_WriteData
                0x340bf564                Rte_Call_Dcm_DataServices_PeriodicDataSample_DataRecord_ConditionCheckRead
                0x340bf568                Rte_Call_Dcm_DataServices_PeriodicDataSample_DataRecord_ReadData
                0x340bf56c                Rte_Call_Dcm_DataServices_SampleIoControl_DID_Data_FreezeCurrentState
                0x340bf570                Rte_Call_Dcm_DataServices_SampleIoControl_DID_Data_ReadData
                0x340bf574                Rte_Call_Dcm_DataServices_SampleIoControl_DID_Data_ResetToDefault
                0x340bf578                Rte_Call_Dcm_DataServices_SampleIoControl_DID_Data_ReturnControlToECU
                0x340bf57c                Rte_Call_Dcm_DataServices_SampleIoControl_DID_Data_ShortTermAdjustment
                0x340bf580                Rte_Call_Dcm_DataServices_SerialNumber_SerialNumber_ConditionCheckRead
                0x340bf584                Rte_Call_Dcm_DataServices_SerialNumber_SerialNumber_ReadData
                0x340bf588                Rte_Call_Dcm_DataServices_SerialNumber_SerialNumber_WriteData
                0x340bf58c                Rte_Call_Dcm_DataServices_Spare_Part_Number_Spare_Part_Number_ConditionCheckRead
                0x340bf590                Rte_Call_Dcm_DataServices_Spare_Part_Number_Spare_Part_Number_ReadData
                0x340bf594                Rte_Call_Dcm_DataServices_Spare_Part_Number_Spare_Part_Number_WriteData
                0x340bf598                Rte_Call_Dcm_DataServices_Vehicle_Identification_VIN_ConditionCheckRead
                0x340bf59c                Rte_Call_Dcm_DataServices_Vehicle_Identification_VIN_ReadData
                0x340bf5a0                Rte_Call_Dcm_DataServices_Vehicle_Identification_VIN_WriteData
                0x340bf5a4                Rte_Call_Dcm_RoutineServices_CheckProgrammingPreconditions_Start
                0x340bf5a8                Rte_Call_Dcm_RoutineServices_ForceBootMode_Start
                0x340bf5ac                Rte_Call_Dcm_RoutineServices_SampleRoutineControl_RequestResults
                0x340bf5b0                Rte_Call_Dcm_RoutineServices_SampleRoutineControl_Start
                0x340bf5b4                Rte_Call_Dcm_RoutineServices_SampleRoutineControl_Stop
                0x340bf5b8                Rte_Call_Dcm_RoutineServices_SampleRoutineControl_StartOnly_RequestResults
                0x340bf5bc                Rte_Call_Dcm_RoutineServices_SampleRoutineControl_StartOnly_Start
                0x340bf5c0                Rte_Call_Dcm_SecurityAccess_Level_3_CompareKey
                0x340bf5c4                Rte_Call_Dcm_SecurityAccess_Level_3_GetSeed
                0x340bf5c8                Rte_Call_Dcm_SecurityAccess_UnlockedL1_CompareKey
                0x340bf5cc                Rte_Call_Dcm_SecurityAccess_UnlockedL1_GetSeed
                0x340bf5d0                Rte_Call_DemMaster_0_CBInitEvt_DTC_0x000002_InitMonitorForEvent
                0x340bf5d4                Rte_Call_DemMaster_0_CBReadData_DID_0x1_DID_Data_GlobalTime_ReadData
                0x340bf5d8                Rte_Call_DemMaster_0_CBReadData_PID_0x12_DID_Data_ReadData
                0x340bf5dc                Rte_Call_DemMaster_0_CBReadData_PID_0x13_DID_Data_ReadData
                0x340bf5e0                Rte_Call_DemSatellite_0_CBReadData_DID_0x1_DID_Data_GlobalTime_ReadData
                0x340bf5e4                Rte_Call_DemSatellite_0_CBReadData_PID_0x12_DID_Data_ReadData
                0x340bf5e8                Rte_Call_DemSatellite_0_CBReadData_PID_0x13_DID_Data_ReadData
                0x340bf5ec                SchM_Enter_Mcu_MCU_EXCLUSIVE_AREA_00
                0x340bf5f4                SchM_Exit_Mcu_MCU_EXCLUSIVE_AREA_00
                0x340bf5fc                SchM_Enter_Mcu_MCU_EXCLUSIVE_AREA_01
                0x340bf604                SchM_Exit_Mcu_MCU_EXCLUSIVE_AREA_01
                0x340bf60c                SchM_Enter_Mcu_MCU_EXCLUSIVE_AREA_02
                0x340bf614                SchM_Exit_Mcu_MCU_EXCLUSIVE_AREA_02
                0x340bf61c                SchM_Enter_Port_PORT_EXCLUSIVE_AREA_00
                0x340bf624                SchM_Exit_Port_PORT_EXCLUSIVE_AREA_00
                0x340bf62c                SchM_Enter_Port_PORT_EXCLUSIVE_AREA_01
                0x340bf634                SchM_Exit_Port_PORT_EXCLUSIVE_AREA_01
                0x340bf63c                SchM_Enter_Port_PORT_EXCLUSIVE_AREA_02
                0x340bf644                SchM_Exit_Port_PORT_EXCLUSIVE_AREA_02
                0x340bf64c                SchM_Enter_Port_PORT_EXCLUSIVE_AREA_03
                0x340bf654                SchM_Exit_Port_PORT_EXCLUSIVE_AREA_03
                0x340bf65c                SchM_Enter_Port_PORT_EXCLUSIVE_AREA_04
                0x340bf664                SchM_Exit_Port_PORT_EXCLUSIVE_AREA_04
                0x340bf66c                SchM_Enter_Port_PORT_EXCLUSIVE_AREA_05
                0x340bf674                SchM_Exit_Port_PORT_EXCLUSIVE_AREA_05
                0x340bf67c                SchM_Enter_Port_PORT_EXCLUSIVE_AREA_06
                0x340bf684                SchM_Exit_Port_PORT_EXCLUSIVE_AREA_06
                0x340bf68c                SchM_Enter_Port_PORT_EXCLUSIVE_AREA_07
                0x340bf694                SchM_Exit_Port_PORT_EXCLUSIVE_AREA_07
                0x340bf69c                SchM_Enter_Port_PORT_EXCLUSIVE_AREA_08
                0x340bf6a4                SchM_Exit_Port_PORT_EXCLUSIVE_AREA_08
                0x340bf6ac                SchM_Enter_Port_PORT_EXCLUSIVE_AREA_09
                0x340bf6b4                SchM_Exit_Port_PORT_EXCLUSIVE_AREA_09
                0x340bf6bc                SchM_Enter_Port_PORT_EXCLUSIVE_AREA_10
                0x340bf6c4                SchM_Exit_Port_PORT_EXCLUSIVE_AREA_10
                0x340bf6cc                SchM_Enter_Port_PORT_EXCLUSIVE_AREA_11
                0x340bf6d4                SchM_Exit_Port_PORT_EXCLUSIVE_AREA_11
                0x340bf6dc                SchM_Enter_Port_PORT_EXCLUSIVE_AREA_12
                0x340bf6e4                SchM_Exit_Port_PORT_EXCLUSIVE_AREA_12
                0x340bf6ec                SchM_Enter_Port_PORT_EXCLUSIVE_AREA_13
                0x340bf6f4                SchM_Exit_Port_PORT_EXCLUSIVE_AREA_13
                0x340bf6fc                SchM_Enter_Port_PORT_EXCLUSIVE_AREA_14
                0x340bf704                SchM_Exit_Port_PORT_EXCLUSIVE_AREA_14
                0x340bf70c                SchM_Enter_Port_PORT_EXCLUSIVE_AREA_15
                0x340bf714                SchM_Exit_Port_PORT_EXCLUSIVE_AREA_15
                0x340bf71c                SchM_Enter_Port_PORT_EXCLUSIVE_AREA_16
                0x340bf724                SchM_Exit_Port_PORT_EXCLUSIVE_AREA_16
                0x340bf72c                SchM_Enter_Port_PORT_EXCLUSIVE_AREA_17
                0x340bf734                SchM_Exit_Port_PORT_EXCLUSIVE_AREA_17
                0x340bf73c                SchM_Enter_Port_PORT_EXCLUSIVE_AREA_18
                0x340bf744                SchM_Exit_Port_PORT_EXCLUSIVE_AREA_18
                0x340bf74c                SchM_Enter_Port_PORT_EXCLUSIVE_AREA_19
                0x340bf754                SchM_Exit_Port_PORT_EXCLUSIVE_AREA_19
                0x340bf75c                SchM_Enter_Port_PORT_EXCLUSIVE_AREA_20
                0x340bf764                SchM_Exit_Port_PORT_EXCLUSIVE_AREA_20
                0x340bf76c                SchM_Enter_Port_PORT_EXCLUSIVE_AREA_21
                0x340bf774                SchM_Exit_Port_PORT_EXCLUSIVE_AREA_21
                0x340bf77c                SchM_Enter_Port_PORT_EXCLUSIVE_AREA_22
                0x340bf784                SchM_Exit_Port_PORT_EXCLUSIVE_AREA_22
                0x340bf78c                SchM_Enter_Port_PORT_EXCLUSIVE_AREA_23
                0x340bf794                SchM_Exit_Port_PORT_EXCLUSIVE_AREA_23
                0x340bf79c                SchM_Enter_Port_PORT_EXCLUSIVE_AREA_24
                0x340bf7a4                SchM_Exit_Port_PORT_EXCLUSIVE_AREA_24
                0x340bf7ac                SchM_Enter_Port_PORT_EXCLUSIVE_AREA_25
                0x340bf7b4                SchM_Exit_Port_PORT_EXCLUSIVE_AREA_25
                0x340bf7bc                SchM_Enter_Port_PORT_EXCLUSIVE_AREA_26
                0x340bf7c4                SchM_Exit_Port_PORT_EXCLUSIVE_AREA_26
                0x340bf7cc                SchM_Enter_Port_PORT_EXCLUSIVE_AREA_27
                0x340bf7d4                SchM_Exit_Port_PORT_EXCLUSIVE_AREA_27
                0x340bf7dc                Rte_Switch_BswM_Switch_ESH_ModeSwitch_BswM_MDGP_ESH_Mode
                0x340bf81c                Rte_Mode_BswM_Notification_ESH_ModeNotification_BswM_MDGP_ESH_Mode
                0x340bf828                Rte_SwitchAck_Dcm_DcmEcuReset_DcmEcuReset
                0x340bf82c                Rte_Switch_Dcm_DcmCommunicationControl_ComMConf_ComMChannel_CN_CAN_fe6ecc87_DcmCommunicationControl_ComMConf_ComMChannel_CN_CAN_fe6ecc87
                0x340bf830                Rte_Switch_Dcm_DcmControlDtcSetting_DcmControlDtcSetting
                0x340bf834                Rte_Switch_Dcm_DcmDiagnosticSessionControl_DcmDiagnosticSessionControl
                0x340bf838                Rte_Switch_Dcm_DcmEcuReset_DcmEcuReset
 .text          0x340bf83c        0x0 obj/external/ap-cp-gateway/Appl/GenData/Xcp_Lcfg.o
 .text          0x340bf83c        0x0 obj/external/ap-cp-gateway/Appl/GenData/src/CDD_Mcl_Cfg.o
 .text          0x340bf83c        0x0 obj/external/ap-cp-gateway/Appl/GenData/src/CDD_Mcl_PBcfg.o
 .text          0x340bf83c        0x0 obj/external/ap-cp-gateway/Appl/GenData/src/Clock_Ip_Cfg.o
 .text          0x340bf83c        0x0 obj/external/ap-cp-gateway/Appl/GenData/src/Clock_Ip_PBcfg.o
 .text          0x340bf83c        0x0 obj/external/ap-cp-gateway/Appl/GenData/src/Dio_Cfg.o
 .text          0x340bf83c        0x0 obj/external/ap-cp-gateway/Appl/GenData/src/Dma_Ip_Cfg.o
 .text          0x340bf83c        0x0 obj/external/ap-cp-gateway/Appl/GenData/src/Dma_Ip_PBcfg.o
 .text          0x340bf83c        0x0 obj/external/ap-cp-gateway/Appl/GenData/src/Fls_Cfg.o
 .text          0x340bf83c        0x0 obj/external/ap-cp-gateway/Appl/GenData/src/Fls_PBcfg.o
 .text          0x340bf83c        0x0 obj/external/ap-cp-gateway/Appl/GenData/src/Mcu_Cfg.o
 .text          0x340bf83c        0x0 obj/external/ap-cp-gateway/Appl/GenData/src/Mcu_PBcfg.o
 .text          0x340bf83c        0x0 obj/external/ap-cp-gateway/Appl/GenData/src/OsIf_Cfg.o
 .text          0x340bf83c        0x0 obj/external/ap-cp-gateway/Appl/GenData/src/Port_Cfg.o
 .text          0x340bf83c        0x0 obj/external/ap-cp-gateway/Appl/GenData/src/Port_PBcfg.o
 .text          0x340bf83c        0x0 obj/external/ap-cp-gateway/Appl/GenData/src/Power_Ip_Cfg.o
 .text          0x340bf83c        0x0 obj/external/ap-cp-gateway/Appl/GenData/src/Power_Ip_PBcfg.o
 .text          0x340bf83c        0x0 obj/external/ap-cp-gateway/Appl/GenData/src/Qspi_Ip_PBcfg.o
 .text          0x340bf83c        0x0 obj/external/ap-cp-gateway/Appl/GenData/src/Ram_Ip_Cfg.o
 .text          0x340bf83c        0x0 obj/external/ap-cp-gateway/Appl/GenData/src/Ram_Ip_PBcfg.o
 .text          0x340bf83c        0x0 obj/external/ap-cp-gateway/Appl/GenData/src/Siul2_Port_Ip_PBcfg.o
 .text          0x340bf83c        0x0 obj/external/ap-cp-gateway/Appl/GenData/vBrs_Lcfg.o
 .text          0x340bf83c        0x0 obj/external/ap-cp-gateway/Appl/GenData/vLinkGen_Lcfg.o
 .text          0x340bf83c       0x1c obj/external/ap-cp-gateway/Appl/Source/ARMBrsHwIntTb_CortexM.o
                0x340bf83c                BrsHw_CoreExceptionHandler
 .text          0x340bf858      0x204 obj/external/ap-cp-gateway/Appl/Source/ARMBrsHw_CortexM.o
                0x340bf858                BrsHwDisableInterruptAtPowerOn
                0x340bf8ec                BrsHw_ExceptionTable_Init
                0x340bf8fc                BrsHwSoftwareResetECU
                0x340bf918                BrsHwTime100NOP
                0x340bf9e2                BrsHw_EnableInterrupt
                0x340bfa24                BrsHw_DisableInterrupt
                0x340bfa3c                BrsHw_TriggerSoftwareInterrupt
 .text          0x340bfa5c        0x0 obj/external/ap-cp-gateway/Appl/Source/ARMStartup_CortexM.o
 .text          0x340bfa5c       0x60 obj/external/ap-cp-gateway/Appl/Source/BrsHw.o
                0x340bfa5c                BrsHw_GetCore
                0x340bfa6c                BrsHw_EnableExternalInterrupt
                0x340bfa90                BrsHw_DisableExternalInterrupt
 .text          0x340bfabc      0x1ac obj/external/ap-cp-gateway/Appl/Source/BrsMain.o
                0x340bfabc                BrsMainInit
                0x340bfac8                BrsMainExceptionHandler
                0x340bfae4                BrsMainGetResetReason
                0x340bfaf0                main
                0x340bfb70                SchM_Enter_Can_30_Flexcan4_CAN_30_FLEXCAN4_EXCLUSIVE_AREA_0
                0x340bfb90                SchM_Exit_Can_30_Flexcan4_CAN_30_FLEXCAN4_EXCLUSIVE_AREA_0
                0x340bfbac                SchM_Enter_Can_30_Flexcan4_CAN_30_FLEXCAN4_EXCLUSIVE_AREA_6
                0x340bfbcc                SchM_Exit_Can_30_Flexcan4_CAN_30_FLEXCAN4_EXCLUSIVE_AREA_6
                0x340bfbe8                SchM_Enter_CanIf_CANIF_EXCLUSIVE_AREA_0
                0x340bfc08                SchM_Exit_CanIf_CANIF_EXCLUSIVE_AREA_0
                0x340bfc24                SchM_Enter_CanSM_CANSM_EXCLUSIVE_AREA_4
                0x340bfc44                SchM_Exit_CanSM_CANSM_EXCLUSIVE_AREA_4
                0x340bfc60                SchM_Enter_CanSM_CANSM_EXCLUSIVE_AREA_1
                0x340bfc62                SchM_Exit_CanSM_CANSM_EXCLUSIVE_AREA_1
                0x340bfc64                SchM_Enter_ComM_COMM_EXCLUSIVE_AREA_1
                0x340bfc66                SchM_Exit_ComM_COMM_EXCLUSIVE_AREA_1
 .text          0x340bfc68       0xf8 obj/external/ap-cp-gateway/Appl/Source/BrsMainStartup.o
                0x340bfc68                Brs_MemoryZeroInit
                0x340bfca0                Brs_MemoryInit
                0x340bfd08                Brs_ApplicationEntry
 .text          0x340bfd60        0xe obj/external/ap-cp-gateway/Appl/Source/BrsMain_Callout_Stubs.o
                0x340bfd60                BrsMain_MemoryInit_StageZero_Hook
                0x340bfd62                BrsMain_MemoryInit_StageHardReset_Hook
                0x340bfd64                BrsMain_MemoryInit_StageOne_Hook
                0x340bfd66                BrsMain_MemoryInit_StageTwo_Hook
                0x340bfd68                BrsMain_MemoryInit_StageThree_Hook
                0x340bfd6a                BrsMain_PreMainHook
                0x340bfd6c                BrsMain_SoftwareResetECU_Hook
 .text          0x340bfd6e       0x38 obj/external/ap-cp-gateway/Appl/Source/BswInit.o
                0x340bfd6e                Os_Task_Default_BSW_Sync_Task
                0x340bfd70                Os_Task_Default_RTE_Mode_switch_Task
                0x340bfd72                Os_Task_IdleTask_OsCore0
                0x340bfd7a                BswInit_NvMReadAll
 .text          0x340bfda6       0x82 obj/external/ap-cp-gateway/Appl/Source/BswM_Callout_Stubs.o
                0x340bfda6                BswM_AL_SetProgrammableInterrupts
                0x340bfda8                BswM_ESH_OnEnterPostRun
                0x340bfdaa                BswM_ESH_OnEnterPrepShutdown
                0x340bfdac                BswM_ESH_OnEnterRun
                0x340bfdb8                BswM_ESH_OnEnterShutdown
                0x340bfdba                BswM_ESH_OnEnterWaitForNvm
                0x340bfdbc                BswM_ESH_OnEnterWakeup
                0x340bfdbe                BswM_INIT_NvMReadAll
                0x340bfdc6                ESH_ComM_CheckPendingRequests
                0x340bfdf6                ESH_Dem_PostRunRequested
 .text          0x340bfe28       0x62 obj/external/ap-cp-gateway/Appl/Source/Dcm_Callout_Stubs.o
                0x340bfe28                Dcm_Confirmation
                0x340bfe2a                Dcm_SetProgConditions
                0x340bfe2e                Dcm_GetProgConditions
                0x340bfe32                Dcm_ReadMemory
                0x340bfe3c                Dcm_WriteMemory
                0x340bfe46                Dcm_DiagnosticService_0x00
                0x340bfe4e                Dcm_DiagnosticService_0x34
                0x340bfe56                Dcm_DiagnosticService_0x35
                0x340bfe5e                Dcm_DiagnosticService_0x36
                0x340bfe66                Dcm_DiagnosticService_0x37
                0x340bfe6e                Dcm_DiagnosticService_0xB2
                0x340bfe76                Dcm_DiagnosticService_0xB6
                0x340bfe7e                Dcm_DiagnosticService_0xB7
                0x340bfe86                Appl_DetEntryHandler
 *fill*         0x340bfe8a        0x2 
 .text          0x340bfe8c       0xe0 obj/external/ap-cp-gateway/Appl/Source/EcuM_Callout_Stubs.o
                0x340bfe8c                EcuM_ErrorHook
                0x340bfe94                EcuM_OnGoOffOne
                0x340bfe96                EcuM_ShutdownOS
                0x340bfe9e                EcuM_OnGoOffTwo
                0x340bfea0                EcuM_AL_SwitchOff
                0x340bfea2                EcuM_AL_Reset
                0x340bfea4                EcuM_AL_DriverInitZero
                0x340bff04                EcuM_AL_DriverInitOne
                0x340bff54                EcuM_AL_DriverRestartList
                0x340bff56                EcuM_StartOS
                0x340bff5e                EcuM_AL_SetProgrammableInterrupts
                0x340bff60                EcuM_CheckWakeup
                0x340bff62                EcuM_BswErrorHook
 .text          0x340bff6c        0x0 obj/external/ap-cp-gateway/Appl/Source/Os_Callout_Stubs.o
 .text          0x340bff6c       0x40 obj/external/ap-cp-gateway/Appl/Source/XcpAppl.o
                0x340bff6c                XcpAppl_MemCpy
                0x340bff7e                XcpAppl_MeasurementRead
                0x340bff9a                XcpAppl_GetPointer
                0x340bff9e                XcpAppl_ConStateNotification
                0x340bffa8                XcpAppl_InitMemory
                0x340bffaa                XcpAppl_Init
 .text          0x340bffac       0xdc obj/external/ap-cp-gateway/Appl/Source/ipc-shm/Cdd_Ipc.o
                0x340bffac                Cdd_Ipc_Init
                0x340bffd8                PduR_Cdd_IpcTxConfirmationCbk
                0x340c0008                Cdd_Ipc_Transmit
                0x340c0054                Cdd_Ipc_Rx_Cbk
 .text          0x340c0088        0x0 obj/external/ap-cp-gateway/Appl/Source/ipc-shm/Cdd_Ipc_Lcfg.o
 .text          0x340c0088       0xfc obj/external/ap-cp-gateway/Appl/Source/ipc-shm/common/ipc-queue.o
                0x340c0088                ipc_queue_pop
                0x340c00d8                ipc_queue_push
                0x340c012e                ipc_queue_init
 *fill*         0x340c0184        0x4 
 .text          0x340c0188      0xb28 obj/external/ap-cp-gateway/Appl/Source/ipc-shm/common/ipc-shm.o
                0x340c0850                ipc_shm_free
                0x340c08a0                ipc_shm_acquire_buf
                0x340c0970                ipc_shm_init
                0x340c09ae                ipc_shm_release_buf
                0x340c0a70                ipc_shm_tx
                0x340c0b40                ipc_shm_unmanaged_acquire
                0x340c0bac                ipc_shm_unmanaged_tx
                0x340c0c30                ipc_shm_is_remote_ready
                0x340c0c70                ipc_shm_poll_channels
 .text          0x340c0cb0      0x280 obj/external/ap-cp-gateway/Appl/Source/ipc-shm/hw/s32gen1/ipc-hw-s32gen1.o
                0x340c0cb0                ipc_hw_irq_enable
                0x340c0ce8                ipc_hw_irq_disable
                0x340c0d24                ipc_hw_init
                0x340c0e88                ipc_hw_irq_notify
                0x340c0ec0                ipc_hw_irq_clear
                0x340c0ef4                ipc_hw_free
                0x340c0efc                ipc_hw_irq_status
 .text          0x340c0f30      0x134 obj/external/ap-cp-gateway/Appl/Source/ipc-shm/os/autosar/ipc-os-autosar.o
                0x340c0f30                ipc_os_init
                0x340c0fc0                ipc_os_free
                0x340c101c                ipc_os_get_local_shm
                0x340c1028                ipc_os_get_remote_shm
                0x340c1038                ipc_os_poll_channels
 .text          0x340c1064        0x0 C:/TOOLS/NXP/gcc-9.2-arm32-eabi/arm-none-eabi/newlib/lib/thumb/v7-m/nofp\libc.a(lib_a-memcpy-stub.o)
 .text          0x340c1064        0x0 C:/TOOLS/NXP/gcc-9.2-arm32-eabi/arm-none-eabi/newlib/lib/thumb/v7-m/nofp\libc.a(lib_a-memset.o)
 *(.text.*)
 .text.memcpy   0x340c1064       0x1c C:/TOOLS/NXP/gcc-9.2-arm32-eabi/arm-none-eabi/newlib/lib/thumb/v7-m/nofp\libc.a(lib_a-memcpy-stub.o)
                0x340c1064                memcpy
 .text.memset   0x340c1080       0x10 C:/TOOLS/NXP/gcc-9.2-arm32-eabi/arm-none-eabi/newlib/lib/thumb/v7-m/nofp\libc.a(lib_a-memset.o)
                0x340c1080                memset
                0x340c108f                _text_END = ABSOLUTE ((. - 0x1))
                0x340c1090                _text_LIMIT = ABSOLUTE (.)

.glue_7         0x340c1090        0x0
 .glue_7        0x340c1090        0x0 linker stubs

.glue_7t        0x340c1090        0x0
 .glue_7t       0x340c1090        0x0 linker stubs

.vfp11_veneer   0x340c1090        0x0
 .vfp11_veneer  0x340c1090        0x0 linker stubs

.v4_bx          0x340c1090        0x0
 .v4_bx         0x340c1090        0x0 linker stubs

.iplt           0x340c1090        0x0
 .iplt          0x340c1090        0x0 obj/external/Components/Os/Implementation/Os_Hal_Compiler_TiInt.o

.rel.dyn        0x340c1090        0x0
 .rel.iplt      0x340c1090        0x0 obj/external/Components/Os/Implementation/Os_Hal_Compiler_TiInt.o

.zrodata        0x340c1090        0x0
                0x340c1090                _zrodata_START = ABSOLUTE (.)
 *(*.zrodata)
 *(.zrodata.*)
                0x340c108f                _zrodata_END = ABSOLUTE ((. - 0x1))
                0x340c1090                _zrodata_LIMIT = ABSOLUTE (.)
                0x3408eed8                _Const_Default_ALL_START = _rodata_START
                0x340c108f                _Const_Default_ALL_END = _zrodata_END
                0x340c1090                _Const_Default_ALL_LIMIT = _zrodata_LIMIT

.bss            0x340c1090     0x1660
                0x340c1090                _bss_START = ABSOLUTE (.)
 *(*.bss)
 .bss           0x340c1090        0x0 obj/external/Components/Os/Implementation/Os_Hal_Compiler_TiInt.o
 .bss           0x340c1090        0x0 obj/external/Components/Os/Implementation/Os_Hal_ContextAsm.o
 .bss           0x340c1090        0x0 obj/external/ap-cp-gateway/Appl/GenData/Os_Hal_EntryAsm_Lcfg.o
 .bss           0x340c1090        0x0 obj/external/Components/BswM/Implementation/BswM.o
 .bss           0x340c1090        0x0 obj/external/Components/CanIf/Implementation/CanIf.o
 .bss           0x340c1090        0x0 obj/external/Components/CanNm/Implementation/CanNm.o
 .bss           0x340c1090        0x0 obj/external/Components/CanSM/Implementation/CanSM.o
 .bss           0x340c1090        0x0 obj/external/Components/CanTp/Implementation/CanTp.o
 .bss           0x340c1090        0x0 obj/external/Components/CanXcp/Implementation/CanXcp.o
 .bss           0x340c1090        0x0 obj/external/Components/Can_30_Flexcan4/Implementation/Can_30_Flexcan4.o
 .bss           0x340c1090        0x0 obj/external/Components/Can_30_Flexcan4/Implementation/Can_30_Flexcan4_Irq.o
 .bss           0x340c1090        0x0 obj/external/Components/Com/Implementation/Com.o
 .bss           0x340c1090        0x0 obj/external/Components/Com/Implementation/Com_Buffers.o
 .bss           0x340c1090        0x0 obj/external/Components/Com/Implementation/Com_CprQueue.o
 .bss           0x340c1090        0x0 obj/external/Components/Com/Implementation/Com_CprQueueDescrGw.o
 .bss           0x340c1090        0x0 obj/external/Components/Com/Implementation/Com_CprQueueSigGw.o
 .bss           0x340c1090        0x0 obj/external/Components/Com/Implementation/Com_DescriptionGateway.o
 .bss           0x340c1090        0x0 obj/external/Components/Com/Implementation/Com_Deserializer.o
 .bss           0x340c1090        0x0 obj/external/Components/Com/Implementation/Com_IPduGroupHdlr.o
 .bss           0x340c1090        0x0 obj/external/Components/Com/Implementation/Com_LLIf.o
 .bss           0x340c1090        0x0 obj/external/Components/Com/Implementation/Com_LMgt.o
 .bss           0x340c1090        0x0 obj/external/Components/Com/Implementation/Com_MainFunctions.o
 .bss           0x340c1090        0x0 obj/external/Components/Com/Implementation/Com_Notifications.o
 .bss           0x340c1090        0x0 obj/external/Components/Com/Implementation/Com_RxInv.o
 .bss           0x340c1090        0x0 obj/external/Components/Com/Implementation/Com_RxProcessing.o
 .bss           0x340c1090        0x0 obj/external/Components/Com/Implementation/Com_Serializer.o
 .bss           0x340c1090        0x0 obj/external/Components/Com/Implementation/Com_SignalFilterHdlr.o
 .bss           0x340c1090        0x0 obj/external/Components/Com/Implementation/Com_SignalGateway.o
 .bss           0x340c1090        0x0 obj/external/Components/Com/Implementation/Com_SignalIf.o
 .bss           0x340c1090        0x0 obj/external/Components/Com/Implementation/Com_Timer.o
 .bss           0x340c1090        0x0 obj/external/Components/Com/Implementation/Com_TxModeHdlr.o
 .bss           0x340c1090        0x0 obj/external/Components/ComM/Implementation/ComM.o
 .bss           0x340c1090        0x0 obj/external/Components/Crc/Implementation/Crc.o
 .bss           0x340c1090        0x0 obj/external/Components/Dcm/Implementation/Dcm.o
 .bss           0x340c1090        0x0 obj/external/Components/Dcm/Implementation/Dcm_AuthMgr.o
 .bss           0x340c1090        0x0 obj/external/Components/Dcm/Implementation/Dcm_CfgWrap.o
 .bss           0x340c1090        0x0 obj/external/Components/Dcm/Implementation/Dcm_Debug.o
 .bss           0x340c1090        0x0 obj/external/Components/Dcm/Implementation/Dcm_DemIf.o
 .bss           0x340c1090        0x0 obj/external/Components/Dcm/Implementation/Dcm_Diag.o
 .bss           0x340c1090        0x0 obj/external/Components/Dcm/Implementation/Dcm_DidMgr.o
 .bss           0x340c1090        0x0 obj/external/Components/Dcm/Implementation/Dcm_Ext.o
 .bss           0x340c1090        0x0 obj/external/Components/Dcm/Implementation/Dcm_FblMgr.o
 .bss           0x340c1090        0x0 obj/external/Components/Dcm/Implementation/Dcm_MemMgr.o
 .bss           0x340c1090        0x0 obj/external/Components/Dcm/Implementation/Dcm_Mode.o
 .bss           0x340c1090        0x0 obj/external/Components/Dcm/Implementation/Dcm_Net.o
 .bss           0x340c1090        0x0 obj/external/Components/Dcm/Implementation/Dcm_ObdDtcMgr.o
 .bss           0x340c1090        0x0 obj/external/Components/Dcm/Implementation/Dcm_ObdIdMgr.o
 .bss           0x340c1090        0x0 obj/external/Components/Dcm/Implementation/Dcm_PagedBuffer.o
 .bss           0x340c1090        0x0 obj/external/Components/Dcm/Implementation/Dcm_Repeater.o
 .bss           0x340c1090        0x0 obj/external/Components/Dcm/Implementation/Dcm_RidMgr.o
 .bss           0x340c1090        0x0 obj/external/Components/Dcm/Implementation/Dcm_RsrcMgr.o
 .bss           0x340c1090        0x0 obj/external/Components/Dcm/Implementation/Dcm_State.o
 .bss           0x340c1090        0x0 obj/external/Components/Dcm/Implementation/Dcm_Svc01.o
 .bss           0x340c1090        0x0 obj/external/Components/Dcm/Implementation/Dcm_Svc02.o
 .bss           0x340c1090        0x0 obj/external/Components/Dcm/Implementation/Dcm_Svc03.o
 .bss           0x340c1090        0x0 obj/external/Components/Dcm/Implementation/Dcm_Svc04.o
 .bss           0x340c1090        0x0 obj/external/Components/Dcm/Implementation/Dcm_Svc06.o
 .bss           0x340c1090        0x0 obj/external/Components/Dcm/Implementation/Dcm_Svc07.o
 .bss           0x340c1090        0x0 obj/external/Components/Dcm/Implementation/Dcm_Svc08.o
 .bss           0x340c1090        0x0 obj/external/Components/Dcm/Implementation/Dcm_Svc09.o
 .bss           0x340c1090        0x0 obj/external/Components/Dcm/Implementation/Dcm_Svc0A.o
 .bss           0x340c1090        0x0 obj/external/Components/Dcm/Implementation/Dcm_Svc11.o
 .bss           0x340c1090        0x0 obj/external/Components/Dcm/Implementation/Dcm_Svc14.o
 .bss           0x340c1090        0x0 obj/external/Components/Dcm/Implementation/Dcm_Svc19.o
 .bss           0x340c1090        0x0 obj/external/Components/Dcm/Implementation/Dcm_Svc19Uti.o
 .bss           0x340c1090        0x0 obj/external/Components/Dcm/Implementation/Dcm_Svc22.o
 .bss           0x340c1090        0x0 obj/external/Components/Dcm/Implementation/Dcm_Svc23.o
 .bss           0x340c1090        0x0 obj/external/Components/Dcm/Implementation/Dcm_Svc24.o
 .bss           0x340c1090        0x0 obj/external/Components/Dcm/Implementation/Dcm_Svc27.o
 .bss           0x340c1090        0x0 obj/external/Components/Dcm/Implementation/Dcm_Svc28.o
 .bss           0x340c1090        0x0 obj/external/Components/Dcm/Implementation/Dcm_Svc29.o
 .bss           0x340c1090        0x0 obj/external/Components/Dcm/Implementation/Dcm_Svc2A.o
 .bss           0x340c1090        0x0 obj/external/Components/Dcm/Implementation/Dcm_Svc2ASchd.o
 .bss           0x340c1090        0x0 obj/external/Components/Dcm/Implementation/Dcm_Svc2E.o
 .bss           0x340c1090        0x0 obj/external/Components/Dcm/Implementation/Dcm_Svc2F.o
 .bss           0x340c1090        0x0 obj/external/Components/Dcm/Implementation/Dcm_Svc31.o
 .bss           0x340c1090        0x0 obj/external/Components/Dcm/Implementation/Dcm_Svc34.o
 .bss           0x340c1090        0x0 obj/external/Components/Dcm/Implementation/Dcm_Svc36.o
 .bss           0x340c1090        0x0 obj/external/Components/Dcm/Implementation/Dcm_Svc37.o
 .bss           0x340c1090        0x0 obj/external/Components/Dcm/Implementation/Dcm_Svc3D.o
 .bss           0x340c1090        0x0 obj/external/Components/Dcm/Implementation/Dcm_Svc3E.o
 .bss           0x340c1090        0x0 obj/external/Components/Dcm/Implementation/Dcm_Svc85.o
 .bss           0x340c1090        0x0 obj/external/Components/Dcm/Implementation/Dcm_Tmr.o
 .bss           0x340c1090        0x0 obj/external/Components/Dcm/Implementation/Dcm_Tsk.o
 .bss           0x340c1090        0x0 obj/external/Components/Dcm/Implementation/Dcm_Uti.o
 .bss           0x340c1090        0x0 obj/external/Components/Dcm/Implementation/Dcm_VarMgr.o
 .bss           0x340c1090        0x0 obj/external/Components/Dem/Implementation/Dem.o
 .bss           0x340c1090        0x0 obj/external/Components/Det/Implementation/Det.o
 .bss           0x340c1090        0x0 obj/external/Components/EcuM/Implementation/EcuM.o
 .bss           0x340c1090        0x0 obj/external/Components/Fee/Implementation/Fee.o
 .bss           0x340c1090        0x0 obj/external/Components/Fee/Implementation/Fee_ChunkInfo.o
 .bss           0x340c1090        0x0 obj/external/Components/Fee/Implementation/Fee_LookUpTable.o
 .bss           0x340c1090        0x0 obj/external/Components/Fee/Implementation/Fee_Partition.o
 .bss           0x340c1090        0x0 obj/external/Components/Fee/Implementation/Fee_Processing.o
 .bss           0x340c1090        0x0 obj/external/Components/Fee/Implementation/Fee_Sector.o
 .bss           0x340c1090        0x0 obj/external/Components/IpduM/Implementation/IpduM.o
 .bss           0x340c1090        0x0 obj/external/Components/IpduM/Implementation/IpduM_Container.o
 .bss           0x340c1090        0x0 obj/external/Components/IpduM/Implementation/IpduM_Mux.o
 .bss           0x340c1090        0x0 obj/external/Components/MemIf/Implementation/MemIf.o
 .bss           0x340c1090        0x0 obj/external/Components/Nm/Implementation/Nm.o
 .bss           0x340c1090        0x0 obj/external/Components/NvM/Implementation/NvM.o
 .bss           0x340c1090        0x0 obj/external/Components/NvM/Implementation/NvM_Act.o
 .bss           0x340c1090        0x0 obj/external/Components/NvM/Implementation/NvM_Crc.o
 .bss           0x340c1090        0x0 obj/external/Components/NvM/Implementation/NvM_DataIntegrity.o
 .bss           0x340c1090        0x0 obj/external/Components/NvM/Implementation/NvM_JobProc.o
 .bss           0x340c1090        0x0 obj/external/Components/NvM/Implementation/NvM_Mac.o
 .bss           0x340c1090        0x0 obj/external/Components/NvM/Implementation/NvM_MemIfAbstraction.o
 .bss           0x340c1090        0x0 obj/external/Components/NvM/Implementation/NvM_MemIfMemoryCore.o
 .bss           0x340c1090        0x0 obj/external/Components/NvM/Implementation/NvM_Qry.o
 .bss           0x340c1090        0x0 obj/external/Components/NvM/Implementation/NvM_Queue.o
 .bss           0x340c1090        0x0 obj/external/Components/Os/Implementation/Os_AccessCheck.o
 .bss           0x340c1090        0x0 obj/external/Components/Os/Implementation/Os_Alarm.o
 .bss           0x340c1090        0x0 obj/external/Components/Os/Implementation/Os_Application.o
 .bss           0x340c1090        0x0 obj/external/Components/Os/Implementation/Os_Barrier.o
 .bss           0x340c1090        0x0 obj/external/Components/Os/Implementation/Os_Bit.o
 .bss           0x340c1090        0x0 obj/external/Components/Os/Implementation/Os_BitArray.o
 .bss           0x340c1090        0x0 obj/external/Components/Os/Implementation/Os_Core.o
 .bss           0x340c1090        0x0 obj/external/Components/Os/Implementation/Os_Counter.o
 .bss           0x340c1090        0x0 obj/external/Components/Os/Implementation/Os_Deque.o
 .bss           0x340c1090        0x0 obj/external/Components/Os/Implementation/Os_Error.o
 .bss           0x340c1090        0x0 obj/external/Components/Os/Implementation/Os_Event.o
 .bss           0x340c1090        0x0 obj/external/Components/Os/Implementation/Os_Fifo.o
 .bss           0x340c1090        0x0 obj/external/Components/Os/Implementation/Os_Fifo08.o
 .bss           0x340c1090        0x0 obj/external/Components/Os/Implementation/Os_Fifo16.o
 .bss           0x340c1090        0x0 obj/external/Components/Os/Implementation/Os_Fifo32.o
 .bss           0x340c1090        0x0 obj/external/Components/Os/Implementation/Os_FifoRef.o
 .bss           0x340c1090        0x0 obj/external/Components/Os/Implementation/Os_Hal_Compiler_Arm.o
 .bss           0x340c1090        0x0 obj/external/Components/Os/Implementation/Os_Hal_Compiler_Iar.o
 .bss           0x340c1090        0x0 obj/external/Components/Os/Implementation/Os_Hal_Context.o
 .bss           0x340c1090        0x0 obj/external/Components/Os/Implementation/Os_Hal_Core.o
 .bss           0x340c1090        0x0 obj/external/Components/Os/Implementation/Os_Hal_Entry.o
 .bss           0x340c1090        0x0 obj/external/Components/Os/Implementation/Os_Hook.o
 .bss           0x340c1090        0x0 obj/external/Components/Os/Implementation/Os_Interrupt.o
 .bss           0x340c1090        0x0 obj/external/Components/Os/Implementation/Os_Ioc.o
 .bss           0x340c1090        0x0 obj/external/Components/Os/Implementation/Os_Isr.o
 .bss           0x340c1090        0x0 obj/external/Components/Os/Implementation/Os_Job.o
 .bss           0x340c1090        0x0 obj/external/Components/Os/Implementation/Os_Lock.o
 .bss           0x340c1090        0x0 obj/external/Components/Os/Implementation/Os_MemoryProtection.o
 .bss           0x340c1090        0x0 obj/external/Components/Os/Implementation/Os_Peripheral.o
 .bss           0x340c1090        0x0 obj/external/Components/Os/Implementation/Os_PriorityQueue.o
 .bss           0x340c1090        0x0 obj/external/Components/Os/Implementation/Os_Resource.o
 .bss           0x340c1090        0x0 obj/external/Components/Os/Implementation/Os_ScheduleTable.o
 .bss           0x340c1090        0x0 obj/external/Components/Os/Implementation/Os_Scheduler.o
 .bss           0x340c1090        0x0 obj/external/Components/Os/Implementation/Os_ServiceFunction.o
 .bss           0x340c1090        0x0 obj/external/Components/Os/Implementation/Os_Spinlock.o
 .bss           0x340c1090        0x0 obj/external/Components/Os/Implementation/Os_Stack.o
 .bss           0x340c1090        0x0 obj/external/Components/Os/Implementation/Os_Task.o
 .bss           0x340c1090        0x0 obj/external/Components/Os/Implementation/Os_Thread.o
 .bss           0x340c1090        0x0 obj/external/Components/Os/Implementation/Os_Timer.o
 .bss           0x340c1090        0x0 obj/external/Components/Os/Implementation/Os_TimingProtection.o
 .bss           0x340c1090        0x0 obj/external/Components/Os/Implementation/Os_Trace.o
 .bss           0x340c1090        0x0 obj/external/Components/Os/Implementation/Os_Trap.o
 .bss           0x340c1090        0x0 obj/external/Components/Os/Implementation/Os_XSignal.o
 .bss           0x340c1090        0x0 obj/external/Components/PduR/Implementation/PduR.o
 .bss           0x340c1090        0x0 obj/external/Components/PduR/Implementation/PduR_Bm.o
 .bss           0x340c1090        0x0 obj/external/Components/PduR/Implementation/PduR_Fm.o
 .bss           0x340c1090        0x0 obj/external/Components/PduR/Implementation/PduR_IFQ.o
 .bss           0x340c1090        0x0 obj/external/Components/PduR/Implementation/PduR_Lock.o
 .bss           0x340c1090        0x0 obj/external/Components/PduR/Implementation/PduR_McQ.o
 .bss           0x340c1090        0x0 obj/external/Components/PduR/Implementation/PduR_RmIf.o
 .bss           0x340c1090        0x0 obj/external/Components/PduR/Implementation/PduR_RmTp.o
 .bss           0x340c1090        0x0 obj/external/Components/PduR/Implementation/PduR_RmTp_TxInst.o
 .bss           0x340c1090        0x0 obj/external/Components/PduR/Implementation/PduR_Sm.o
 .bss           0x340c1090        0x0 obj/external/Components/VStdLib/Implementation/vstdlib.o
 .bss           0x340c1090        0x0 obj/external/Components/Xcp/Implementation/Xcp.o
 .bss           0x340c1090        0x0 obj/external/ThirdParty/Mcal_S32x/Supply/SW32G_RTD_4.4_3.0.4/eclipse/plugins/Base_TS_T40D11M30I4R0/src/OsIf_Interrupts.o
 .bss           0x340c1090        0x0 obj/external/ThirdParty/Mcal_S32x/Supply/SW32G_RTD_4.4_3.0.4/eclipse/plugins/Base_TS_T40D11M30I4R0/src/OsIf_Timer.o
 .bss           0x340c1090        0x0 obj/external/ThirdParty/Mcal_S32x/Supply/SW32G_RTD_4.4_3.0.4/eclipse/plugins/Base_TS_T40D11M30I4R0/src/OsIf_Timer_System.o
 .bss           0x340c1090        0x0 obj/external/ThirdParty/Mcal_S32x/Supply/SW32G_RTD_4.4_3.0.4/eclipse/plugins/Base_TS_T40D11M30I4R0/src/OsIf_Timer_System_Internal_Systick.o
 .bss           0x340c1090        0x0 obj/external/ThirdParty/Mcal_S32x/Supply/SW32G_RTD_4.4_3.0.4/eclipse/plugins/Dio_TS_T40D11M30I4R0/src/Dio.o
 .bss           0x340c1090        0x0 obj/external/ThirdParty/Mcal_S32x/Supply/SW32G_RTD_4.4_3.0.4/eclipse/plugins/Dio_TS_T40D11M30I4R0/src/Dio_Ipw.o
 .bss           0x340c1090        0x0 obj/external/ThirdParty/Mcal_S32x/Supply/SW32G_RTD_4.4_3.0.4/eclipse/plugins/Dio_TS_T40D11M30I4R0/src/Siul2_Dio_Ip.o
 .bss           0x340c1090        0x0 obj/external/ThirdParty/Mcal_S32x/Supply/SW32G_RTD_4.4_3.0.4/eclipse/plugins/Fls_TS_T40D11M30I4R0/src/Fls.o
 .bss           0x340c1090        0x0 obj/external/ThirdParty/Mcal_S32x/Supply/SW32G_RTD_4.4_3.0.4/eclipse/plugins/Fls_TS_T40D11M30I4R0/src/Fls_IPW.o
 .bss           0x340c1090        0x0 obj/external/ThirdParty/Mcal_S32x/Supply/SW32G_RTD_4.4_3.0.4/eclipse/plugins/Fls_TS_T40D11M30I4R0/src/Qspi_Ip.o
 .bss           0x340c1090        0x0 obj/external/ThirdParty/Mcal_S32x/Supply/SW32G_RTD_4.4_3.0.4/eclipse/plugins/Fls_TS_T40D11M30I4R0/src/Qspi_Ip_Controller.o
 .bss           0x340c1090        0x0 obj/external/ThirdParty/Mcal_S32x/Supply/SW32G_RTD_4.4_3.0.4/eclipse/plugins/Fls_TS_T40D11M30I4R0/src/Qspi_Ip_Sfdp.o
 .bss           0x340c1090        0x0 obj/external/ThirdParty/Mcal_S32x/Supply/SW32G_RTD_4.4_3.0.4/eclipse/plugins/Mcl_TS_T40D11M30I4R0/src/CDD_Mcl.o
 .bss           0x340c1090        0x0 obj/external/ThirdParty/Mcal_S32x/Supply/SW32G_RTD_4.4_3.0.4/eclipse/plugins/Mcl_TS_T40D11M30I4R0/src/Dma_Ip.o
 .bss           0x340c1090        0x0 obj/external/ThirdParty/Mcal_S32x/Supply/SW32G_RTD_4.4_3.0.4/eclipse/plugins/Mcl_TS_T40D11M30I4R0/src/Dma_Ip_Driver_State.o
 .bss           0x340c1090        0x0 obj/external/ThirdParty/Mcal_S32x/Supply/SW32G_RTD_4.4_3.0.4/eclipse/plugins/Mcl_TS_T40D11M30I4R0/src/Dma_Ip_Hw_Access.o
 .bss           0x340c1090        0x0 obj/external/ThirdParty/Mcal_S32x/Supply/SW32G_RTD_4.4_3.0.4/eclipse/plugins/Mcl_TS_T40D11M30I4R0/src/Dma_Ip_Irq.o
 .bss           0x340c1090        0x0 obj/external/ThirdParty/Mcal_S32x/Supply/SW32G_RTD_4.4_3.0.4/eclipse/plugins/Mcl_TS_T40D11M30I4R0/src/Dma_Ip_Multicore.o
 .bss           0x340c1090        0x0 obj/external/ThirdParty/Mcal_S32x/Supply/SW32G_RTD_4.4_3.0.4/eclipse/plugins/Mcl_TS_T40D11M30I4R0/src/Ftm_Mcl_Ip.o
 .bss           0x340c1090        0x1 obj/external/ThirdParty/Mcal_S32x/Supply/SW32G_RTD_4.4_3.0.4/eclipse/plugins/Mcu_TS_T40D11M30I4R0/src/Clock_Ip.o
 .bss           0x340c1091        0x0 obj/external/ThirdParty/Mcal_S32x/Supply/SW32G_RTD_4.4_3.0.4/eclipse/plugins/Mcu_TS_T40D11M30I4R0/src/Clock_Ip_Data.o
 .bss           0x340c1091        0x0 obj/external/ThirdParty/Mcal_S32x/Supply/SW32G_RTD_4.4_3.0.4/eclipse/plugins/Mcu_TS_T40D11M30I4R0/src/Clock_Ip_Data1.o
 .bss           0x340c1091        0x0 obj/external/ThirdParty/Mcal_S32x/Supply/SW32G_RTD_4.4_3.0.4/eclipse/plugins/Mcu_TS_T40D11M30I4R0/src/Clock_Ip_Data2.o
 .bss           0x340c1091        0x0 obj/external/ThirdParty/Mcal_S32x/Supply/SW32G_RTD_4.4_3.0.4/eclipse/plugins/Mcu_TS_T40D11M30I4R0/src/Clock_Ip_Divider.o
 .bss           0x340c1091        0x0 obj/external/ThirdParty/Mcal_S32x/Supply/SW32G_RTD_4.4_3.0.4/eclipse/plugins/Mcu_TS_T40D11M30I4R0/src/Clock_Ip_DividerTrigger.o
 .bss           0x340c1091        0x0 obj/external/ThirdParty/Mcal_S32x/Supply/SW32G_RTD_4.4_3.0.4/eclipse/plugins/Mcu_TS_T40D11M30I4R0/src/Clock_Ip_ExtOsc.o
 .bss           0x340c1091        0x0 obj/external/ThirdParty/Mcal_S32x/Supply/SW32G_RTD_4.4_3.0.4/eclipse/plugins/Mcu_TS_T40D11M30I4R0/src/Clock_Ip_FracDiv.o
 .bss           0x340c1091        0x0 obj/external/ThirdParty/Mcal_S32x/Supply/SW32G_RTD_4.4_3.0.4/eclipse/plugins/Mcu_TS_T40D11M30I4R0/src/Clock_Ip_Frequency.o
 .bss           0x340c1091        0x0 obj/external/ThirdParty/Mcal_S32x/Supply/SW32G_RTD_4.4_3.0.4/eclipse/plugins/Mcu_TS_T40D11M30I4R0/src/Clock_Ip_Frequency1.o
 .bss           0x340c1091        0x0 obj/external/ThirdParty/Mcal_S32x/Supply/SW32G_RTD_4.4_3.0.4/eclipse/plugins/Mcu_TS_T40D11M30I4R0/src/Clock_Ip_Frequency2.o
 .bss           0x340c1091        0x0 obj/external/ThirdParty/Mcal_S32x/Supply/SW32G_RTD_4.4_3.0.4/eclipse/plugins/Mcu_TS_T40D11M30I4R0/src/Clock_Ip_Gate.o
 .bss           0x340c1091        0x0 obj/external/ThirdParty/Mcal_S32x/Supply/SW32G_RTD_4.4_3.0.4/eclipse/plugins/Mcu_TS_T40D11M30I4R0/src/Clock_Ip_IntOsc.o
 .bss           0x340c1091        0x0 obj/external/ThirdParty/Mcal_S32x/Supply/SW32G_RTD_4.4_3.0.4/eclipse/plugins/Mcu_TS_T40D11M30I4R0/src/Clock_Ip_Irq.o
 *fill*         0x340c1091        0x3 
 .bss           0x340c1094       0xd0 obj/external/ThirdParty/Mcal_S32x/Supply/SW32G_RTD_4.4_3.0.4/eclipse/plugins/Mcu_TS_T40D11M30I4R0/src/Clock_Ip_Monitor.o
 .bss           0x340c1164        0x0 obj/external/ThirdParty/Mcal_S32x/Supply/SW32G_RTD_4.4_3.0.4/eclipse/plugins/Mcu_TS_T40D11M30I4R0/src/Clock_Ip_Pll.o
 .bss           0x340c1164       0xd0 obj/external/ThirdParty/Mcal_S32x/Supply/SW32G_RTD_4.4_3.0.4/eclipse/plugins/Mcu_TS_T40D11M30I4R0/src/Clock_Ip_ProgFreqSwitch.o
 .bss           0x340c1234        0x0 obj/external/ThirdParty/Mcal_S32x/Supply/SW32G_RTD_4.4_3.0.4/eclipse/plugins/Mcu_TS_T40D11M30I4R0/src/Clock_Ip_Selector.o
 .bss           0x340c1234        0x0 obj/external/ThirdParty/Mcal_S32x/Supply/SW32G_RTD_4.4_3.0.4/eclipse/plugins/Mcu_TS_T40D11M30I4R0/src/Clock_Ip_Specific.o
 .bss           0x340c1234        0x0 obj/external/ThirdParty/Mcal_S32x/Supply/SW32G_RTD_4.4_3.0.4/eclipse/plugins/Mcu_TS_T40D11M30I4R0/src/Clock_Ip_Specific1.o
 .bss           0x340c1234        0x0 obj/external/ThirdParty/Mcal_S32x/Supply/SW32G_RTD_4.4_3.0.4/eclipse/plugins/Mcu_TS_T40D11M30I4R0/src/Clock_Ip_Specific2.o
 .bss           0x340c1234        0x0 obj/external/ThirdParty/Mcal_S32x/Supply/SW32G_RTD_4.4_3.0.4/eclipse/plugins/Mcu_TS_T40D11M30I4R0/src/Mcu.o
 .bss           0x340c1234        0x0 obj/external/ThirdParty/Mcal_S32x/Supply/SW32G_RTD_4.4_3.0.4/eclipse/plugins/Mcu_TS_T40D11M30I4R0/src/Mcu_Dem_Wrapper.o
 .bss           0x340c1234        0x0 obj/external/ThirdParty/Mcal_S32x/Supply/SW32G_RTD_4.4_3.0.4/eclipse/plugins/Mcu_TS_T40D11M30I4R0/src/Mcu_Ipw.o
 .bss           0x340c1234        0x0 obj/external/ThirdParty/Mcal_S32x/Supply/SW32G_RTD_4.4_3.0.4/eclipse/plugins/Mcu_TS_T40D11M30I4R0/src/Power_Ip.o
 .bss           0x340c1234        0x0 obj/external/ThirdParty/Mcal_S32x/Supply/SW32G_RTD_4.4_3.0.4/eclipse/plugins/Mcu_TS_T40D11M30I4R0/src/Power_Ip_CortexA.o
 .bss           0x340c1234        0x0 obj/external/ThirdParty/Mcal_S32x/Supply/SW32G_RTD_4.4_3.0.4/eclipse/plugins/Mcu_TS_T40D11M30I4R0/src/Power_Ip_CortexM7.o
 .bss           0x340c1234        0x0 obj/external/ThirdParty/Mcal_S32x/Supply/SW32G_RTD_4.4_3.0.4/eclipse/plugins/Mcu_TS_T40D11M30I4R0/src/Power_Ip_MC_ME.o
 .bss           0x340c1234        0x0 obj/external/ThirdParty/Mcal_S32x/Supply/SW32G_RTD_4.4_3.0.4/eclipse/plugins/Mcu_TS_T40D11M30I4R0/src/Power_Ip_MC_RGM.o
 .bss           0x340c1234        0x0 obj/external/ThirdParty/Mcal_S32x/Supply/SW32G_RTD_4.4_3.0.4/eclipse/plugins/Mcu_TS_T40D11M30I4R0/src/Power_Ip_MC_RGM_Irq.o
 .bss           0x340c1234        0x0 obj/external/ThirdParty/Mcal_S32x/Supply/SW32G_RTD_4.4_3.0.4/eclipse/plugins/Mcu_TS_T40D11M30I4R0/src/Power_Ip_MSCM.o
 .bss           0x340c1234        0x0 obj/external/ThirdParty/Mcal_S32x/Supply/SW32G_RTD_4.4_3.0.4/eclipse/plugins/Mcu_TS_T40D11M30I4R0/src/Power_Ip_PMC.o
 .bss           0x340c1234        0x0 obj/external/ThirdParty/Mcal_S32x/Supply/SW32G_RTD_4.4_3.0.4/eclipse/plugins/Mcu_TS_T40D11M30I4R0/src/Power_Ip_Private.o
 .bss           0x340c1234        0x0 obj/external/ThirdParty/Mcal_S32x/Supply/SW32G_RTD_4.4_3.0.4/eclipse/plugins/Mcu_TS_T40D11M30I4R0/src/Ram_Ip.o
 .bss           0x340c1234        0x0 obj/external/ThirdParty/Mcal_S32x/Supply/SW32G_RTD_4.4_3.0.4/eclipse/plugins/Port_TS_T40D11M30I4R0/src/Port.o
 .bss           0x340c1234        0x0 obj/external/ThirdParty/Mcal_S32x/Supply/SW32G_RTD_4.4_3.0.4/eclipse/plugins/Port_TS_T40D11M30I4R0/src/Port_Ipw.o
 .bss           0x340c1234        0x0 obj/external/ThirdParty/Mcal_S32x/Supply/SW32G_RTD_4.4_3.0.4/eclipse/plugins/Port_TS_T40D11M30I4R0/src/Siul2_Port_Ip.o
 .bss           0x340c1234        0x0 obj/external/ap-cp-gateway/Appl/GenData/BswM_Lcfg.o
 .bss           0x340c1234        0x0 obj/external/ap-cp-gateway/Appl/GenData/CanIf_Lcfg.o
 .bss           0x340c1234        0x0 obj/external/ap-cp-gateway/Appl/GenData/CanIf_PBcfg.o
 .bss           0x340c1234        0x0 obj/external/ap-cp-gateway/Appl/GenData/CanNm_Cfg.o
 .bss           0x340c1234        0x0 obj/external/ap-cp-gateway/Appl/GenData/CanNm_Lcfg.o
 .bss           0x340c1234        0x0 obj/external/ap-cp-gateway/Appl/GenData/CanNm_PBcfg.o
 .bss           0x340c1234        0x0 obj/external/ap-cp-gateway/Appl/GenData/CanSM_Lcfg.o
 .bss           0x340c1234        0x0 obj/external/ap-cp-gateway/Appl/GenData/CanTp_Lcfg.o
 .bss           0x340c1234        0x0 obj/external/ap-cp-gateway/Appl/GenData/CanTp_PBcfg.o
 .bss           0x340c1234        0x0 obj/external/ap-cp-gateway/Appl/GenData/CanXcp_Lcfg.o
 .bss           0x340c1234        0x0 obj/external/ap-cp-gateway/Appl/GenData/CanXcp_PBcfg.o
 .bss           0x340c1234        0x0 obj/external/ap-cp-gateway/Appl/GenData/Can_30_Flexcan4_Lcfg.o
 .bss           0x340c1234        0x0 obj/external/ap-cp-gateway/Appl/GenData/Can_30_Flexcan4_PBcfg.o
 .bss           0x340c1234        0x0 obj/external/ap-cp-gateway/Appl/GenData/ComM_Lcfg.o
 .bss           0x340c1234        0x0 obj/external/ap-cp-gateway/Appl/GenData/Com_Lcfg.o
 .bss           0x340c1234        0x0 obj/external/ap-cp-gateway/Appl/GenData/Com_PBcfg.o
 .bss           0x340c1234        0x0 obj/external/ap-cp-gateway/Appl/GenData/Dcm_Lcfg.o
 .bss           0x340c1234        0x0 obj/external/ap-cp-gateway/Appl/GenData/Dcm_PBcfg.o
 .bss           0x340c1234        0x0 obj/external/ap-cp-gateway/Appl/GenData/Dem_Lcfg.o
 .bss           0x340c1234        0x0 obj/external/ap-cp-gateway/Appl/GenData/Dem_PBcfg.o
 .bss           0x340c1234        0x0 obj/external/ap-cp-gateway/Appl/GenData/Det_Cfg.o
 .bss           0x340c1234        0x0 obj/external/ap-cp-gateway/Appl/GenData/EcuM_Cfg.o
 .bss           0x340c1234        0x0 obj/external/ap-cp-gateway/Appl/GenData/EcuM_Init_Cfg.o
 .bss           0x340c1234        0x0 obj/external/ap-cp-gateway/Appl/GenData/EcuM_Init_PBcfg.o
 .bss           0x340c1234        0x0 obj/external/ap-cp-gateway/Appl/GenData/EcuM_PBcfg.o
 .bss           0x340c1234        0x0 obj/external/ap-cp-gateway/Appl/GenData/Fee_Lcfg.o
 .bss           0x340c1234        0x0 obj/external/ap-cp-gateway/Appl/GenData/IpduM_Lcfg.o
 .bss           0x340c1234        0x0 obj/external/ap-cp-gateway/Appl/GenData/IpduM_PBcfg.o
 .bss           0x340c1234        0x0 obj/external/ap-cp-gateway/Appl/GenData/MemIf_Cfg.o
 .bss           0x340c1234        0x0 obj/external/ap-cp-gateway/Appl/GenData/Nm_Cfg.o
 .bss           0x340c1234        0x0 obj/external/ap-cp-gateway/Appl/GenData/Nm_Lcfg.o
 .bss           0x340c1234        0x0 obj/external/ap-cp-gateway/Appl/GenData/NvM_Cfg.o
 .bss           0x340c1234        0x0 obj/external/ap-cp-gateway/Appl/GenData/Os_AccessCheck_Lcfg.o
 .bss           0x340c1234        0x0 obj/external/ap-cp-gateway/Appl/GenData/Os_Alarm_Lcfg.o
 .bss           0x340c1234        0x0 obj/external/ap-cp-gateway/Appl/GenData/Os_Application_Lcfg.o
 .bss           0x340c1234        0x0 obj/external/ap-cp-gateway/Appl/GenData/Os_Barrier_Lcfg.o
 .bss           0x340c1234        0x0 obj/external/ap-cp-gateway/Appl/GenData/Os_Core_Lcfg.o
 .bss           0x340c1234        0x0 obj/external/ap-cp-gateway/Appl/GenData/Os_Counter_Lcfg.o
 .bss           0x340c1234        0x0 obj/external/ap-cp-gateway/Appl/GenData/Os_Error_Lcfg.o
 .bss           0x340c1234        0x0 obj/external/ap-cp-gateway/Appl/GenData/Os_Hal_Context_Lcfg.o
 .bss           0x340c1234        0x0 obj/external/ap-cp-gateway/Appl/GenData/Os_Hal_Core_Lcfg.o
 .bss           0x340c1234        0x0 obj/external/ap-cp-gateway/Appl/GenData/Os_Hal_Entry_Lcfg.o
 .bss           0x340c1234        0x0 obj/external/ap-cp-gateway/Appl/GenData/Os_Hal_Interrupt_Lcfg.o
 .bss           0x340c1234        0x0 obj/external/ap-cp-gateway/Appl/GenData/Os_Hal_Kernel_Lcfg.o
 .bss           0x340c1234        0x0 obj/external/ap-cp-gateway/Appl/GenData/Os_Hal_MemoryProtection_Lcfg.o
 .bss           0x340c1234        0x0 obj/external/ap-cp-gateway/Appl/GenData/Os_Hal_Timer_Lcfg.o
 .bss           0x340c1234        0x0 obj/external/ap-cp-gateway/Appl/GenData/Os_Hook_Lcfg.o
 .bss           0x340c1234        0x0 obj/external/ap-cp-gateway/Appl/GenData/Os_Ioc_Lcfg.o
 .bss           0x340c1234        0x0 obj/external/ap-cp-gateway/Appl/GenData/Os_Isr_Lcfg.o
 .bss           0x340c1234        0x0 obj/external/ap-cp-gateway/Appl/GenData/Os_MemoryProtection_Lcfg.o
 .bss           0x340c1234        0x0 obj/external/ap-cp-gateway/Appl/GenData/Os_Peripheral_Lcfg.o
 .bss           0x340c1234        0x0 obj/external/ap-cp-gateway/Appl/GenData/Os_Resource_Lcfg.o
 .bss           0x340c1234        0x0 obj/external/ap-cp-gateway/Appl/GenData/Os_ScheduleTable_Lcfg.o
 .bss           0x340c1234        0x0 obj/external/ap-cp-gateway/Appl/GenData/Os_Scheduler_Lcfg.o
 .bss           0x340c1234        0x0 obj/external/ap-cp-gateway/Appl/GenData/Os_ServiceFunction_Lcfg.o
 .bss           0x340c1234        0x0 obj/external/ap-cp-gateway/Appl/GenData/Os_Spinlock_Lcfg.o
 .bss           0x340c1234        0x0 obj/external/ap-cp-gateway/Appl/GenData/Os_Stack_Lcfg.o
 .bss           0x340c1234        0x0 obj/external/ap-cp-gateway/Appl/GenData/Os_Task_Lcfg.o
 .bss           0x340c1234        0x0 obj/external/ap-cp-gateway/Appl/GenData/Os_TimingProtection_Lcfg.o
 .bss           0x340c1234        0x0 obj/external/ap-cp-gateway/Appl/GenData/Os_Trace_Lcfg.o
 .bss           0x340c1234        0x0 obj/external/ap-cp-gateway/Appl/GenData/Os_XSignal_Lcfg.o
 .bss           0x340c1234        0x0 obj/external/ap-cp-gateway/Appl/GenData/PduR_Lcfg.o
 .bss           0x340c1234        0x0 obj/external/ap-cp-gateway/Appl/GenData/PduR_PBcfg.o
 .bss           0x340c1234        0x0 obj/external/ap-cp-gateway/Appl/GenData/Rte.o
 .bss           0x340c1234        0x0 obj/external/ap-cp-gateway/Appl/GenData/Xcp_Lcfg.o
 .bss           0x340c1234        0x0 obj/external/ap-cp-gateway/Appl/GenData/src/CDD_Mcl_Cfg.o
 .bss           0x340c1234        0x0 obj/external/ap-cp-gateway/Appl/GenData/src/CDD_Mcl_PBcfg.o
 .bss           0x340c1234        0x0 obj/external/ap-cp-gateway/Appl/GenData/src/Clock_Ip_Cfg.o
 .bss           0x340c1234        0x0 obj/external/ap-cp-gateway/Appl/GenData/src/Clock_Ip_PBcfg.o
 .bss           0x340c1234        0x0 obj/external/ap-cp-gateway/Appl/GenData/src/Dio_Cfg.o
 .bss           0x340c1234        0x0 obj/external/ap-cp-gateway/Appl/GenData/src/Dma_Ip_Cfg.o
 .bss           0x340c1234        0x0 obj/external/ap-cp-gateway/Appl/GenData/src/Dma_Ip_PBcfg.o
 .bss           0x340c1234        0x0 obj/external/ap-cp-gateway/Appl/GenData/src/Fls_Cfg.o
 .bss           0x340c1234        0x0 obj/external/ap-cp-gateway/Appl/GenData/src/Fls_PBcfg.o
 .bss           0x340c1234        0x0 obj/external/ap-cp-gateway/Appl/GenData/src/Mcu_Cfg.o
 .bss           0x340c1234        0x0 obj/external/ap-cp-gateway/Appl/GenData/src/Mcu_PBcfg.o
 .bss           0x340c1234        0x0 obj/external/ap-cp-gateway/Appl/GenData/src/OsIf_Cfg.o
 .bss           0x340c1234        0x0 obj/external/ap-cp-gateway/Appl/GenData/src/Port_Cfg.o
 .bss           0x340c1234        0x0 obj/external/ap-cp-gateway/Appl/GenData/src/Port_PBcfg.o
 .bss           0x340c1234        0x0 obj/external/ap-cp-gateway/Appl/GenData/src/Power_Ip_Cfg.o
 .bss           0x340c1234        0x0 obj/external/ap-cp-gateway/Appl/GenData/src/Power_Ip_PBcfg.o
 .bss           0x340c1234        0x0 obj/external/ap-cp-gateway/Appl/GenData/src/Qspi_Ip_PBcfg.o
 .bss           0x340c1234        0x0 obj/external/ap-cp-gateway/Appl/GenData/src/Ram_Ip_Cfg.o
 .bss           0x340c1234        0x0 obj/external/ap-cp-gateway/Appl/GenData/src/Ram_Ip_PBcfg.o
 .bss           0x340c1234        0x0 obj/external/ap-cp-gateway/Appl/GenData/src/Siul2_Port_Ip_PBcfg.o
 .bss           0x340c1234        0x0 obj/external/ap-cp-gateway/Appl/GenData/vBrs_Lcfg.o
 .bss           0x340c1234        0x0 obj/external/ap-cp-gateway/Appl/GenData/vLinkGen_Lcfg.o
 .bss           0x340c1234        0x0 obj/external/ap-cp-gateway/Appl/Source/ARMBrsHwIntTb_CortexM.o
 .bss           0x340c1234        0x2 obj/external/ap-cp-gateway/Appl/Source/ARMBrsHw_CortexM.o
                0x340c1234                brsDisIntITmp
                0x340c1235                brsDisIntPrioTmp
 .bss           0x340c1236        0x0 obj/external/ap-cp-gateway/Appl/Source/ARMStartup_CortexM.o
 .bss           0x340c1236        0x0 obj/external/ap-cp-gateway/Appl/Source/BrsHw.o
 .bss           0x340c1236        0x0 obj/external/ap-cp-gateway/Appl/Source/BrsMain.o
 .bss           0x340c1236        0x0 obj/external/ap-cp-gateway/Appl/Source/BrsMainStartup.o
 .bss           0x340c1236        0x0 obj/external/ap-cp-gateway/Appl/Source/BrsMain_Callout_Stubs.o
 .bss           0x340c1236        0x0 obj/external/ap-cp-gateway/Appl/Source/BswInit.o
 .bss           0x340c1236        0x0 obj/external/ap-cp-gateway/Appl/Source/BswM_Callout_Stubs.o
 .bss           0x340c1236        0x0 obj/external/ap-cp-gateway/Appl/Source/Dcm_Callout_Stubs.o
 .bss           0x340c1236        0x0 obj/external/ap-cp-gateway/Appl/Source/EcuM_Callout_Stubs.o
 .bss           0x340c1236        0x0 obj/external/ap-cp-gateway/Appl/Source/Os_Callout_Stubs.o
 .bss           0x340c1236        0x0 obj/external/ap-cp-gateway/Appl/Source/XcpAppl.o
 .bss           0x340c1236        0x0 obj/external/ap-cp-gateway/Appl/Source/ipc-shm/Cdd_Ipc.o
 .bss           0x340c1236        0x0 obj/external/ap-cp-gateway/Appl/Source/ipc-shm/Cdd_Ipc_Lcfg.o
 .bss           0x340c1236        0x0 obj/external/ap-cp-gateway/Appl/Source/ipc-shm/common/ipc-queue.o
 *fill*         0x340c1236        0x2 
 .bss           0x340c1238     0x1430 obj/external/ap-cp-gateway/Appl/Source/ipc-shm/common/ipc-shm.o
 .bss           0x340c2668       0x40 obj/external/ap-cp-gateway/Appl/Source/ipc-shm/hw/s32gen1/ipc-hw-s32gen1.o
 .bss           0x340c26a8       0x48 obj/external/ap-cp-gateway/Appl/Source/ipc-shm/os/autosar/ipc-os-autosar.o
 .bss           0x340c26f0        0x0 C:/TOOLS/NXP/gcc-9.2-arm32-eabi/arm-none-eabi/newlib/lib/thumb/v7-m/nofp\libc.a(lib_a-memcpy-stub.o)
 .bss           0x340c26f0        0x0 C:/TOOLS/NXP/gcc-9.2-arm32-eabi/arm-none-eabi/newlib/lib/thumb/v7-m/nofp\libc.a(lib_a-memset.o)
 *(.bss.*)
 *(COMMON)
                0x340c26f0                . = ALIGN (0x4)
                0x340c26ef                _bss_END = ABSOLUTE ((. - 0x1))
                0x340c26f0                _bss_LIMIT = ABSOLUTE (.)

.data           0x340c26f0       0x74
                0x340c26f0                _data_START = ABSOLUTE (.)
 *(*.data)
 .data          0x340c26f0        0x0 obj/external/Components/Os/Implementation/Os_Hal_Compiler_TiInt.o
 .data          0x340c26f0        0x0 obj/external/Components/Os/Implementation/Os_Hal_ContextAsm.o
 .data          0x340c26f0        0x0 obj/external/ap-cp-gateway/Appl/GenData/Os_Hal_EntryAsm_Lcfg.o
 .data          0x340c26f0        0x0 obj/external/Components/BswM/Implementation/BswM.o
 .data          0x340c26f0        0x0 obj/external/Components/CanIf/Implementation/CanIf.o
 .data          0x340c26f0        0x0 obj/external/Components/CanNm/Implementation/CanNm.o
 .data          0x340c26f0        0x0 obj/external/Components/CanSM/Implementation/CanSM.o
 .data          0x340c26f0        0x0 obj/external/Components/CanTp/Implementation/CanTp.o
 .data          0x340c26f0        0x0 obj/external/Components/CanXcp/Implementation/CanXcp.o
 .data          0x340c26f0        0x0 obj/external/Components/Can_30_Flexcan4/Implementation/Can_30_Flexcan4.o
 .data          0x340c26f0        0x0 obj/external/Components/Can_30_Flexcan4/Implementation/Can_30_Flexcan4_Irq.o
 .data          0x340c26f0        0x0 obj/external/Components/Com/Implementation/Com.o
 .data          0x340c26f0        0x0 obj/external/Components/Com/Implementation/Com_Buffers.o
 .data          0x340c26f0        0x0 obj/external/Components/Com/Implementation/Com_CprQueue.o
 .data          0x340c26f0        0x0 obj/external/Components/Com/Implementation/Com_CprQueueDescrGw.o
 .data          0x340c26f0        0x0 obj/external/Components/Com/Implementation/Com_CprQueueSigGw.o
 .data          0x340c26f0        0x0 obj/external/Components/Com/Implementation/Com_DescriptionGateway.o
 .data          0x340c26f0        0x0 obj/external/Components/Com/Implementation/Com_Deserializer.o
 .data          0x340c26f0        0x0 obj/external/Components/Com/Implementation/Com_IPduGroupHdlr.o
 .data          0x340c26f0        0x0 obj/external/Components/Com/Implementation/Com_LLIf.o
 .data          0x340c26f0        0x0 obj/external/Components/Com/Implementation/Com_LMgt.o
 .data          0x340c26f0        0x0 obj/external/Components/Com/Implementation/Com_MainFunctions.o
 .data          0x340c26f0        0x0 obj/external/Components/Com/Implementation/Com_Notifications.o
 .data          0x340c26f0        0x0 obj/external/Components/Com/Implementation/Com_RxInv.o
 .data          0x340c26f0        0x0 obj/external/Components/Com/Implementation/Com_RxProcessing.o
 .data          0x340c26f0        0x0 obj/external/Components/Com/Implementation/Com_Serializer.o
 .data          0x340c26f0        0x0 obj/external/Components/Com/Implementation/Com_SignalFilterHdlr.o
 .data          0x340c26f0        0x0 obj/external/Components/Com/Implementation/Com_SignalGateway.o
 .data          0x340c26f0        0x0 obj/external/Components/Com/Implementation/Com_SignalIf.o
 .data          0x340c26f0        0x0 obj/external/Components/Com/Implementation/Com_Timer.o
 .data          0x340c26f0        0x0 obj/external/Components/Com/Implementation/Com_TxModeHdlr.o
 .data          0x340c26f0        0x0 obj/external/Components/ComM/Implementation/ComM.o
 .data          0x340c26f0        0x0 obj/external/Components/Crc/Implementation/Crc.o
 .data          0x340c26f0        0x0 obj/external/Components/Dcm/Implementation/Dcm.o
 .data          0x340c26f0        0x0 obj/external/Components/Dcm/Implementation/Dcm_AuthMgr.o
 .data          0x340c26f0        0x0 obj/external/Components/Dcm/Implementation/Dcm_CfgWrap.o
 .data          0x340c26f0        0x0 obj/external/Components/Dcm/Implementation/Dcm_Debug.o
 .data          0x340c26f0        0x0 obj/external/Components/Dcm/Implementation/Dcm_DemIf.o
 .data          0x340c26f0        0x0 obj/external/Components/Dcm/Implementation/Dcm_Diag.o
 .data          0x340c26f0        0x0 obj/external/Components/Dcm/Implementation/Dcm_DidMgr.o
 .data          0x340c26f0        0x0 obj/external/Components/Dcm/Implementation/Dcm_Ext.o
 .data          0x340c26f0        0x0 obj/external/Components/Dcm/Implementation/Dcm_FblMgr.o
 .data          0x340c26f0        0x0 obj/external/Components/Dcm/Implementation/Dcm_MemMgr.o
 .data          0x340c26f0        0x0 obj/external/Components/Dcm/Implementation/Dcm_Mode.o
 .data          0x340c26f0        0x0 obj/external/Components/Dcm/Implementation/Dcm_Net.o
 .data          0x340c26f0        0x0 obj/external/Components/Dcm/Implementation/Dcm_ObdDtcMgr.o
 .data          0x340c26f0        0x0 obj/external/Components/Dcm/Implementation/Dcm_ObdIdMgr.o
 .data          0x340c26f0        0x0 obj/external/Components/Dcm/Implementation/Dcm_PagedBuffer.o
 .data          0x340c26f0        0x0 obj/external/Components/Dcm/Implementation/Dcm_Repeater.o
 .data          0x340c26f0        0x0 obj/external/Components/Dcm/Implementation/Dcm_RidMgr.o
 .data          0x340c26f0        0x0 obj/external/Components/Dcm/Implementation/Dcm_RsrcMgr.o
 .data          0x340c26f0        0x0 obj/external/Components/Dcm/Implementation/Dcm_State.o
 .data          0x340c26f0        0x0 obj/external/Components/Dcm/Implementation/Dcm_Svc01.o
 .data          0x340c26f0        0x0 obj/external/Components/Dcm/Implementation/Dcm_Svc02.o
 .data          0x340c26f0        0x0 obj/external/Components/Dcm/Implementation/Dcm_Svc03.o
 .data          0x340c26f0        0x0 obj/external/Components/Dcm/Implementation/Dcm_Svc04.o
 .data          0x340c26f0        0x0 obj/external/Components/Dcm/Implementation/Dcm_Svc06.o
 .data          0x340c26f0        0x0 obj/external/Components/Dcm/Implementation/Dcm_Svc07.o
 .data          0x340c26f0        0x0 obj/external/Components/Dcm/Implementation/Dcm_Svc08.o
 .data          0x340c26f0        0x0 obj/external/Components/Dcm/Implementation/Dcm_Svc09.o
 .data          0x340c26f0        0x0 obj/external/Components/Dcm/Implementation/Dcm_Svc0A.o
 .data          0x340c26f0        0x0 obj/external/Components/Dcm/Implementation/Dcm_Svc11.o
 .data          0x340c26f0        0x0 obj/external/Components/Dcm/Implementation/Dcm_Svc14.o
 .data          0x340c26f0        0x0 obj/external/Components/Dcm/Implementation/Dcm_Svc19.o
 .data          0x340c26f0        0x0 obj/external/Components/Dcm/Implementation/Dcm_Svc19Uti.o
 .data          0x340c26f0        0x0 obj/external/Components/Dcm/Implementation/Dcm_Svc22.o
 .data          0x340c26f0        0x0 obj/external/Components/Dcm/Implementation/Dcm_Svc23.o
 .data          0x340c26f0        0x0 obj/external/Components/Dcm/Implementation/Dcm_Svc24.o
 .data          0x340c26f0        0x0 obj/external/Components/Dcm/Implementation/Dcm_Svc27.o
 .data          0x340c26f0        0x0 obj/external/Components/Dcm/Implementation/Dcm_Svc28.o
 .data          0x340c26f0        0x0 obj/external/Components/Dcm/Implementation/Dcm_Svc29.o
 .data          0x340c26f0        0x0 obj/external/Components/Dcm/Implementation/Dcm_Svc2A.o
 .data          0x340c26f0        0x0 obj/external/Components/Dcm/Implementation/Dcm_Svc2ASchd.o
 .data          0x340c26f0        0x0 obj/external/Components/Dcm/Implementation/Dcm_Svc2E.o
 .data          0x340c26f0        0x0 obj/external/Components/Dcm/Implementation/Dcm_Svc2F.o
 .data          0x340c26f0        0x0 obj/external/Components/Dcm/Implementation/Dcm_Svc31.o
 .data          0x340c26f0        0x0 obj/external/Components/Dcm/Implementation/Dcm_Svc34.o
 .data          0x340c26f0        0x0 obj/external/Components/Dcm/Implementation/Dcm_Svc36.o
 .data          0x340c26f0        0x0 obj/external/Components/Dcm/Implementation/Dcm_Svc37.o
 .data          0x340c26f0        0x0 obj/external/Components/Dcm/Implementation/Dcm_Svc3D.o
 .data          0x340c26f0        0x0 obj/external/Components/Dcm/Implementation/Dcm_Svc3E.o
 .data          0x340c26f0        0x0 obj/external/Components/Dcm/Implementation/Dcm_Svc85.o
 .data          0x340c26f0        0x0 obj/external/Components/Dcm/Implementation/Dcm_Tmr.o
 .data          0x340c26f0        0x0 obj/external/Components/Dcm/Implementation/Dcm_Tsk.o
 .data          0x340c26f0        0x0 obj/external/Components/Dcm/Implementation/Dcm_Uti.o
 .data          0x340c26f0        0x0 obj/external/Components/Dcm/Implementation/Dcm_VarMgr.o
 .data          0x340c26f0        0x0 obj/external/Components/Dem/Implementation/Dem.o
 .data          0x340c26f0        0x0 obj/external/Components/Det/Implementation/Det.o
 .data          0x340c26f0        0x0 obj/external/Components/EcuM/Implementation/EcuM.o
 .data          0x340c26f0        0x0 obj/external/Components/Fee/Implementation/Fee.o
 .data          0x340c26f0        0x0 obj/external/Components/Fee/Implementation/Fee_ChunkInfo.o
 .data          0x340c26f0        0x0 obj/external/Components/Fee/Implementation/Fee_LookUpTable.o
 .data          0x340c26f0        0x0 obj/external/Components/Fee/Implementation/Fee_Partition.o
 .data          0x340c26f0        0x0 obj/external/Components/Fee/Implementation/Fee_Processing.o
 .data          0x340c26f0        0x0 obj/external/Components/Fee/Implementation/Fee_Sector.o
 .data          0x340c26f0        0x0 obj/external/Components/IpduM/Implementation/IpduM.o
 .data          0x340c26f0        0x0 obj/external/Components/IpduM/Implementation/IpduM_Container.o
 .data          0x340c26f0        0x0 obj/external/Components/IpduM/Implementation/IpduM_Mux.o
 .data          0x340c26f0        0x0 obj/external/Components/MemIf/Implementation/MemIf.o
 .data          0x340c26f0        0x0 obj/external/Components/Nm/Implementation/Nm.o
 .data          0x340c26f0        0x0 obj/external/Components/NvM/Implementation/NvM.o
 .data          0x340c26f0        0x0 obj/external/Components/NvM/Implementation/NvM_Act.o
 .data          0x340c26f0        0x0 obj/external/Components/NvM/Implementation/NvM_Crc.o
 .data          0x340c26f0        0x0 obj/external/Components/NvM/Implementation/NvM_DataIntegrity.o
 .data          0x340c26f0        0x0 obj/external/Components/NvM/Implementation/NvM_JobProc.o
 .data          0x340c26f0        0x0 obj/external/Components/NvM/Implementation/NvM_Mac.o
 .data          0x340c26f0        0x0 obj/external/Components/NvM/Implementation/NvM_MemIfAbstraction.o
 .data          0x340c26f0        0x0 obj/external/Components/NvM/Implementation/NvM_MemIfMemoryCore.o
 .data          0x340c26f0        0x0 obj/external/Components/NvM/Implementation/NvM_Qry.o
 .data          0x340c26f0        0x0 obj/external/Components/NvM/Implementation/NvM_Queue.o
 .data          0x340c26f0        0x0 obj/external/Components/Os/Implementation/Os_AccessCheck.o
 .data          0x340c26f0        0x0 obj/external/Components/Os/Implementation/Os_Alarm.o
 .data          0x340c26f0        0x0 obj/external/Components/Os/Implementation/Os_Application.o
 .data          0x340c26f0        0x0 obj/external/Components/Os/Implementation/Os_Barrier.o
 .data          0x340c26f0        0x0 obj/external/Components/Os/Implementation/Os_Bit.o
 .data          0x340c26f0        0x0 obj/external/Components/Os/Implementation/Os_BitArray.o
 .data          0x340c26f0        0x0 obj/external/Components/Os/Implementation/Os_Core.o
 .data          0x340c26f0        0x0 obj/external/Components/Os/Implementation/Os_Counter.o
 .data          0x340c26f0        0x0 obj/external/Components/Os/Implementation/Os_Deque.o
 .data          0x340c26f0        0x0 obj/external/Components/Os/Implementation/Os_Error.o
 .data          0x340c26f0        0x0 obj/external/Components/Os/Implementation/Os_Event.o
 .data          0x340c26f0        0x0 obj/external/Components/Os/Implementation/Os_Fifo.o
 .data          0x340c26f0        0x0 obj/external/Components/Os/Implementation/Os_Fifo08.o
 .data          0x340c26f0        0x0 obj/external/Components/Os/Implementation/Os_Fifo16.o
 .data          0x340c26f0        0x0 obj/external/Components/Os/Implementation/Os_Fifo32.o
 .data          0x340c26f0        0x0 obj/external/Components/Os/Implementation/Os_FifoRef.o
 .data          0x340c26f0        0x0 obj/external/Components/Os/Implementation/Os_Hal_Compiler_Arm.o
 .data          0x340c26f0        0x0 obj/external/Components/Os/Implementation/Os_Hal_Compiler_Iar.o
 .data          0x340c26f0        0x0 obj/external/Components/Os/Implementation/Os_Hal_Context.o
 .data          0x340c26f0        0x0 obj/external/Components/Os/Implementation/Os_Hal_Core.o
 .data          0x340c26f0        0x0 obj/external/Components/Os/Implementation/Os_Hal_Entry.o
 .data          0x340c26f0        0x0 obj/external/Components/Os/Implementation/Os_Hook.o
 .data          0x340c26f0        0x0 obj/external/Components/Os/Implementation/Os_Interrupt.o
 .data          0x340c26f0        0x0 obj/external/Components/Os/Implementation/Os_Ioc.o
 .data          0x340c26f0        0x0 obj/external/Components/Os/Implementation/Os_Isr.o
 .data          0x340c26f0        0x0 obj/external/Components/Os/Implementation/Os_Job.o
 .data          0x340c26f0        0x0 obj/external/Components/Os/Implementation/Os_Lock.o
 .data          0x340c26f0        0x0 obj/external/Components/Os/Implementation/Os_MemoryProtection.o
 .data          0x340c26f0        0x0 obj/external/Components/Os/Implementation/Os_Peripheral.o
 .data          0x340c26f0        0x0 obj/external/Components/Os/Implementation/Os_PriorityQueue.o
 .data          0x340c26f0        0x0 obj/external/Components/Os/Implementation/Os_Resource.o
 .data          0x340c26f0        0x0 obj/external/Components/Os/Implementation/Os_ScheduleTable.o
 .data          0x340c26f0        0x0 obj/external/Components/Os/Implementation/Os_Scheduler.o
 .data          0x340c26f0        0x0 obj/external/Components/Os/Implementation/Os_ServiceFunction.o
 .data          0x340c26f0        0x0 obj/external/Components/Os/Implementation/Os_Spinlock.o
 .data          0x340c26f0        0x0 obj/external/Components/Os/Implementation/Os_Stack.o
 .data          0x340c26f0        0x0 obj/external/Components/Os/Implementation/Os_Task.o
 .data          0x340c26f0        0x0 obj/external/Components/Os/Implementation/Os_Thread.o
 .data          0x340c26f0        0x0 obj/external/Components/Os/Implementation/Os_Timer.o
 .data          0x340c26f0        0x0 obj/external/Components/Os/Implementation/Os_TimingProtection.o
 .data          0x340c26f0        0x0 obj/external/Components/Os/Implementation/Os_Trace.o
 .data          0x340c26f0        0x0 obj/external/Components/Os/Implementation/Os_Trap.o
 .data          0x340c26f0        0x0 obj/external/Components/Os/Implementation/Os_XSignal.o
 .data          0x340c26f0        0x0 obj/external/Components/PduR/Implementation/PduR.o
 .data          0x340c26f0        0x0 obj/external/Components/PduR/Implementation/PduR_Bm.o
 .data          0x340c26f0        0x0 obj/external/Components/PduR/Implementation/PduR_Fm.o
 .data          0x340c26f0        0x0 obj/external/Components/PduR/Implementation/PduR_IFQ.o
 .data          0x340c26f0        0x0 obj/external/Components/PduR/Implementation/PduR_Lock.o
 .data          0x340c26f0        0x0 obj/external/Components/PduR/Implementation/PduR_McQ.o
 .data          0x340c26f0        0x0 obj/external/Components/PduR/Implementation/PduR_RmIf.o
 .data          0x340c26f0        0x0 obj/external/Components/PduR/Implementation/PduR_RmTp.o
 .data          0x340c26f0        0x0 obj/external/Components/PduR/Implementation/PduR_RmTp_TxInst.o
 .data          0x340c26f0        0x0 obj/external/Components/PduR/Implementation/PduR_Sm.o
 .data          0x340c26f0        0x0 obj/external/Components/VStdLib/Implementation/vstdlib.o
 .data          0x340c26f0        0x0 obj/external/Components/Xcp/Implementation/Xcp.o
 .data          0x340c26f0        0x0 obj/external/ThirdParty/Mcal_S32x/Supply/SW32G_RTD_4.4_3.0.4/eclipse/plugins/Base_TS_T40D11M30I4R0/src/OsIf_Interrupts.o
 .data          0x340c26f0        0x0 obj/external/ThirdParty/Mcal_S32x/Supply/SW32G_RTD_4.4_3.0.4/eclipse/plugins/Base_TS_T40D11M30I4R0/src/OsIf_Timer.o
 .data          0x340c26f0        0x0 obj/external/ThirdParty/Mcal_S32x/Supply/SW32G_RTD_4.4_3.0.4/eclipse/plugins/Base_TS_T40D11M30I4R0/src/OsIf_Timer_System.o
 .data          0x340c26f0        0x0 obj/external/ThirdParty/Mcal_S32x/Supply/SW32G_RTD_4.4_3.0.4/eclipse/plugins/Base_TS_T40D11M30I4R0/src/OsIf_Timer_System_Internal_Systick.o
 .data          0x340c26f0        0x0 obj/external/ThirdParty/Mcal_S32x/Supply/SW32G_RTD_4.4_3.0.4/eclipse/plugins/Dio_TS_T40D11M30I4R0/src/Dio.o
 .data          0x340c26f0        0x0 obj/external/ThirdParty/Mcal_S32x/Supply/SW32G_RTD_4.4_3.0.4/eclipse/plugins/Dio_TS_T40D11M30I4R0/src/Dio_Ipw.o
 .data          0x340c26f0        0x0 obj/external/ThirdParty/Mcal_S32x/Supply/SW32G_RTD_4.4_3.0.4/eclipse/plugins/Dio_TS_T40D11M30I4R0/src/Siul2_Dio_Ip.o
 .data          0x340c26f0        0x0 obj/external/ThirdParty/Mcal_S32x/Supply/SW32G_RTD_4.4_3.0.4/eclipse/plugins/Fls_TS_T40D11M30I4R0/src/Fls.o
 .data          0x340c26f0        0x0 obj/external/ThirdParty/Mcal_S32x/Supply/SW32G_RTD_4.4_3.0.4/eclipse/plugins/Fls_TS_T40D11M30I4R0/src/Fls_IPW.o
 .data          0x340c26f0        0x0 obj/external/ThirdParty/Mcal_S32x/Supply/SW32G_RTD_4.4_3.0.4/eclipse/plugins/Fls_TS_T40D11M30I4R0/src/Qspi_Ip.o
 .data          0x340c26f0        0x0 obj/external/ThirdParty/Mcal_S32x/Supply/SW32G_RTD_4.4_3.0.4/eclipse/plugins/Fls_TS_T40D11M30I4R0/src/Qspi_Ip_Controller.o
 .data          0x340c26f0        0x0 obj/external/ThirdParty/Mcal_S32x/Supply/SW32G_RTD_4.4_3.0.4/eclipse/plugins/Fls_TS_T40D11M30I4R0/src/Qspi_Ip_Sfdp.o
 .data          0x340c26f0        0x0 obj/external/ThirdParty/Mcal_S32x/Supply/SW32G_RTD_4.4_3.0.4/eclipse/plugins/Mcl_TS_T40D11M30I4R0/src/CDD_Mcl.o
 .data          0x340c26f0        0x0 obj/external/ThirdParty/Mcal_S32x/Supply/SW32G_RTD_4.4_3.0.4/eclipse/plugins/Mcl_TS_T40D11M30I4R0/src/Dma_Ip.o
 .data          0x340c26f0        0x0 obj/external/ThirdParty/Mcal_S32x/Supply/SW32G_RTD_4.4_3.0.4/eclipse/plugins/Mcl_TS_T40D11M30I4R0/src/Dma_Ip_Driver_State.o
 .data          0x340c26f0        0x0 obj/external/ThirdParty/Mcal_S32x/Supply/SW32G_RTD_4.4_3.0.4/eclipse/plugins/Mcl_TS_T40D11M30I4R0/src/Dma_Ip_Hw_Access.o
 .data          0x340c26f0        0x0 obj/external/ThirdParty/Mcal_S32x/Supply/SW32G_RTD_4.4_3.0.4/eclipse/plugins/Mcl_TS_T40D11M30I4R0/src/Dma_Ip_Irq.o
 .data          0x340c26f0        0x0 obj/external/ThirdParty/Mcal_S32x/Supply/SW32G_RTD_4.4_3.0.4/eclipse/plugins/Mcl_TS_T40D11M30I4R0/src/Dma_Ip_Multicore.o
 .data          0x340c26f0        0x0 obj/external/ThirdParty/Mcal_S32x/Supply/SW32G_RTD_4.4_3.0.4/eclipse/plugins/Mcl_TS_T40D11M30I4R0/src/Ftm_Mcl_Ip.o
 .data          0x340c26f0        0x0 obj/external/ThirdParty/Mcal_S32x/Supply/SW32G_RTD_4.4_3.0.4/eclipse/plugins/Mcu_TS_T40D11M30I4R0/src/Clock_Ip.o
 .data          0x340c26f0        0x0 obj/external/ThirdParty/Mcal_S32x/Supply/SW32G_RTD_4.4_3.0.4/eclipse/plugins/Mcu_TS_T40D11M30I4R0/src/Clock_Ip_Data.o
 .data          0x340c26f0        0x0 obj/external/ThirdParty/Mcal_S32x/Supply/SW32G_RTD_4.4_3.0.4/eclipse/plugins/Mcu_TS_T40D11M30I4R0/src/Clock_Ip_Data1.o
 .data          0x340c26f0        0x0 obj/external/ThirdParty/Mcal_S32x/Supply/SW32G_RTD_4.4_3.0.4/eclipse/plugins/Mcu_TS_T40D11M30I4R0/src/Clock_Ip_Data2.o
 .data          0x340c26f0        0x0 obj/external/ThirdParty/Mcal_S32x/Supply/SW32G_RTD_4.4_3.0.4/eclipse/plugins/Mcu_TS_T40D11M30I4R0/src/Clock_Ip_Divider.o
 .data          0x340c26f0        0x0 obj/external/ThirdParty/Mcal_S32x/Supply/SW32G_RTD_4.4_3.0.4/eclipse/plugins/Mcu_TS_T40D11M30I4R0/src/Clock_Ip_DividerTrigger.o
 .data          0x340c26f0        0x0 obj/external/ThirdParty/Mcal_S32x/Supply/SW32G_RTD_4.4_3.0.4/eclipse/plugins/Mcu_TS_T40D11M30I4R0/src/Clock_Ip_ExtOsc.o
 .data          0x340c26f0        0x0 obj/external/ThirdParty/Mcal_S32x/Supply/SW32G_RTD_4.4_3.0.4/eclipse/plugins/Mcu_TS_T40D11M30I4R0/src/Clock_Ip_FracDiv.o
 .data          0x340c26f0        0x0 obj/external/ThirdParty/Mcal_S32x/Supply/SW32G_RTD_4.4_3.0.4/eclipse/plugins/Mcu_TS_T40D11M30I4R0/src/Clock_Ip_Frequency.o
 .data          0x340c26f0        0x0 obj/external/ThirdParty/Mcal_S32x/Supply/SW32G_RTD_4.4_3.0.4/eclipse/plugins/Mcu_TS_T40D11M30I4R0/src/Clock_Ip_Frequency1.o
 .data          0x340c26f0        0x0 obj/external/ThirdParty/Mcal_S32x/Supply/SW32G_RTD_4.4_3.0.4/eclipse/plugins/Mcu_TS_T40D11M30I4R0/src/Clock_Ip_Frequency2.o
 .data          0x340c26f0        0x0 obj/external/ThirdParty/Mcal_S32x/Supply/SW32G_RTD_4.4_3.0.4/eclipse/plugins/Mcu_TS_T40D11M30I4R0/src/Clock_Ip_Gate.o
 .data          0x340c26f0        0x0 obj/external/ThirdParty/Mcal_S32x/Supply/SW32G_RTD_4.4_3.0.4/eclipse/plugins/Mcu_TS_T40D11M30I4R0/src/Clock_Ip_IntOsc.o
 .data          0x340c26f0        0x0 obj/external/ThirdParty/Mcal_S32x/Supply/SW32G_RTD_4.4_3.0.4/eclipse/plugins/Mcu_TS_T40D11M30I4R0/src/Clock_Ip_Irq.o
 .data          0x340c26f0        0x0 obj/external/ThirdParty/Mcal_S32x/Supply/SW32G_RTD_4.4_3.0.4/eclipse/plugins/Mcu_TS_T40D11M30I4R0/src/Clock_Ip_Monitor.o
 .data          0x340c26f0        0x0 obj/external/ThirdParty/Mcal_S32x/Supply/SW32G_RTD_4.4_3.0.4/eclipse/plugins/Mcu_TS_T40D11M30I4R0/src/Clock_Ip_Pll.o
 .data          0x340c26f0        0x0 obj/external/ThirdParty/Mcal_S32x/Supply/SW32G_RTD_4.4_3.0.4/eclipse/plugins/Mcu_TS_T40D11M30I4R0/src/Clock_Ip_ProgFreqSwitch.o
 .data          0x340c26f0        0x0 obj/external/ThirdParty/Mcal_S32x/Supply/SW32G_RTD_4.4_3.0.4/eclipse/plugins/Mcu_TS_T40D11M30I4R0/src/Clock_Ip_Selector.o
 .data          0x340c26f0        0x0 obj/external/ThirdParty/Mcal_S32x/Supply/SW32G_RTD_4.4_3.0.4/eclipse/plugins/Mcu_TS_T40D11M30I4R0/src/Clock_Ip_Specific.o
 .data          0x340c26f0        0x0 obj/external/ThirdParty/Mcal_S32x/Supply/SW32G_RTD_4.4_3.0.4/eclipse/plugins/Mcu_TS_T40D11M30I4R0/src/Clock_Ip_Specific1.o
 .data          0x340c26f0        0x0 obj/external/ThirdParty/Mcal_S32x/Supply/SW32G_RTD_4.4_3.0.4/eclipse/plugins/Mcu_TS_T40D11M30I4R0/src/Clock_Ip_Specific2.o
 .data          0x340c26f0        0x0 obj/external/ThirdParty/Mcal_S32x/Supply/SW32G_RTD_4.4_3.0.4/eclipse/plugins/Mcu_TS_T40D11M30I4R0/src/Mcu.o
 .data          0x340c26f0        0x0 obj/external/ThirdParty/Mcal_S32x/Supply/SW32G_RTD_4.4_3.0.4/eclipse/plugins/Mcu_TS_T40D11M30I4R0/src/Mcu_Dem_Wrapper.o
 .data          0x340c26f0        0x0 obj/external/ThirdParty/Mcal_S32x/Supply/SW32G_RTD_4.4_3.0.4/eclipse/plugins/Mcu_TS_T40D11M30I4R0/src/Mcu_Ipw.o
 .data          0x340c26f0        0x0 obj/external/ThirdParty/Mcal_S32x/Supply/SW32G_RTD_4.4_3.0.4/eclipse/plugins/Mcu_TS_T40D11M30I4R0/src/Power_Ip.o
 .data          0x340c26f0        0x0 obj/external/ThirdParty/Mcal_S32x/Supply/SW32G_RTD_4.4_3.0.4/eclipse/plugins/Mcu_TS_T40D11M30I4R0/src/Power_Ip_CortexA.o
 .data          0x340c26f0        0x0 obj/external/ThirdParty/Mcal_S32x/Supply/SW32G_RTD_4.4_3.0.4/eclipse/plugins/Mcu_TS_T40D11M30I4R0/src/Power_Ip_CortexM7.o
 .data          0x340c26f0        0x0 obj/external/ThirdParty/Mcal_S32x/Supply/SW32G_RTD_4.4_3.0.4/eclipse/plugins/Mcu_TS_T40D11M30I4R0/src/Power_Ip_MC_ME.o
 .data          0x340c26f0        0x0 obj/external/ThirdParty/Mcal_S32x/Supply/SW32G_RTD_4.4_3.0.4/eclipse/plugins/Mcu_TS_T40D11M30I4R0/src/Power_Ip_MC_RGM.o
 .data          0x340c26f0        0x0 obj/external/ThirdParty/Mcal_S32x/Supply/SW32G_RTD_4.4_3.0.4/eclipse/plugins/Mcu_TS_T40D11M30I4R0/src/Power_Ip_MC_RGM_Irq.o
 .data          0x340c26f0        0x0 obj/external/ThirdParty/Mcal_S32x/Supply/SW32G_RTD_4.4_3.0.4/eclipse/plugins/Mcu_TS_T40D11M30I4R0/src/Power_Ip_MSCM.o
 .data          0x340c26f0        0x0 obj/external/ThirdParty/Mcal_S32x/Supply/SW32G_RTD_4.4_3.0.4/eclipse/plugins/Mcu_TS_T40D11M30I4R0/src/Power_Ip_PMC.o
 .data          0x340c26f0        0x0 obj/external/ThirdParty/Mcal_S32x/Supply/SW32G_RTD_4.4_3.0.4/eclipse/plugins/Mcu_TS_T40D11M30I4R0/src/Power_Ip_Private.o
 .data          0x340c26f0        0x0 obj/external/ThirdParty/Mcal_S32x/Supply/SW32G_RTD_4.4_3.0.4/eclipse/plugins/Mcu_TS_T40D11M30I4R0/src/Ram_Ip.o
 .data          0x340c26f0        0x0 obj/external/ThirdParty/Mcal_S32x/Supply/SW32G_RTD_4.4_3.0.4/eclipse/plugins/Port_TS_T40D11M30I4R0/src/Port.o
 .data          0x340c26f0        0x0 obj/external/ThirdParty/Mcal_S32x/Supply/SW32G_RTD_4.4_3.0.4/eclipse/plugins/Port_TS_T40D11M30I4R0/src/Port_Ipw.o
 .data          0x340c26f0        0x0 obj/external/ThirdParty/Mcal_S32x/Supply/SW32G_RTD_4.4_3.0.4/eclipse/plugins/Port_TS_T40D11M30I4R0/src/Siul2_Port_Ip.o
 .data          0x340c26f0        0x0 obj/external/ap-cp-gateway/Appl/GenData/BswM_Lcfg.o
 .data          0x340c26f0        0x0 obj/external/ap-cp-gateway/Appl/GenData/CanIf_Lcfg.o
 .data          0x340c26f0        0x0 obj/external/ap-cp-gateway/Appl/GenData/CanIf_PBcfg.o
 .data          0x340c26f0        0x0 obj/external/ap-cp-gateway/Appl/GenData/CanNm_Cfg.o
 .data          0x340c26f0        0x0 obj/external/ap-cp-gateway/Appl/GenData/CanNm_Lcfg.o
 .data          0x340c26f0        0x0 obj/external/ap-cp-gateway/Appl/GenData/CanNm_PBcfg.o
 .data          0x340c26f0        0x0 obj/external/ap-cp-gateway/Appl/GenData/CanSM_Lcfg.o
 .data          0x340c26f0        0x0 obj/external/ap-cp-gateway/Appl/GenData/CanTp_Lcfg.o
 .data          0x340c26f0        0x0 obj/external/ap-cp-gateway/Appl/GenData/CanTp_PBcfg.o
 .data          0x340c26f0        0x0 obj/external/ap-cp-gateway/Appl/GenData/CanXcp_Lcfg.o
 .data          0x340c26f0        0x0 obj/external/ap-cp-gateway/Appl/GenData/CanXcp_PBcfg.o
 .data          0x340c26f0        0x0 obj/external/ap-cp-gateway/Appl/GenData/Can_30_Flexcan4_Lcfg.o
 .data          0x340c26f0        0x0 obj/external/ap-cp-gateway/Appl/GenData/Can_30_Flexcan4_PBcfg.o
 .data          0x340c26f0        0x0 obj/external/ap-cp-gateway/Appl/GenData/ComM_Lcfg.o
 .data          0x340c26f0        0x0 obj/external/ap-cp-gateway/Appl/GenData/Com_Lcfg.o
 .data          0x340c26f0        0x0 obj/external/ap-cp-gateway/Appl/GenData/Com_PBcfg.o
 .data          0x340c26f0        0x0 obj/external/ap-cp-gateway/Appl/GenData/Dcm_Lcfg.o
 .data          0x340c26f0        0x0 obj/external/ap-cp-gateway/Appl/GenData/Dcm_PBcfg.o
 .data          0x340c26f0        0x0 obj/external/ap-cp-gateway/Appl/GenData/Dem_Lcfg.o
 .data          0x340c26f0        0x0 obj/external/ap-cp-gateway/Appl/GenData/Dem_PBcfg.o
 .data          0x340c26f0        0x0 obj/external/ap-cp-gateway/Appl/GenData/Det_Cfg.o
 .data          0x340c26f0        0x0 obj/external/ap-cp-gateway/Appl/GenData/EcuM_Cfg.o
 .data          0x340c26f0        0x0 obj/external/ap-cp-gateway/Appl/GenData/EcuM_Init_Cfg.o
 .data          0x340c26f0        0x0 obj/external/ap-cp-gateway/Appl/GenData/EcuM_Init_PBcfg.o
 .data          0x340c26f0        0x0 obj/external/ap-cp-gateway/Appl/GenData/EcuM_PBcfg.o
 .data          0x340c26f0        0x0 obj/external/ap-cp-gateway/Appl/GenData/Fee_Lcfg.o
 .data          0x340c26f0        0x0 obj/external/ap-cp-gateway/Appl/GenData/IpduM_Lcfg.o
 .data          0x340c26f0        0x0 obj/external/ap-cp-gateway/Appl/GenData/IpduM_PBcfg.o
 .data          0x340c26f0        0x0 obj/external/ap-cp-gateway/Appl/GenData/MemIf_Cfg.o
 .data          0x340c26f0        0x0 obj/external/ap-cp-gateway/Appl/GenData/Nm_Cfg.o
 .data          0x340c26f0        0x0 obj/external/ap-cp-gateway/Appl/GenData/Nm_Lcfg.o
 .data          0x340c26f0        0x0 obj/external/ap-cp-gateway/Appl/GenData/NvM_Cfg.o
 .data          0x340c26f0        0x0 obj/external/ap-cp-gateway/Appl/GenData/Os_AccessCheck_Lcfg.o
 .data          0x340c26f0        0x0 obj/external/ap-cp-gateway/Appl/GenData/Os_Alarm_Lcfg.o
 .data          0x340c26f0        0x0 obj/external/ap-cp-gateway/Appl/GenData/Os_Application_Lcfg.o
 .data          0x340c26f0        0x0 obj/external/ap-cp-gateway/Appl/GenData/Os_Barrier_Lcfg.o
 .data          0x340c26f0        0x0 obj/external/ap-cp-gateway/Appl/GenData/Os_Core_Lcfg.o
 .data          0x340c26f0        0x0 obj/external/ap-cp-gateway/Appl/GenData/Os_Counter_Lcfg.o
 .data          0x340c26f0        0x0 obj/external/ap-cp-gateway/Appl/GenData/Os_Error_Lcfg.o
 .data          0x340c26f0        0x0 obj/external/ap-cp-gateway/Appl/GenData/Os_Hal_Context_Lcfg.o
 .data          0x340c26f0        0x0 obj/external/ap-cp-gateway/Appl/GenData/Os_Hal_Core_Lcfg.o
 .data          0x340c26f0        0x0 obj/external/ap-cp-gateway/Appl/GenData/Os_Hal_Entry_Lcfg.o
 .data          0x340c26f0        0x0 obj/external/ap-cp-gateway/Appl/GenData/Os_Hal_Interrupt_Lcfg.o
 .data          0x340c26f0        0x0 obj/external/ap-cp-gateway/Appl/GenData/Os_Hal_Kernel_Lcfg.o
 .data          0x340c26f0        0x0 obj/external/ap-cp-gateway/Appl/GenData/Os_Hal_MemoryProtection_Lcfg.o
 .data          0x340c26f0        0x0 obj/external/ap-cp-gateway/Appl/GenData/Os_Hal_Timer_Lcfg.o
 .data          0x340c26f0        0x0 obj/external/ap-cp-gateway/Appl/GenData/Os_Hook_Lcfg.o
 .data          0x340c26f0        0x0 obj/external/ap-cp-gateway/Appl/GenData/Os_Ioc_Lcfg.o
 .data          0x340c26f0        0x0 obj/external/ap-cp-gateway/Appl/GenData/Os_Isr_Lcfg.o
 .data          0x340c26f0        0x0 obj/external/ap-cp-gateway/Appl/GenData/Os_MemoryProtection_Lcfg.o
 .data          0x340c26f0        0x0 obj/external/ap-cp-gateway/Appl/GenData/Os_Peripheral_Lcfg.o
 .data          0x340c26f0        0x0 obj/external/ap-cp-gateway/Appl/GenData/Os_Resource_Lcfg.o
 .data          0x340c26f0        0x0 obj/external/ap-cp-gateway/Appl/GenData/Os_ScheduleTable_Lcfg.o
 .data          0x340c26f0        0x0 obj/external/ap-cp-gateway/Appl/GenData/Os_Scheduler_Lcfg.o
 .data          0x340c26f0        0x0 obj/external/ap-cp-gateway/Appl/GenData/Os_ServiceFunction_Lcfg.o
 .data          0x340c26f0        0x0 obj/external/ap-cp-gateway/Appl/GenData/Os_Spinlock_Lcfg.o
 .data          0x340c26f0        0x0 obj/external/ap-cp-gateway/Appl/GenData/Os_Stack_Lcfg.o
 .data          0x340c26f0        0x0 obj/external/ap-cp-gateway/Appl/GenData/Os_Task_Lcfg.o
 .data          0x340c26f0        0x0 obj/external/ap-cp-gateway/Appl/GenData/Os_TimingProtection_Lcfg.o
 .data          0x340c26f0        0x0 obj/external/ap-cp-gateway/Appl/GenData/Os_Trace_Lcfg.o
 .data          0x340c26f0        0x0 obj/external/ap-cp-gateway/Appl/GenData/Os_XSignal_Lcfg.o
 .data          0x340c26f0        0x0 obj/external/ap-cp-gateway/Appl/GenData/PduR_Lcfg.o
 .data          0x340c26f0        0x0 obj/external/ap-cp-gateway/Appl/GenData/PduR_PBcfg.o
 .data          0x340c26f0        0x0 obj/external/ap-cp-gateway/Appl/GenData/Rte.o
 .data          0x340c26f0        0x0 obj/external/ap-cp-gateway/Appl/GenData/Xcp_Lcfg.o
 .data          0x340c26f0        0x0 obj/external/ap-cp-gateway/Appl/GenData/src/CDD_Mcl_Cfg.o
 .data          0x340c26f0        0x0 obj/external/ap-cp-gateway/Appl/GenData/src/CDD_Mcl_PBcfg.o
 .data          0x340c26f0        0x0 obj/external/ap-cp-gateway/Appl/GenData/src/Clock_Ip_Cfg.o
 .data          0x340c26f0        0x0 obj/external/ap-cp-gateway/Appl/GenData/src/Clock_Ip_PBcfg.o
 .data          0x340c26f0        0x0 obj/external/ap-cp-gateway/Appl/GenData/src/Dio_Cfg.o
 .data          0x340c26f0        0x0 obj/external/ap-cp-gateway/Appl/GenData/src/Dma_Ip_Cfg.o
 .data          0x340c26f0        0x0 obj/external/ap-cp-gateway/Appl/GenData/src/Dma_Ip_PBcfg.o
 .data          0x340c26f0        0x0 obj/external/ap-cp-gateway/Appl/GenData/src/Fls_Cfg.o
 .data          0x340c26f0        0x0 obj/external/ap-cp-gateway/Appl/GenData/src/Fls_PBcfg.o
 .data          0x340c26f0        0x0 obj/external/ap-cp-gateway/Appl/GenData/src/Mcu_Cfg.o
 .data          0x340c26f0        0x0 obj/external/ap-cp-gateway/Appl/GenData/src/Mcu_PBcfg.o
 .data          0x340c26f0        0x0 obj/external/ap-cp-gateway/Appl/GenData/src/OsIf_Cfg.o
 .data          0x340c26f0        0x0 obj/external/ap-cp-gateway/Appl/GenData/src/Port_Cfg.o
 .data          0x340c26f0        0x0 obj/external/ap-cp-gateway/Appl/GenData/src/Port_PBcfg.o
 .data          0x340c26f0        0x0 obj/external/ap-cp-gateway/Appl/GenData/src/Power_Ip_Cfg.o
 .data          0x340c26f0        0x0 obj/external/ap-cp-gateway/Appl/GenData/src/Power_Ip_PBcfg.o
 .data          0x340c26f0        0x0 obj/external/ap-cp-gateway/Appl/GenData/src/Qspi_Ip_PBcfg.o
 .data          0x340c26f0        0x0 obj/external/ap-cp-gateway/Appl/GenData/src/Ram_Ip_Cfg.o
 .data          0x340c26f0        0x0 obj/external/ap-cp-gateway/Appl/GenData/src/Ram_Ip_PBcfg.o
 .data          0x340c26f0        0x0 obj/external/ap-cp-gateway/Appl/GenData/src/Siul2_Port_Ip_PBcfg.o
 .data          0x340c26f0        0x0 obj/external/ap-cp-gateway/Appl/GenData/vBrs_Lcfg.o
 .data          0x340c26f0        0x0 obj/external/ap-cp-gateway/Appl/GenData/vLinkGen_Lcfg.o
 .data          0x340c26f0        0x0 obj/external/ap-cp-gateway/Appl/Source/ARMBrsHwIntTb_CortexM.o
 .data          0x340c26f0        0x0 obj/external/ap-cp-gateway/Appl/Source/ARMBrsHw_CortexM.o
 .data          0x340c26f0        0x0 obj/external/ap-cp-gateway/Appl/Source/ARMStartup_CortexM.o
 .data          0x340c26f0        0x0 obj/external/ap-cp-gateway/Appl/Source/BrsHw.o
 .data          0x340c26f0        0x0 obj/external/ap-cp-gateway/Appl/Source/BrsMain.o
 .data          0x340c26f0        0x0 obj/external/ap-cp-gateway/Appl/Source/BrsMainStartup.o
 .data          0x340c26f0        0x0 obj/external/ap-cp-gateway/Appl/Source/BrsMain_Callout_Stubs.o
 .data          0x340c26f0        0x0 obj/external/ap-cp-gateway/Appl/Source/BswInit.o
 .data          0x340c26f0        0x0 obj/external/ap-cp-gateway/Appl/Source/BswM_Callout_Stubs.o
 .data          0x340c26f0        0x0 obj/external/ap-cp-gateway/Appl/Source/Dcm_Callout_Stubs.o
 .data          0x340c26f0        0x0 obj/external/ap-cp-gateway/Appl/Source/EcuM_Callout_Stubs.o
 .data          0x340c26f0        0x0 obj/external/ap-cp-gateway/Appl/Source/Os_Callout_Stubs.o
 .data          0x340c26f0        0x0 obj/external/ap-cp-gateway/Appl/Source/XcpAppl.o
 .data          0x340c26f0        0x0 obj/external/ap-cp-gateway/Appl/Source/ipc-shm/Cdd_Ipc.o
 .data          0x340c26f0       0x74 obj/external/ap-cp-gateway/Appl/Source/ipc-shm/Cdd_Ipc_Lcfg.o
                0x340c26f0                ipcf_shm_cfg_instances
 .data          0x340c2764        0x0 obj/external/ap-cp-gateway/Appl/Source/ipc-shm/common/ipc-queue.o
 .data          0x340c2764        0x0 obj/external/ap-cp-gateway/Appl/Source/ipc-shm/common/ipc-shm.o
 .data          0x340c2764        0x0 obj/external/ap-cp-gateway/Appl/Source/ipc-shm/hw/s32gen1/ipc-hw-s32gen1.o
 .data          0x340c2764        0x0 obj/external/ap-cp-gateway/Appl/Source/ipc-shm/os/autosar/ipc-os-autosar.o
 .data          0x340c2764        0x0 C:/TOOLS/NXP/gcc-9.2-arm32-eabi/arm-none-eabi/newlib/lib/thumb/v7-m/nofp\libc.a(lib_a-memcpy-stub.o)
 .data          0x340c2764        0x0 C:/TOOLS/NXP/gcc-9.2-arm32-eabi/arm-none-eabi/newlib/lib/thumb/v7-m/nofp\libc.a(lib_a-memset.o)
 *(.data.*)
                0x340c2764                . = ALIGN (0x4)
                0x340c2763                _data_END = ABSOLUTE ((. - 0x1))
                0x340c2764                _data_LIMIT = ABSOLUTE (.)
                0x340c26f0                _data_ROM_START = LOADADDR (.data)
                0x340c2764                _data_ROM_LIMIT = (LOADADDR (.data) + SIZEOF (.data))

.igot.plt       0x340c2764        0x0
 .igot.plt      0x340c2764        0x0 obj/external/Components/Os/Implementation/Os_Hal_Compiler_TiInt.o

.OS_CORE0_VAR_FAST_NOINIT
                0x340c2764        0x4
 .OS_CORE0_VAR_FAST_NOINIT
                0x340c2764        0x4 obj/external/ap-cp-gateway/Appl/GenData/Os_Hal_Core_Lcfg.o

.sbss           0x340c2768        0x0
                0x340c2768                _sbss_START = ABSOLUTE (.)
 *(*.sbss)
 *(.sbss.*)
                0x340c2768                . = ALIGN (0x4)
                0x340c2767                _sbss_END = ABSOLUTE ((. - 0x1))
                0x340c2768                _sbss_LIMIT = ABSOLUTE (.)

.sdata          0x340c2768        0x0
                0x340c2768                _sdata_START = ABSOLUTE (.)
 *(*.sdata)
 *(.sdata.*)
                0x340c2768                . = ALIGN (0x4)
                0x340c2767                _sdata_END = ABSOLUTE ((. - 0x1))
                0x340c2768                _sdata_LIMIT = ABSOLUTE (.)
                0x340c2768                _sdata_ROM_START = LOADADDR (.sdata)
                0x340c2768                _sdata_ROM_LIMIT = (LOADADDR (.sdata) + SIZEOF (.sdata))

.zbss           0x340c2768        0x0
                0x340c2768                _zbss_START = ABSOLUTE (.)
 *(*.zbss)
 *(.zbss.*)
                0x340c2768                . = ALIGN (0x4)
                0x340c2767                _zbss_END = ABSOLUTE ((. - 0x1))
                0x340c2768                _zbss_LIMIT = ABSOLUTE (.)

.zdata          0x340c2768        0x0
                0x340c2768                _zdata_START = ABSOLUTE (.)
 *(*.zdata)
 *(.zdata.*)
                0x340c2768                . = ALIGN (0x4)
                0x340c2767                _zdata_END = ABSOLUTE ((. - 0x1))
                0x340c2768                _zdata_LIMIT = ABSOLUTE (.)
                0x340c2768                _zdata_ROM_START = LOADADDR (.zdata)
                0x340c2768                _zdata_ROM_LIMIT = (LOADADDR (.zdata) + SIZEOF (.zdata))
                0x340c1090                _Data_Default_ALL_START = _bss_START
                0x340c2767                _Data_Default_ALL_END = _zdata_END
                0x340c2768                _Data_Default_ALL_LIMIT = _zdata_LIMIT
LOAD obj/external/Components/Os/Implementation/Os_Hal_Compiler_TiInt.o
LOAD obj/external/Components/Os/Implementation/Os_Hal_ContextAsm.o
LOAD obj/external/ap-cp-gateway/Appl/GenData/Os_Hal_EntryAsm_Lcfg.o
LOAD obj/external/Components/BswM/Implementation/BswM.o
LOAD obj/external/Components/CanIf/Implementation/CanIf.o
LOAD obj/external/Components/CanNm/Implementation/CanNm.o
LOAD obj/external/Components/CanSM/Implementation/CanSM.o
LOAD obj/external/Components/CanTp/Implementation/CanTp.o
LOAD obj/external/Components/CanXcp/Implementation/CanXcp.o
LOAD obj/external/Components/Can_30_Flexcan4/Implementation/Can_30_Flexcan4.o
LOAD obj/external/Components/Can_30_Flexcan4/Implementation/Can_30_Flexcan4_Irq.o
LOAD obj/external/Components/Com/Implementation/Com.o
LOAD obj/external/Components/Com/Implementation/Com_Buffers.o
LOAD obj/external/Components/Com/Implementation/Com_CprQueue.o
LOAD obj/external/Components/Com/Implementation/Com_CprQueueDescrGw.o
LOAD obj/external/Components/Com/Implementation/Com_CprQueueSigGw.o
LOAD obj/external/Components/Com/Implementation/Com_DescriptionGateway.o
LOAD obj/external/Components/Com/Implementation/Com_Deserializer.o
LOAD obj/external/Components/Com/Implementation/Com_IPduGroupHdlr.o
LOAD obj/external/Components/Com/Implementation/Com_LLIf.o
LOAD obj/external/Components/Com/Implementation/Com_LMgt.o
LOAD obj/external/Components/Com/Implementation/Com_MainFunctions.o
LOAD obj/external/Components/Com/Implementation/Com_Notifications.o
LOAD obj/external/Components/Com/Implementation/Com_RxInv.o
LOAD obj/external/Components/Com/Implementation/Com_RxProcessing.o
LOAD obj/external/Components/Com/Implementation/Com_Serializer.o
LOAD obj/external/Components/Com/Implementation/Com_SignalFilterHdlr.o
LOAD obj/external/Components/Com/Implementation/Com_SignalGateway.o
LOAD obj/external/Components/Com/Implementation/Com_SignalIf.o
LOAD obj/external/Components/Com/Implementation/Com_Timer.o
LOAD obj/external/Components/Com/Implementation/Com_TxModeHdlr.o
LOAD obj/external/Components/ComM/Implementation/ComM.o
LOAD obj/external/Components/Crc/Implementation/Crc.o
LOAD obj/external/Components/Dcm/Implementation/Dcm.o
LOAD obj/external/Components/Dcm/Implementation/Dcm_AuthMgr.o
LOAD obj/external/Components/Dcm/Implementation/Dcm_CfgWrap.o
LOAD obj/external/Components/Dcm/Implementation/Dcm_Debug.o
LOAD obj/external/Components/Dcm/Implementation/Dcm_DemIf.o
LOAD obj/external/Components/Dcm/Implementation/Dcm_Diag.o
LOAD obj/external/Components/Dcm/Implementation/Dcm_DidMgr.o
LOAD obj/external/Components/Dcm/Implementation/Dcm_Ext.o
LOAD obj/external/Components/Dcm/Implementation/Dcm_FblMgr.o
LOAD obj/external/Components/Dcm/Implementation/Dcm_MemMgr.o
LOAD obj/external/Components/Dcm/Implementation/Dcm_Mode.o
LOAD obj/external/Components/Dcm/Implementation/Dcm_Net.o
LOAD obj/external/Components/Dcm/Implementation/Dcm_ObdDtcMgr.o
LOAD obj/external/Components/Dcm/Implementation/Dcm_ObdIdMgr.o
LOAD obj/external/Components/Dcm/Implementation/Dcm_PagedBuffer.o
LOAD obj/external/Components/Dcm/Implementation/Dcm_Repeater.o
LOAD obj/external/Components/Dcm/Implementation/Dcm_RidMgr.o
LOAD obj/external/Components/Dcm/Implementation/Dcm_RsrcMgr.o
LOAD obj/external/Components/Dcm/Implementation/Dcm_State.o
LOAD obj/external/Components/Dcm/Implementation/Dcm_Svc01.o
LOAD obj/external/Components/Dcm/Implementation/Dcm_Svc02.o
LOAD obj/external/Components/Dcm/Implementation/Dcm_Svc03.o
LOAD obj/external/Components/Dcm/Implementation/Dcm_Svc04.o
LOAD obj/external/Components/Dcm/Implementation/Dcm_Svc06.o
LOAD obj/external/Components/Dcm/Implementation/Dcm_Svc07.o
LOAD obj/external/Components/Dcm/Implementation/Dcm_Svc08.o
LOAD obj/external/Components/Dcm/Implementation/Dcm_Svc09.o
LOAD obj/external/Components/Dcm/Implementation/Dcm_Svc0A.o
LOAD obj/external/Components/Dcm/Implementation/Dcm_Svc11.o
LOAD obj/external/Components/Dcm/Implementation/Dcm_Svc14.o
LOAD obj/external/Components/Dcm/Implementation/Dcm_Svc19.o
LOAD obj/external/Components/Dcm/Implementation/Dcm_Svc19Uti.o
LOAD obj/external/Components/Dcm/Implementation/Dcm_Svc22.o
LOAD obj/external/Components/Dcm/Implementation/Dcm_Svc23.o
LOAD obj/external/Components/Dcm/Implementation/Dcm_Svc24.o
LOAD obj/external/Components/Dcm/Implementation/Dcm_Svc27.o
LOAD obj/external/Components/Dcm/Implementation/Dcm_Svc28.o
LOAD obj/external/Components/Dcm/Implementation/Dcm_Svc29.o
LOAD obj/external/Components/Dcm/Implementation/Dcm_Svc2A.o
LOAD obj/external/Components/Dcm/Implementation/Dcm_Svc2ASchd.o
LOAD obj/external/Components/Dcm/Implementation/Dcm_Svc2E.o
LOAD obj/external/Components/Dcm/Implementation/Dcm_Svc2F.o
LOAD obj/external/Components/Dcm/Implementation/Dcm_Svc31.o
LOAD obj/external/Components/Dcm/Implementation/Dcm_Svc34.o
LOAD obj/external/Components/Dcm/Implementation/Dcm_Svc36.o
LOAD obj/external/Components/Dcm/Implementation/Dcm_Svc37.o
LOAD obj/external/Components/Dcm/Implementation/Dcm_Svc3D.o
LOAD obj/external/Components/Dcm/Implementation/Dcm_Svc3E.o
LOAD obj/external/Components/Dcm/Implementation/Dcm_Svc85.o
LOAD obj/external/Components/Dcm/Implementation/Dcm_Tmr.o
LOAD obj/external/Components/Dcm/Implementation/Dcm_Tsk.o
LOAD obj/external/Components/Dcm/Implementation/Dcm_Uti.o
LOAD obj/external/Components/Dcm/Implementation/Dcm_VarMgr.o
LOAD obj/external/Components/Dem/Implementation/Dem.o
LOAD obj/external/Components/Det/Implementation/Det.o
LOAD obj/external/Components/EcuM/Implementation/EcuM.o
LOAD obj/external/Components/Fee/Implementation/Fee.o
LOAD obj/external/Components/Fee/Implementation/Fee_ChunkInfo.o
LOAD obj/external/Components/Fee/Implementation/Fee_LookUpTable.o
LOAD obj/external/Components/Fee/Implementation/Fee_Partition.o
LOAD obj/external/Components/Fee/Implementation/Fee_Processing.o
LOAD obj/external/Components/Fee/Implementation/Fee_Sector.o
LOAD obj/external/Components/IpduM/Implementation/IpduM.o
LOAD obj/external/Components/IpduM/Implementation/IpduM_Container.o
LOAD obj/external/Components/IpduM/Implementation/IpduM_Mux.o
LOAD obj/external/Components/MemIf/Implementation/MemIf.o
LOAD obj/external/Components/Nm/Implementation/Nm.o
LOAD obj/external/Components/NvM/Implementation/NvM.o
LOAD obj/external/Components/NvM/Implementation/NvM_Act.o
LOAD obj/external/Components/NvM/Implementation/NvM_Crc.o
LOAD obj/external/Components/NvM/Implementation/NvM_DataIntegrity.o
LOAD obj/external/Components/NvM/Implementation/NvM_JobProc.o
LOAD obj/external/Components/NvM/Implementation/NvM_Mac.o
LOAD obj/external/Components/NvM/Implementation/NvM_MemIfAbstraction.o
LOAD obj/external/Components/NvM/Implementation/NvM_MemIfMemoryCore.o
LOAD obj/external/Components/NvM/Implementation/NvM_Qry.o
LOAD obj/external/Components/NvM/Implementation/NvM_Queue.o
LOAD obj/external/Components/Os/Implementation/Os_AccessCheck.o
LOAD obj/external/Components/Os/Implementation/Os_Alarm.o
LOAD obj/external/Components/Os/Implementation/Os_Application.o
LOAD obj/external/Components/Os/Implementation/Os_Barrier.o
LOAD obj/external/Components/Os/Implementation/Os_Bit.o
LOAD obj/external/Components/Os/Implementation/Os_BitArray.o
LOAD obj/external/Components/Os/Implementation/Os_Core.o
LOAD obj/external/Components/Os/Implementation/Os_Counter.o
LOAD obj/external/Components/Os/Implementation/Os_Deque.o
LOAD obj/external/Components/Os/Implementation/Os_Error.o
LOAD obj/external/Components/Os/Implementation/Os_Event.o
LOAD obj/external/Components/Os/Implementation/Os_Fifo.o
LOAD obj/external/Components/Os/Implementation/Os_Fifo08.o
LOAD obj/external/Components/Os/Implementation/Os_Fifo16.o
LOAD obj/external/Components/Os/Implementation/Os_Fifo32.o
LOAD obj/external/Components/Os/Implementation/Os_FifoRef.o
LOAD obj/external/Components/Os/Implementation/Os_Hal_Compiler_Arm.o
LOAD obj/external/Components/Os/Implementation/Os_Hal_Compiler_Iar.o
LOAD obj/external/Components/Os/Implementation/Os_Hal_Context.o
LOAD obj/external/Components/Os/Implementation/Os_Hal_Core.o
LOAD obj/external/Components/Os/Implementation/Os_Hal_Entry.o
LOAD obj/external/Components/Os/Implementation/Os_Hook.o
LOAD obj/external/Components/Os/Implementation/Os_Interrupt.o
LOAD obj/external/Components/Os/Implementation/Os_Ioc.o
LOAD obj/external/Components/Os/Implementation/Os_Isr.o
LOAD obj/external/Components/Os/Implementation/Os_Job.o
LOAD obj/external/Components/Os/Implementation/Os_Lock.o
LOAD obj/external/Components/Os/Implementation/Os_MemoryProtection.o
LOAD obj/external/Components/Os/Implementation/Os_Peripheral.o
LOAD obj/external/Components/Os/Implementation/Os_PriorityQueue.o
LOAD obj/external/Components/Os/Implementation/Os_Resource.o
LOAD obj/external/Components/Os/Implementation/Os_ScheduleTable.o
LOAD obj/external/Components/Os/Implementation/Os_Scheduler.o
LOAD obj/external/Components/Os/Implementation/Os_ServiceFunction.o
LOAD obj/external/Components/Os/Implementation/Os_Spinlock.o
LOAD obj/external/Components/Os/Implementation/Os_Stack.o
LOAD obj/external/Components/Os/Implementation/Os_Task.o
LOAD obj/external/Components/Os/Implementation/Os_Thread.o
LOAD obj/external/Components/Os/Implementation/Os_Timer.o
LOAD obj/external/Components/Os/Implementation/Os_TimingProtection.o
LOAD obj/external/Components/Os/Implementation/Os_Trace.o
LOAD obj/external/Components/Os/Implementation/Os_Trap.o
LOAD obj/external/Components/Os/Implementation/Os_XSignal.o
LOAD obj/external/Components/PduR/Implementation/PduR.o
LOAD obj/external/Components/PduR/Implementation/PduR_Bm.o
LOAD obj/external/Components/PduR/Implementation/PduR_Fm.o
LOAD obj/external/Components/PduR/Implementation/PduR_IFQ.o
LOAD obj/external/Components/PduR/Implementation/PduR_Lock.o
LOAD obj/external/Components/PduR/Implementation/PduR_McQ.o
LOAD obj/external/Components/PduR/Implementation/PduR_RmIf.o
LOAD obj/external/Components/PduR/Implementation/PduR_RmTp.o
LOAD obj/external/Components/PduR/Implementation/PduR_RmTp_TxInst.o
LOAD obj/external/Components/PduR/Implementation/PduR_Sm.o
LOAD obj/external/Components/VStdLib/Implementation/vstdlib.o
LOAD obj/external/Components/Xcp/Implementation/Xcp.o
LOAD obj/external/ThirdParty/Mcal_S32x/Supply/SW32G_RTD_4.4_3.0.4/eclipse/plugins/Base_TS_T40D11M30I4R0/src/OsIf_Interrupts.o
LOAD obj/external/ThirdParty/Mcal_S32x/Supply/SW32G_RTD_4.4_3.0.4/eclipse/plugins/Base_TS_T40D11M30I4R0/src/OsIf_Timer.o
LOAD obj/external/ThirdParty/Mcal_S32x/Supply/SW32G_RTD_4.4_3.0.4/eclipse/plugins/Base_TS_T40D11M30I4R0/src/OsIf_Timer_System.o
LOAD obj/external/ThirdParty/Mcal_S32x/Supply/SW32G_RTD_4.4_3.0.4/eclipse/plugins/Base_TS_T40D11M30I4R0/src/OsIf_Timer_System_Internal_Systick.o
LOAD obj/external/ThirdParty/Mcal_S32x/Supply/SW32G_RTD_4.4_3.0.4/eclipse/plugins/Dio_TS_T40D11M30I4R0/src/Dio.o
LOAD obj/external/ThirdParty/Mcal_S32x/Supply/SW32G_RTD_4.4_3.0.4/eclipse/plugins/Dio_TS_T40D11M30I4R0/src/Dio_Ipw.o
LOAD obj/external/ThirdParty/Mcal_S32x/Supply/SW32G_RTD_4.4_3.0.4/eclipse/plugins/Dio_TS_T40D11M30I4R0/src/Siul2_Dio_Ip.o
LOAD obj/external/ThirdParty/Mcal_S32x/Supply/SW32G_RTD_4.4_3.0.4/eclipse/plugins/Fls_TS_T40D11M30I4R0/src/Fls.o
LOAD obj/external/ThirdParty/Mcal_S32x/Supply/SW32G_RTD_4.4_3.0.4/eclipse/plugins/Fls_TS_T40D11M30I4R0/src/Fls_IPW.o
LOAD obj/external/ThirdParty/Mcal_S32x/Supply/SW32G_RTD_4.4_3.0.4/eclipse/plugins/Fls_TS_T40D11M30I4R0/src/Qspi_Ip.o
LOAD obj/external/ThirdParty/Mcal_S32x/Supply/SW32G_RTD_4.4_3.0.4/eclipse/plugins/Fls_TS_T40D11M30I4R0/src/Qspi_Ip_Controller.o
LOAD obj/external/ThirdParty/Mcal_S32x/Supply/SW32G_RTD_4.4_3.0.4/eclipse/plugins/Fls_TS_T40D11M30I4R0/src/Qspi_Ip_Sfdp.o
LOAD obj/external/ThirdParty/Mcal_S32x/Supply/SW32G_RTD_4.4_3.0.4/eclipse/plugins/Mcl_TS_T40D11M30I4R0/src/CDD_Mcl.o
LOAD obj/external/ThirdParty/Mcal_S32x/Supply/SW32G_RTD_4.4_3.0.4/eclipse/plugins/Mcl_TS_T40D11M30I4R0/src/Dma_Ip.o
LOAD obj/external/ThirdParty/Mcal_S32x/Supply/SW32G_RTD_4.4_3.0.4/eclipse/plugins/Mcl_TS_T40D11M30I4R0/src/Dma_Ip_Driver_State.o
LOAD obj/external/ThirdParty/Mcal_S32x/Supply/SW32G_RTD_4.4_3.0.4/eclipse/plugins/Mcl_TS_T40D11M30I4R0/src/Dma_Ip_Hw_Access.o
LOAD obj/external/ThirdParty/Mcal_S32x/Supply/SW32G_RTD_4.4_3.0.4/eclipse/plugins/Mcl_TS_T40D11M30I4R0/src/Dma_Ip_Irq.o
LOAD obj/external/ThirdParty/Mcal_S32x/Supply/SW32G_RTD_4.4_3.0.4/eclipse/plugins/Mcl_TS_T40D11M30I4R0/src/Dma_Ip_Multicore.o
LOAD obj/external/ThirdParty/Mcal_S32x/Supply/SW32G_RTD_4.4_3.0.4/eclipse/plugins/Mcl_TS_T40D11M30I4R0/src/Ftm_Mcl_Ip.o
LOAD obj/external/ThirdParty/Mcal_S32x/Supply/SW32G_RTD_4.4_3.0.4/eclipse/plugins/Mcu_TS_T40D11M30I4R0/src/Clock_Ip.o
LOAD obj/external/ThirdParty/Mcal_S32x/Supply/SW32G_RTD_4.4_3.0.4/eclipse/plugins/Mcu_TS_T40D11M30I4R0/src/Clock_Ip_Data.o
LOAD obj/external/ThirdParty/Mcal_S32x/Supply/SW32G_RTD_4.4_3.0.4/eclipse/plugins/Mcu_TS_T40D11M30I4R0/src/Clock_Ip_Data1.o
LOAD obj/external/ThirdParty/Mcal_S32x/Supply/SW32G_RTD_4.4_3.0.4/eclipse/plugins/Mcu_TS_T40D11M30I4R0/src/Clock_Ip_Data2.o
LOAD obj/external/ThirdParty/Mcal_S32x/Supply/SW32G_RTD_4.4_3.0.4/eclipse/plugins/Mcu_TS_T40D11M30I4R0/src/Clock_Ip_Divider.o
LOAD obj/external/ThirdParty/Mcal_S32x/Supply/SW32G_RTD_4.4_3.0.4/eclipse/plugins/Mcu_TS_T40D11M30I4R0/src/Clock_Ip_DividerTrigger.o
LOAD obj/external/ThirdParty/Mcal_S32x/Supply/SW32G_RTD_4.4_3.0.4/eclipse/plugins/Mcu_TS_T40D11M30I4R0/src/Clock_Ip_ExtOsc.o
LOAD obj/external/ThirdParty/Mcal_S32x/Supply/SW32G_RTD_4.4_3.0.4/eclipse/plugins/Mcu_TS_T40D11M30I4R0/src/Clock_Ip_FracDiv.o
LOAD obj/external/ThirdParty/Mcal_S32x/Supply/SW32G_RTD_4.4_3.0.4/eclipse/plugins/Mcu_TS_T40D11M30I4R0/src/Clock_Ip_Frequency.o
LOAD obj/external/ThirdParty/Mcal_S32x/Supply/SW32G_RTD_4.4_3.0.4/eclipse/plugins/Mcu_TS_T40D11M30I4R0/src/Clock_Ip_Frequency1.o
LOAD obj/external/ThirdParty/Mcal_S32x/Supply/SW32G_RTD_4.4_3.0.4/eclipse/plugins/Mcu_TS_T40D11M30I4R0/src/Clock_Ip_Frequency2.o
LOAD obj/external/ThirdParty/Mcal_S32x/Supply/SW32G_RTD_4.4_3.0.4/eclipse/plugins/Mcu_TS_T40D11M30I4R0/src/Clock_Ip_Gate.o
LOAD obj/external/ThirdParty/Mcal_S32x/Supply/SW32G_RTD_4.4_3.0.4/eclipse/plugins/Mcu_TS_T40D11M30I4R0/src/Clock_Ip_IntOsc.o
LOAD obj/external/ThirdParty/Mcal_S32x/Supply/SW32G_RTD_4.4_3.0.4/eclipse/plugins/Mcu_TS_T40D11M30I4R0/src/Clock_Ip_Irq.o
LOAD obj/external/ThirdParty/Mcal_S32x/Supply/SW32G_RTD_4.4_3.0.4/eclipse/plugins/Mcu_TS_T40D11M30I4R0/src/Clock_Ip_Monitor.o
LOAD obj/external/ThirdParty/Mcal_S32x/Supply/SW32G_RTD_4.4_3.0.4/eclipse/plugins/Mcu_TS_T40D11M30I4R0/src/Clock_Ip_Pll.o
LOAD obj/external/ThirdParty/Mcal_S32x/Supply/SW32G_RTD_4.4_3.0.4/eclipse/plugins/Mcu_TS_T40D11M30I4R0/src/Clock_Ip_ProgFreqSwitch.o
LOAD obj/external/ThirdParty/Mcal_S32x/Supply/SW32G_RTD_4.4_3.0.4/eclipse/plugins/Mcu_TS_T40D11M30I4R0/src/Clock_Ip_Selector.o
LOAD obj/external/ThirdParty/Mcal_S32x/Supply/SW32G_RTD_4.4_3.0.4/eclipse/plugins/Mcu_TS_T40D11M30I4R0/src/Clock_Ip_Specific.o
LOAD obj/external/ThirdParty/Mcal_S32x/Supply/SW32G_RTD_4.4_3.0.4/eclipse/plugins/Mcu_TS_T40D11M30I4R0/src/Clock_Ip_Specific1.o
LOAD obj/external/ThirdParty/Mcal_S32x/Supply/SW32G_RTD_4.4_3.0.4/eclipse/plugins/Mcu_TS_T40D11M30I4R0/src/Clock_Ip_Specific2.o
LOAD obj/external/ThirdParty/Mcal_S32x/Supply/SW32G_RTD_4.4_3.0.4/eclipse/plugins/Mcu_TS_T40D11M30I4R0/src/Mcu.o
LOAD obj/external/ThirdParty/Mcal_S32x/Supply/SW32G_RTD_4.4_3.0.4/eclipse/plugins/Mcu_TS_T40D11M30I4R0/src/Mcu_Dem_Wrapper.o
LOAD obj/external/ThirdParty/Mcal_S32x/Supply/SW32G_RTD_4.4_3.0.4/eclipse/plugins/Mcu_TS_T40D11M30I4R0/src/Mcu_Ipw.o
LOAD obj/external/ThirdParty/Mcal_S32x/Supply/SW32G_RTD_4.4_3.0.4/eclipse/plugins/Mcu_TS_T40D11M30I4R0/src/Power_Ip.o
LOAD obj/external/ThirdParty/Mcal_S32x/Supply/SW32G_RTD_4.4_3.0.4/eclipse/plugins/Mcu_TS_T40D11M30I4R0/src/Power_Ip_CortexA.o
LOAD obj/external/ThirdParty/Mcal_S32x/Supply/SW32G_RTD_4.4_3.0.4/eclipse/plugins/Mcu_TS_T40D11M30I4R0/src/Power_Ip_CortexM7.o
LOAD obj/external/ThirdParty/Mcal_S32x/Supply/SW32G_RTD_4.4_3.0.4/eclipse/plugins/Mcu_TS_T40D11M30I4R0/src/Power_Ip_MC_ME.o
LOAD obj/external/ThirdParty/Mcal_S32x/Supply/SW32G_RTD_4.4_3.0.4/eclipse/plugins/Mcu_TS_T40D11M30I4R0/src/Power_Ip_MC_RGM.o
LOAD obj/external/ThirdParty/Mcal_S32x/Supply/SW32G_RTD_4.4_3.0.4/eclipse/plugins/Mcu_TS_T40D11M30I4R0/src/Power_Ip_MC_RGM_Irq.o
LOAD obj/external/ThirdParty/Mcal_S32x/Supply/SW32G_RTD_4.4_3.0.4/eclipse/plugins/Mcu_TS_T40D11M30I4R0/src/Power_Ip_MSCM.o
LOAD obj/external/ThirdParty/Mcal_S32x/Supply/SW32G_RTD_4.4_3.0.4/eclipse/plugins/Mcu_TS_T40D11M30I4R0/src/Power_Ip_PMC.o
LOAD obj/external/ThirdParty/Mcal_S32x/Supply/SW32G_RTD_4.4_3.0.4/eclipse/plugins/Mcu_TS_T40D11M30I4R0/src/Power_Ip_Private.o
LOAD obj/external/ThirdParty/Mcal_S32x/Supply/SW32G_RTD_4.4_3.0.4/eclipse/plugins/Mcu_TS_T40D11M30I4R0/src/Ram_Ip.o
LOAD obj/external/ThirdParty/Mcal_S32x/Supply/SW32G_RTD_4.4_3.0.4/eclipse/plugins/Port_TS_T40D11M30I4R0/src/Port.o
LOAD obj/external/ThirdParty/Mcal_S32x/Supply/SW32G_RTD_4.4_3.0.4/eclipse/plugins/Port_TS_T40D11M30I4R0/src/Port_Ipw.o
LOAD obj/external/ThirdParty/Mcal_S32x/Supply/SW32G_RTD_4.4_3.0.4/eclipse/plugins/Port_TS_T40D11M30I4R0/src/Siul2_Port_Ip.o
LOAD obj/external/ap-cp-gateway/Appl/GenData/BswM_Lcfg.o
LOAD obj/external/ap-cp-gateway/Appl/GenData/CanIf_Lcfg.o
LOAD obj/external/ap-cp-gateway/Appl/GenData/CanIf_PBcfg.o
LOAD obj/external/ap-cp-gateway/Appl/GenData/CanNm_Cfg.o
LOAD obj/external/ap-cp-gateway/Appl/GenData/CanNm_Lcfg.o
LOAD obj/external/ap-cp-gateway/Appl/GenData/CanNm_PBcfg.o
LOAD obj/external/ap-cp-gateway/Appl/GenData/CanSM_Lcfg.o
LOAD obj/external/ap-cp-gateway/Appl/GenData/CanTp_Lcfg.o
LOAD obj/external/ap-cp-gateway/Appl/GenData/CanTp_PBcfg.o
LOAD obj/external/ap-cp-gateway/Appl/GenData/CanXcp_Lcfg.o
LOAD obj/external/ap-cp-gateway/Appl/GenData/CanXcp_PBcfg.o
LOAD obj/external/ap-cp-gateway/Appl/GenData/Can_30_Flexcan4_Lcfg.o
LOAD obj/external/ap-cp-gateway/Appl/GenData/Can_30_Flexcan4_PBcfg.o
LOAD obj/external/ap-cp-gateway/Appl/GenData/ComM_Lcfg.o
LOAD obj/external/ap-cp-gateway/Appl/GenData/Com_Lcfg.o
LOAD obj/external/ap-cp-gateway/Appl/GenData/Com_PBcfg.o
LOAD obj/external/ap-cp-gateway/Appl/GenData/Dcm_Lcfg.o
LOAD obj/external/ap-cp-gateway/Appl/GenData/Dcm_PBcfg.o
LOAD obj/external/ap-cp-gateway/Appl/GenData/Dem_Lcfg.o
LOAD obj/external/ap-cp-gateway/Appl/GenData/Dem_PBcfg.o
LOAD obj/external/ap-cp-gateway/Appl/GenData/Det_Cfg.o
LOAD obj/external/ap-cp-gateway/Appl/GenData/EcuM_Cfg.o
LOAD obj/external/ap-cp-gateway/Appl/GenData/EcuM_Init_Cfg.o
LOAD obj/external/ap-cp-gateway/Appl/GenData/EcuM_Init_PBcfg.o
LOAD obj/external/ap-cp-gateway/Appl/GenData/EcuM_PBcfg.o
LOAD obj/external/ap-cp-gateway/Appl/GenData/Fee_Lcfg.o
LOAD obj/external/ap-cp-gateway/Appl/GenData/IpduM_Lcfg.o
LOAD obj/external/ap-cp-gateway/Appl/GenData/IpduM_PBcfg.o
LOAD obj/external/ap-cp-gateway/Appl/GenData/MemIf_Cfg.o
LOAD obj/external/ap-cp-gateway/Appl/GenData/Nm_Cfg.o
LOAD obj/external/ap-cp-gateway/Appl/GenData/Nm_Lcfg.o
LOAD obj/external/ap-cp-gateway/Appl/GenData/NvM_Cfg.o
LOAD obj/external/ap-cp-gateway/Appl/GenData/Os_AccessCheck_Lcfg.o
LOAD obj/external/ap-cp-gateway/Appl/GenData/Os_Alarm_Lcfg.o
LOAD obj/external/ap-cp-gateway/Appl/GenData/Os_Application_Lcfg.o
LOAD obj/external/ap-cp-gateway/Appl/GenData/Os_Barrier_Lcfg.o
LOAD obj/external/ap-cp-gateway/Appl/GenData/Os_Core_Lcfg.o
LOAD obj/external/ap-cp-gateway/Appl/GenData/Os_Counter_Lcfg.o
LOAD obj/external/ap-cp-gateway/Appl/GenData/Os_Error_Lcfg.o
LOAD obj/external/ap-cp-gateway/Appl/GenData/Os_Hal_Context_Lcfg.o
LOAD obj/external/ap-cp-gateway/Appl/GenData/Os_Hal_Core_Lcfg.o
LOAD obj/external/ap-cp-gateway/Appl/GenData/Os_Hal_Entry_Lcfg.o
LOAD obj/external/ap-cp-gateway/Appl/GenData/Os_Hal_Interrupt_Lcfg.o
LOAD obj/external/ap-cp-gateway/Appl/GenData/Os_Hal_Kernel_Lcfg.o
LOAD obj/external/ap-cp-gateway/Appl/GenData/Os_Hal_MemoryProtection_Lcfg.o
LOAD obj/external/ap-cp-gateway/Appl/GenData/Os_Hal_Timer_Lcfg.o
LOAD obj/external/ap-cp-gateway/Appl/GenData/Os_Hook_Lcfg.o
LOAD obj/external/ap-cp-gateway/Appl/GenData/Os_Ioc_Lcfg.o
LOAD obj/external/ap-cp-gateway/Appl/GenData/Os_Isr_Lcfg.o
LOAD obj/external/ap-cp-gateway/Appl/GenData/Os_MemoryProtection_Lcfg.o
LOAD obj/external/ap-cp-gateway/Appl/GenData/Os_Peripheral_Lcfg.o
LOAD obj/external/ap-cp-gateway/Appl/GenData/Os_Resource_Lcfg.o
LOAD obj/external/ap-cp-gateway/Appl/GenData/Os_ScheduleTable_Lcfg.o
LOAD obj/external/ap-cp-gateway/Appl/GenData/Os_Scheduler_Lcfg.o
LOAD obj/external/ap-cp-gateway/Appl/GenData/Os_ServiceFunction_Lcfg.o
LOAD obj/external/ap-cp-gateway/Appl/GenData/Os_Spinlock_Lcfg.o
LOAD obj/external/ap-cp-gateway/Appl/GenData/Os_Stack_Lcfg.o
LOAD obj/external/ap-cp-gateway/Appl/GenData/Os_Task_Lcfg.o
LOAD obj/external/ap-cp-gateway/Appl/GenData/Os_TimingProtection_Lcfg.o
LOAD obj/external/ap-cp-gateway/Appl/GenData/Os_Trace_Lcfg.o
LOAD obj/external/ap-cp-gateway/Appl/GenData/Os_XSignal_Lcfg.o
LOAD obj/external/ap-cp-gateway/Appl/GenData/PduR_Lcfg.o
LOAD obj/external/ap-cp-gateway/Appl/GenData/PduR_PBcfg.o
LOAD obj/external/ap-cp-gateway/Appl/GenData/Rte.o
LOAD obj/external/ap-cp-gateway/Appl/GenData/Xcp_Lcfg.o
LOAD obj/external/ap-cp-gateway/Appl/GenData/src/CDD_Mcl_Cfg.o
LOAD obj/external/ap-cp-gateway/Appl/GenData/src/CDD_Mcl_PBcfg.o
LOAD obj/external/ap-cp-gateway/Appl/GenData/src/Clock_Ip_Cfg.o
LOAD obj/external/ap-cp-gateway/Appl/GenData/src/Clock_Ip_PBcfg.o
LOAD obj/external/ap-cp-gateway/Appl/GenData/src/Dio_Cfg.o
LOAD obj/external/ap-cp-gateway/Appl/GenData/src/Dma_Ip_Cfg.o
LOAD obj/external/ap-cp-gateway/Appl/GenData/src/Dma_Ip_PBcfg.o
LOAD obj/external/ap-cp-gateway/Appl/GenData/src/Fls_Cfg.o
LOAD obj/external/ap-cp-gateway/Appl/GenData/src/Fls_PBcfg.o
LOAD obj/external/ap-cp-gateway/Appl/GenData/src/Mcu_Cfg.o
LOAD obj/external/ap-cp-gateway/Appl/GenData/src/Mcu_PBcfg.o
LOAD obj/external/ap-cp-gateway/Appl/GenData/src/OsIf_Cfg.o
LOAD obj/external/ap-cp-gateway/Appl/GenData/src/Port_Cfg.o
LOAD obj/external/ap-cp-gateway/Appl/GenData/src/Port_PBcfg.o
LOAD obj/external/ap-cp-gateway/Appl/GenData/src/Power_Ip_Cfg.o
LOAD obj/external/ap-cp-gateway/Appl/GenData/src/Power_Ip_PBcfg.o
LOAD obj/external/ap-cp-gateway/Appl/GenData/src/Qspi_Ip_PBcfg.o
LOAD obj/external/ap-cp-gateway/Appl/GenData/src/Ram_Ip_Cfg.o
LOAD obj/external/ap-cp-gateway/Appl/GenData/src/Ram_Ip_PBcfg.o
LOAD obj/external/ap-cp-gateway/Appl/GenData/src/Siul2_Port_Ip_PBcfg.o
LOAD obj/external/ap-cp-gateway/Appl/GenData/vBrs_Lcfg.o
LOAD obj/external/ap-cp-gateway/Appl/GenData/vLinkGen_Lcfg.o
LOAD obj/external/ap-cp-gateway/Appl/Source/ARMBrsHwIntTb_CortexM.o
LOAD obj/external/ap-cp-gateway/Appl/Source/ARMBrsHw_CortexM.o
LOAD obj/external/ap-cp-gateway/Appl/Source/ARMStartup_CortexM.o
LOAD obj/external/ap-cp-gateway/Appl/Source/BrsHw.o
LOAD obj/external/ap-cp-gateway/Appl/Source/BrsMain.o
LOAD obj/external/ap-cp-gateway/Appl/Source/BrsMainStartup.o
LOAD obj/external/ap-cp-gateway/Appl/Source/BrsMain_Callout_Stubs.o
LOAD obj/external/ap-cp-gateway/Appl/Source/BswInit.o
LOAD obj/external/ap-cp-gateway/Appl/Source/BswM_Callout_Stubs.o
LOAD obj/external/ap-cp-gateway/Appl/Source/Dcm_Callout_Stubs.o
LOAD obj/external/ap-cp-gateway/Appl/Source/EcuM_Callout_Stubs.o
LOAD obj/external/ap-cp-gateway/Appl/Source/Os_Callout_Stubs.o
LOAD obj/external/ap-cp-gateway/Appl/Source/XcpAppl.o
LOAD obj/external/ap-cp-gateway/Appl/Source/ipc-shm/Cdd_Ipc.o
LOAD obj/external/ap-cp-gateway/Appl/Source/ipc-shm/Cdd_Ipc_Lcfg.o
LOAD obj/external/ap-cp-gateway/Appl/Source/ipc-shm/common/ipc-queue.o
LOAD obj/external/ap-cp-gateway/Appl/Source/ipc-shm/common/ipc-shm.o
LOAD obj/external/ap-cp-gateway/Appl/Source/ipc-shm/hw/s32gen1/ipc-hw-s32gen1.o
LOAD obj/external/ap-cp-gateway/Appl/Source/ipc-shm/os/autosar/ipc-os-autosar.o
LOAD C:/TOOLS/NXP/gcc-9.2-arm32-eabi/arm-none-eabi/newlib/lib/thumb/v7-m/nofp\libc.a
OUTPUT(TestSuit.elf elf32-littlearm)

.ARM.attributes
                0x00000000       0x2f
 .ARM.attributes
                0x00000000       0x21 obj/external/Components/Os/Implementation/Os_Hal_Compiler_TiInt.o
 .ARM.attributes
                0x00000021       0x21 obj/external/Components/Os/Implementation/Os_Hal_ContextAsm.o
 .ARM.attributes
                0x00000042       0x21 obj/external/ap-cp-gateway/Appl/GenData/Os_Hal_EntryAsm_Lcfg.o
 .ARM.attributes
                0x00000063       0x2c obj/external/Components/BswM/Implementation/BswM.o
 .ARM.attributes
                0x0000008f       0x2c obj/external/Components/CanIf/Implementation/CanIf.o
 .ARM.attributes
                0x000000bb       0x2c obj/external/Components/CanNm/Implementation/CanNm.o
 .ARM.attributes
                0x000000e7       0x2c obj/external/Components/CanSM/Implementation/CanSM.o
 .ARM.attributes
                0x00000113       0x2c obj/external/Components/CanTp/Implementation/CanTp.o
 .ARM.attributes
                0x0000013f       0x2c obj/external/Components/CanXcp/Implementation/CanXcp.o
 .ARM.attributes
                0x0000016b       0x2c obj/external/Components/Can_30_Flexcan4/Implementation/Can_30_Flexcan4.o
 .ARM.attributes
                0x00000197       0x2c obj/external/Components/Can_30_Flexcan4/Implementation/Can_30_Flexcan4_Irq.o
 .ARM.attributes
                0x000001c3       0x2c obj/external/Components/Com/Implementation/Com.o
 .ARM.attributes
                0x000001ef       0x2c obj/external/Components/Com/Implementation/Com_Buffers.o
 .ARM.attributes
                0x0000021b       0x31 obj/external/Components/Com/Implementation/Com_CprQueue.o
 .ARM.attributes
                0x0000024c       0x31 obj/external/Components/Com/Implementation/Com_CprQueueDescrGw.o
 .ARM.attributes
                0x0000027d       0x31 obj/external/Components/Com/Implementation/Com_CprQueueSigGw.o
 .ARM.attributes
                0x000002ae       0x31 obj/external/Components/Com/Implementation/Com_DescriptionGateway.o
 .ARM.attributes
                0x000002df       0x2c obj/external/Components/Com/Implementation/Com_Deserializer.o
 .ARM.attributes
                0x0000030b       0x2c obj/external/Components/Com/Implementation/Com_IPduGroupHdlr.o
 .ARM.attributes
                0x00000337       0x2c obj/external/Components/Com/Implementation/Com_LLIf.o
 .ARM.attributes
                0x00000363       0x2c obj/external/Components/Com/Implementation/Com_LMgt.o
 .ARM.attributes
                0x0000038f       0x2c obj/external/Components/Com/Implementation/Com_MainFunctions.o
 .ARM.attributes
                0x000003bb       0x31 obj/external/Components/Com/Implementation/Com_Notifications.o
 .ARM.attributes
                0x000003ec       0x31 obj/external/Components/Com/Implementation/Com_RxInv.o
 .ARM.attributes
                0x0000041d       0x2c obj/external/Components/Com/Implementation/Com_RxProcessing.o
 .ARM.attributes
                0x00000449       0x2c obj/external/Components/Com/Implementation/Com_Serializer.o
 .ARM.attributes
                0x00000475       0x31 obj/external/Components/Com/Implementation/Com_SignalFilterHdlr.o
 .ARM.attributes
                0x000004a6       0x31 obj/external/Components/Com/Implementation/Com_SignalGateway.o
 .ARM.attributes
                0x000004d7       0x2c obj/external/Components/Com/Implementation/Com_SignalIf.o
 .ARM.attributes
                0x00000503       0x31 obj/external/Components/Com/Implementation/Com_Timer.o
 .ARM.attributes
                0x00000534       0x2c obj/external/Components/Com/Implementation/Com_TxModeHdlr.o
 .ARM.attributes
                0x00000560       0x2c obj/external/Components/ComM/Implementation/ComM.o
 .ARM.attributes
                0x0000058c       0x2c obj/external/Components/Crc/Implementation/Crc.o
 .ARM.attributes
                0x000005b8       0x2c obj/external/Components/Dcm/Implementation/Dcm.o
 .ARM.attributes
                0x000005e4       0x31 obj/external/Components/Dcm/Implementation/Dcm_AuthMgr.o
 .ARM.attributes
                0x00000615       0x31 obj/external/Components/Dcm/Implementation/Dcm_CfgWrap.o
 .ARM.attributes
                0x00000646       0x2c obj/external/Components/Dcm/Implementation/Dcm_Debug.o
 .ARM.attributes
                0x00000672       0x2c obj/external/Components/Dcm/Implementation/Dcm_DemIf.o
 .ARM.attributes
                0x0000069e       0x31 obj/external/Components/Dcm/Implementation/Dcm_Diag.o
 .ARM.attributes
                0x000006cf       0x2c obj/external/Components/Dcm/Implementation/Dcm_DidMgr.o
 .ARM.attributes
                0x000006fb       0x31 obj/external/Components/Dcm/Implementation/Dcm_Ext.o
 .ARM.attributes
                0x0000072c       0x31 obj/external/Components/Dcm/Implementation/Dcm_FblMgr.o
 .ARM.attributes
                0x0000075d       0x2c obj/external/Components/Dcm/Implementation/Dcm_MemMgr.o
 .ARM.attributes
                0x00000789       0x2c obj/external/Components/Dcm/Implementation/Dcm_Mode.o
 .ARM.attributes
                0x000007b5       0x31 obj/external/Components/Dcm/Implementation/Dcm_Net.o
 .ARM.attributes
                0x000007e6       0x31 obj/external/Components/Dcm/Implementation/Dcm_ObdDtcMgr.o
 .ARM.attributes
                0x00000817       0x2c obj/external/Components/Dcm/Implementation/Dcm_ObdIdMgr.o
 .ARM.attributes
                0x00000843       0x31 obj/external/Components/Dcm/Implementation/Dcm_PagedBuffer.o
 .ARM.attributes
                0x00000874       0x2c obj/external/Components/Dcm/Implementation/Dcm_Repeater.o
 .ARM.attributes
                0x000008a0       0x2c obj/external/Components/Dcm/Implementation/Dcm_RidMgr.o
 .ARM.attributes
                0x000008cc       0x2c obj/external/Components/Dcm/Implementation/Dcm_RsrcMgr.o
 .ARM.attributes
                0x000008f8       0x2c obj/external/Components/Dcm/Implementation/Dcm_State.o
 .ARM.attributes
                0x00000924       0x31 obj/external/Components/Dcm/Implementation/Dcm_Svc01.o
 .ARM.attributes
                0x00000955       0x31 obj/external/Components/Dcm/Implementation/Dcm_Svc02.o
 .ARM.attributes
                0x00000986       0x31 obj/external/Components/Dcm/Implementation/Dcm_Svc03.o
 .ARM.attributes
                0x000009b7       0x31 obj/external/Components/Dcm/Implementation/Dcm_Svc04.o
 .ARM.attributes
                0x000009e8       0x31 obj/external/Components/Dcm/Implementation/Dcm_Svc06.o
 .ARM.attributes
                0x00000a19       0x31 obj/external/Components/Dcm/Implementation/Dcm_Svc07.o
 .ARM.attributes
                0x00000a4a       0x31 obj/external/Components/Dcm/Implementation/Dcm_Svc08.o
 .ARM.attributes
                0x00000a7b       0x31 obj/external/Components/Dcm/Implementation/Dcm_Svc09.o
 .ARM.attributes
                0x00000aac       0x31 obj/external/Components/Dcm/Implementation/Dcm_Svc0A.o
 .ARM.attributes
                0x00000add       0x2c obj/external/Components/Dcm/Implementation/Dcm_Svc11.o
 .ARM.attributes
                0x00000b09       0x2c obj/external/Components/Dcm/Implementation/Dcm_Svc14.o
 .ARM.attributes
                0x00000b35       0x2c obj/external/Components/Dcm/Implementation/Dcm_Svc19.o
 .ARM.attributes
                0x00000b61       0x2c obj/external/Components/Dcm/Implementation/Dcm_Svc19Uti.o
 .ARM.attributes
                0x00000b8d       0x2c obj/external/Components/Dcm/Implementation/Dcm_Svc22.o
 .ARM.attributes
                0x00000bb9       0x2c obj/external/Components/Dcm/Implementation/Dcm_Svc23.o
 .ARM.attributes
                0x00000be5       0x31 obj/external/Components/Dcm/Implementation/Dcm_Svc24.o
 .ARM.attributes
                0x00000c16       0x2c obj/external/Components/Dcm/Implementation/Dcm_Svc27.o
 .ARM.attributes
                0x00000c42       0x2c obj/external/Components/Dcm/Implementation/Dcm_Svc28.o
 .ARM.attributes
                0x00000c6e       0x31 obj/external/Components/Dcm/Implementation/Dcm_Svc29.o
 .ARM.attributes
                0x00000c9f       0x2c obj/external/Components/Dcm/Implementation/Dcm_Svc2A.o
 .ARM.attributes
                0x00000ccb       0x2c obj/external/Components/Dcm/Implementation/Dcm_Svc2ASchd.o
 .ARM.attributes
                0x00000cf7       0x2c obj/external/Components/Dcm/Implementation/Dcm_Svc2E.o
 .ARM.attributes
                0x00000d23       0x2c obj/external/Components/Dcm/Implementation/Dcm_Svc2F.o
 .ARM.attributes
                0x00000d4f       0x2c obj/external/Components/Dcm/Implementation/Dcm_Svc31.o
 .ARM.attributes
                0x00000d7b       0x31 obj/external/Components/Dcm/Implementation/Dcm_Svc34.o
 .ARM.attributes
                0x00000dac       0x31 obj/external/Components/Dcm/Implementation/Dcm_Svc36.o
 .ARM.attributes
                0x00000ddd       0x31 obj/external/Components/Dcm/Implementation/Dcm_Svc37.o
 .ARM.attributes
                0x00000e0e       0x2c obj/external/Components/Dcm/Implementation/Dcm_Svc3D.o
 .ARM.attributes
                0x00000e3a       0x2c obj/external/Components/Dcm/Implementation/Dcm_Svc3E.o
 .ARM.attributes
                0x00000e66       0x2c obj/external/Components/Dcm/Implementation/Dcm_Svc85.o
 .ARM.attributes
                0x00000e92       0x2c obj/external/Components/Dcm/Implementation/Dcm_Tmr.o
 .ARM.attributes
                0x00000ebe       0x2c obj/external/Components/Dcm/Implementation/Dcm_Tsk.o
 .ARM.attributes
                0x00000eea       0x2c obj/external/Components/Dcm/Implementation/Dcm_Uti.o
 .ARM.attributes
                0x00000f16       0x2c obj/external/Components/Dcm/Implementation/Dcm_VarMgr.o
 .ARM.attributes
                0x00000f42       0x2c obj/external/Components/Dem/Implementation/Dem.o
 .ARM.attributes
                0x00000f6e       0x2c obj/external/Components/Det/Implementation/Det.o
 .ARM.attributes
                0x00000f9a       0x2c obj/external/Components/EcuM/Implementation/EcuM.o
 .ARM.attributes
                0x00000fc6       0x2c obj/external/Components/Fee/Implementation/Fee.o
 .ARM.attributes
                0x00000ff2       0x2c obj/external/Components/Fee/Implementation/Fee_ChunkInfo.o
 .ARM.attributes
                0x0000101e       0x31 obj/external/Components/Fee/Implementation/Fee_LookUpTable.o
 .ARM.attributes
                0x0000104f       0x2c obj/external/Components/Fee/Implementation/Fee_Partition.o
 .ARM.attributes
                0x0000107b       0x2c obj/external/Components/Fee/Implementation/Fee_Processing.o
 .ARM.attributes
                0x000010a7       0x2c obj/external/Components/Fee/Implementation/Fee_Sector.o
 .ARM.attributes
                0x000010d3       0x2c obj/external/Components/IpduM/Implementation/IpduM.o
 .ARM.attributes
                0x000010ff       0x2c obj/external/Components/IpduM/Implementation/IpduM_Container.o
 .ARM.attributes
                0x0000112b       0x31 obj/external/Components/IpduM/Implementation/IpduM_Mux.o
 .ARM.attributes
                0x0000115c       0x2c obj/external/Components/MemIf/Implementation/MemIf.o
 .ARM.attributes
                0x00001188       0x2c obj/external/Components/Nm/Implementation/Nm.o
 .ARM.attributes
                0x000011b4       0x2c obj/external/Components/NvM/Implementation/NvM.o
 .ARM.attributes
                0x000011e0       0x2c obj/external/Components/NvM/Implementation/NvM_Act.o
 .ARM.attributes
                0x0000120c       0x2c obj/external/Components/NvM/Implementation/NvM_Crc.o
 .ARM.attributes
                0x00001238       0x2c obj/external/Components/NvM/Implementation/NvM_DataIntegrity.o
 .ARM.attributes
                0x00001264       0x2c obj/external/Components/NvM/Implementation/NvM_JobProc.o
 .ARM.attributes
                0x00001290       0x31 obj/external/Components/NvM/Implementation/NvM_Mac.o
 .ARM.attributes
                0x000012c1       0x2c obj/external/Components/NvM/Implementation/NvM_MemIfAbstraction.o
 .ARM.attributes
                0x000012ed       0x31 obj/external/Components/NvM/Implementation/NvM_MemIfMemoryCore.o
 .ARM.attributes
                0x0000131e       0x2c obj/external/Components/NvM/Implementation/NvM_Qry.o
 .ARM.attributes
                0x0000134a       0x2c obj/external/Components/NvM/Implementation/NvM_Queue.o
 .ARM.attributes
                0x00001376       0x2c obj/external/Components/Os/Implementation/Os_AccessCheck.o
 .ARM.attributes
                0x000013a2       0x2c obj/external/Components/Os/Implementation/Os_Alarm.o
 .ARM.attributes
                0x000013ce       0x2c obj/external/Components/Os/Implementation/Os_Application.o
 .ARM.attributes
                0x000013fa       0x2c obj/external/Components/Os/Implementation/Os_Barrier.o
 .ARM.attributes
                0x00001426       0x31 obj/external/Components/Os/Implementation/Os_Bit.o
 .ARM.attributes
                0x00001457       0x31 obj/external/Components/Os/Implementation/Os_BitArray.o
 .ARM.attributes
                0x00001488       0x2c obj/external/Components/Os/Implementation/Os_Core.o
 .ARM.attributes
                0x000014b4       0x2c obj/external/Components/Os/Implementation/Os_Counter.o
 .ARM.attributes
                0x000014e0       0x31 obj/external/Components/Os/Implementation/Os_Deque.o
 .ARM.attributes
                0x00001511       0x2c obj/external/Components/Os/Implementation/Os_Error.o
 .ARM.attributes
                0x0000153d       0x2c obj/external/Components/Os/Implementation/Os_Event.o
 .ARM.attributes
                0x00001569       0x31 obj/external/Components/Os/Implementation/Os_Fifo.o
 .ARM.attributes
                0x0000159a       0x31 obj/external/Components/Os/Implementation/Os_Fifo08.o
 .ARM.attributes
                0x000015cb       0x31 obj/external/Components/Os/Implementation/Os_Fifo16.o
 .ARM.attributes
                0x000015fc       0x31 obj/external/Components/Os/Implementation/Os_Fifo32.o
 .ARM.attributes
                0x0000162d       0x31 obj/external/Components/Os/Implementation/Os_FifoRef.o
 .ARM.attributes
                0x0000165e       0x31 obj/external/Components/Os/Implementation/Os_Hal_Compiler_Arm.o
 .ARM.attributes
                0x0000168f       0x31 obj/external/Components/Os/Implementation/Os_Hal_Compiler_Iar.o
 .ARM.attributes
                0x000016c0       0x2c obj/external/Components/Os/Implementation/Os_Hal_Context.o
 .ARM.attributes
                0x000016ec       0x2c obj/external/Components/Os/Implementation/Os_Hal_Core.o
 .ARM.attributes
                0x00001718       0x31 obj/external/Components/Os/Implementation/Os_Hal_Entry.o
 .ARM.attributes
                0x00001749       0x2c obj/external/Components/Os/Implementation/Os_Hook.o
 .ARM.attributes
                0x00001775       0x2c obj/external/Components/Os/Implementation/Os_Interrupt.o
 .ARM.attributes
                0x000017a1       0x2c obj/external/Components/Os/Implementation/Os_Ioc.o
 .ARM.attributes
                0x000017cd       0x2c obj/external/Components/Os/Implementation/Os_Isr.o
 .ARM.attributes
                0x000017f9       0x31 obj/external/Components/Os/Implementation/Os_Job.o
 .ARM.attributes
                0x0000182a       0x31 obj/external/Components/Os/Implementation/Os_Lock.o
 .ARM.attributes
                0x0000185b       0x2c obj/external/Components/Os/Implementation/Os_MemoryProtection.o
 .ARM.attributes
                0x00001887       0x2c obj/external/Components/Os/Implementation/Os_Peripheral.o
 .ARM.attributes
                0x000018b3       0x2c obj/external/Components/Os/Implementation/Os_PriorityQueue.o
 .ARM.attributes
                0x000018df       0x2c obj/external/Components/Os/Implementation/Os_Resource.o
 .ARM.attributes
                0x0000190b       0x2c obj/external/Components/Os/Implementation/Os_ScheduleTable.o
 .ARM.attributes
                0x00001937       0x2c obj/external/Components/Os/Implementation/Os_Scheduler.o
 .ARM.attributes
                0x00001963       0x2c obj/external/Components/Os/Implementation/Os_ServiceFunction.o
 .ARM.attributes
                0x0000198f       0x2c obj/external/Components/Os/Implementation/Os_Spinlock.o
 .ARM.attributes
                0x000019bb       0x2c obj/external/Components/Os/Implementation/Os_Stack.o
 .ARM.attributes
                0x000019e7       0x2c obj/external/Components/Os/Implementation/Os_Task.o
 .ARM.attributes
                0x00001a13       0x2c obj/external/Components/Os/Implementation/Os_Thread.o
 .ARM.attributes
                0x00001a3f       0x2c obj/external/Components/Os/Implementation/Os_Timer.o
 .ARM.attributes
                0x00001a6b       0x2c obj/external/Components/Os/Implementation/Os_TimingProtection.o
 .ARM.attributes
                0x00001a97       0x31 obj/external/Components/Os/Implementation/Os_Trace.o
 .ARM.attributes
                0x00001ac8       0x2c obj/external/Components/Os/Implementation/Os_Trap.o
 .ARM.attributes
                0x00001af4       0x2c obj/external/Components/Os/Implementation/Os_XSignal.o
 .ARM.attributes
                0x00001b20       0x2c obj/external/Components/PduR/Implementation/PduR.o
 .ARM.attributes
                0x00001b4c       0x2c obj/external/Components/PduR/Implementation/PduR_Bm.o
 .ARM.attributes
                0x00001b78       0x2c obj/external/Components/PduR/Implementation/PduR_Fm.o
 .ARM.attributes
                0x00001ba4       0x31 obj/external/Components/PduR/Implementation/PduR_IFQ.o
 .ARM.attributes
                0x00001bd5       0x2c obj/external/Components/PduR/Implementation/PduR_Lock.o
 .ARM.attributes
                0x00001c01       0x31 obj/external/Components/PduR/Implementation/PduR_McQ.o
 .ARM.attributes
                0x00001c32       0x2c obj/external/Components/PduR/Implementation/PduR_RmIf.o
 .ARM.attributes
                0x00001c5e       0x2c obj/external/Components/PduR/Implementation/PduR_RmTp.o
 .ARM.attributes
                0x00001c8a       0x31 obj/external/Components/PduR/Implementation/PduR_RmTp_TxInst.o
 .ARM.attributes
                0x00001cbb       0x31 obj/external/Components/PduR/Implementation/PduR_Sm.o
 .ARM.attributes
                0x00001cec       0x2c obj/external/Components/VStdLib/Implementation/vstdlib.o
 .ARM.attributes
                0x00001d18       0x2c obj/external/Components/Xcp/Implementation/Xcp.o
 .ARM.attributes
                0x00001d44       0x31 obj/external/ThirdParty/Mcal_S32x/Supply/SW32G_RTD_4.4_3.0.4/eclipse/plugins/Base_TS_T40D11M30I4R0/src/OsIf_Interrupts.o
 .ARM.attributes
                0x00001d75       0x2c obj/external/ThirdParty/Mcal_S32x/Supply/SW32G_RTD_4.4_3.0.4/eclipse/plugins/Base_TS_T40D11M30I4R0/src/OsIf_Timer.o
 .ARM.attributes
                0x00001da1       0x31 obj/external/ThirdParty/Mcal_S32x/Supply/SW32G_RTD_4.4_3.0.4/eclipse/plugins/Base_TS_T40D11M30I4R0/src/OsIf_Timer_System.o
 .ARM.attributes
                0x00001dd2       0x31 obj/external/ThirdParty/Mcal_S32x/Supply/SW32G_RTD_4.4_3.0.4/eclipse/plugins/Base_TS_T40D11M30I4R0/src/OsIf_Timer_System_Internal_Systick.o
 .ARM.attributes
                0x00001e03       0x2c obj/external/ThirdParty/Mcal_S32x/Supply/SW32G_RTD_4.4_3.0.4/eclipse/plugins/Dio_TS_T40D11M30I4R0/src/Dio.o
 .ARM.attributes
                0x00001e2f       0x2c obj/external/ThirdParty/Mcal_S32x/Supply/SW32G_RTD_4.4_3.0.4/eclipse/plugins/Dio_TS_T40D11M30I4R0/src/Dio_Ipw.o
 .ARM.attributes
                0x00001e5b       0x2c obj/external/ThirdParty/Mcal_S32x/Supply/SW32G_RTD_4.4_3.0.4/eclipse/plugins/Dio_TS_T40D11M30I4R0/src/Siul2_Dio_Ip.o
 .ARM.attributes
                0x00001e87       0x2c obj/external/ThirdParty/Mcal_S32x/Supply/SW32G_RTD_4.4_3.0.4/eclipse/plugins/Fls_TS_T40D11M30I4R0/src/Fls.o
 .ARM.attributes
                0x00001eb3       0x2c obj/external/ThirdParty/Mcal_S32x/Supply/SW32G_RTD_4.4_3.0.4/eclipse/plugins/Fls_TS_T40D11M30I4R0/src/Fls_IPW.o
 .ARM.attributes
                0x00001edf       0x2c obj/external/ThirdParty/Mcal_S32x/Supply/SW32G_RTD_4.4_3.0.4/eclipse/plugins/Fls_TS_T40D11M30I4R0/src/Qspi_Ip.o
 .ARM.attributes
                0x00001f0b       0x2c obj/external/ThirdParty/Mcal_S32x/Supply/SW32G_RTD_4.4_3.0.4/eclipse/plugins/Fls_TS_T40D11M30I4R0/src/Qspi_Ip_Controller.o
 .ARM.attributes
                0x00001f37       0x2c obj/external/ThirdParty/Mcal_S32x/Supply/SW32G_RTD_4.4_3.0.4/eclipse/plugins/Fls_TS_T40D11M30I4R0/src/Qspi_Ip_Sfdp.o
 .ARM.attributes
                0x00001f63       0x2c obj/external/ThirdParty/Mcal_S32x/Supply/SW32G_RTD_4.4_3.0.4/eclipse/plugins/Mcl_TS_T40D11M30I4R0/src/CDD_Mcl.o
 .ARM.attributes
                0x00001f8f       0x31 obj/external/ThirdParty/Mcal_S32x/Supply/SW32G_RTD_4.4_3.0.4/eclipse/plugins/Mcl_TS_T40D11M30I4R0/src/Dma_Ip.o
 .ARM.attributes
                0x00001fc0       0x31 obj/external/ThirdParty/Mcal_S32x/Supply/SW32G_RTD_4.4_3.0.4/eclipse/plugins/Mcl_TS_T40D11M30I4R0/src/Dma_Ip_Driver_State.o
 .ARM.attributes
                0x00001ff1       0x31 obj/external/ThirdParty/Mcal_S32x/Supply/SW32G_RTD_4.4_3.0.4/eclipse/plugins/Mcl_TS_T40D11M30I4R0/src/Dma_Ip_Hw_Access.o
 .ARM.attributes
                0x00002022       0x31 obj/external/ThirdParty/Mcal_S32x/Supply/SW32G_RTD_4.4_3.0.4/eclipse/plugins/Mcl_TS_T40D11M30I4R0/src/Dma_Ip_Irq.o
 .ARM.attributes
                0x00002053       0x31 obj/external/ThirdParty/Mcal_S32x/Supply/SW32G_RTD_4.4_3.0.4/eclipse/plugins/Mcl_TS_T40D11M30I4R0/src/Dma_Ip_Multicore.o
 .ARM.attributes
                0x00002084       0x31 obj/external/ThirdParty/Mcal_S32x/Supply/SW32G_RTD_4.4_3.0.4/eclipse/plugins/Mcl_TS_T40D11M30I4R0/src/Ftm_Mcl_Ip.o
 .ARM.attributes
                0x000020b5       0x2c obj/external/ThirdParty/Mcal_S32x/Supply/SW32G_RTD_4.4_3.0.4/eclipse/plugins/Mcu_TS_T40D11M30I4R0/src/Clock_Ip.o
 .ARM.attributes
                0x000020e1       0x31 obj/external/ThirdParty/Mcal_S32x/Supply/SW32G_RTD_4.4_3.0.4/eclipse/plugins/Mcu_TS_T40D11M30I4R0/src/Clock_Ip_Data.o
 .ARM.attributes
                0x00002112       0x31 obj/external/ThirdParty/Mcal_S32x/Supply/SW32G_RTD_4.4_3.0.4/eclipse/plugins/Mcu_TS_T40D11M30I4R0/src/Clock_Ip_Data1.o
 .ARM.attributes
                0x00002143       0x31 obj/external/ThirdParty/Mcal_S32x/Supply/SW32G_RTD_4.4_3.0.4/eclipse/plugins/Mcu_TS_T40D11M30I4R0/src/Clock_Ip_Data2.o
 .ARM.attributes
                0x00002174       0x2c obj/external/ThirdParty/Mcal_S32x/Supply/SW32G_RTD_4.4_3.0.4/eclipse/plugins/Mcu_TS_T40D11M30I4R0/src/Clock_Ip_Divider.o
 .ARM.attributes
                0x000021a0       0x2c obj/external/ThirdParty/Mcal_S32x/Supply/SW32G_RTD_4.4_3.0.4/eclipse/plugins/Mcu_TS_T40D11M30I4R0/src/Clock_Ip_DividerTrigger.o
 .ARM.attributes
                0x000021cc       0x2c obj/external/ThirdParty/Mcal_S32x/Supply/SW32G_RTD_4.4_3.0.4/eclipse/plugins/Mcu_TS_T40D11M30I4R0/src/Clock_Ip_ExtOsc.o
 .ARM.attributes
                0x000021f8       0x2c obj/external/ThirdParty/Mcal_S32x/Supply/SW32G_RTD_4.4_3.0.4/eclipse/plugins/Mcu_TS_T40D11M30I4R0/src/Clock_Ip_FracDiv.o
 .ARM.attributes
                0x00002224       0x31 obj/external/ThirdParty/Mcal_S32x/Supply/SW32G_RTD_4.4_3.0.4/eclipse/plugins/Mcu_TS_T40D11M30I4R0/src/Clock_Ip_Frequency.o
 .ARM.attributes
                0x00002255       0x31 obj/external/ThirdParty/Mcal_S32x/Supply/SW32G_RTD_4.4_3.0.4/eclipse/plugins/Mcu_TS_T40D11M30I4R0/src/Clock_Ip_Frequency1.o
 .ARM.attributes
                0x00002286       0x31 obj/external/ThirdParty/Mcal_S32x/Supply/SW32G_RTD_4.4_3.0.4/eclipse/plugins/Mcu_TS_T40D11M30I4R0/src/Clock_Ip_Frequency2.o
 .ARM.attributes
                0x000022b7       0x2c obj/external/ThirdParty/Mcal_S32x/Supply/SW32G_RTD_4.4_3.0.4/eclipse/plugins/Mcu_TS_T40D11M30I4R0/src/Clock_Ip_Gate.o
 .ARM.attributes
                0x000022e3       0x2c obj/external/ThirdParty/Mcal_S32x/Supply/SW32G_RTD_4.4_3.0.4/eclipse/plugins/Mcu_TS_T40D11M30I4R0/src/Clock_Ip_IntOsc.o
 .ARM.attributes
                0x0000230f       0x2c obj/external/ThirdParty/Mcal_S32x/Supply/SW32G_RTD_4.4_3.0.4/eclipse/plugins/Mcu_TS_T40D11M30I4R0/src/Clock_Ip_Irq.o
 .ARM.attributes
                0x0000233b       0x2c obj/external/ThirdParty/Mcal_S32x/Supply/SW32G_RTD_4.4_3.0.4/eclipse/plugins/Mcu_TS_T40D11M30I4R0/src/Clock_Ip_Monitor.o
 .ARM.attributes
                0x00002367       0x2c obj/external/ThirdParty/Mcal_S32x/Supply/SW32G_RTD_4.4_3.0.4/eclipse/plugins/Mcu_TS_T40D11M30I4R0/src/Clock_Ip_Pll.o
 .ARM.attributes
                0x00002393       0x2c obj/external/ThirdParty/Mcal_S32x/Supply/SW32G_RTD_4.4_3.0.4/eclipse/plugins/Mcu_TS_T40D11M30I4R0/src/Clock_Ip_ProgFreqSwitch.o
 .ARM.attributes
                0x000023bf       0x2c obj/external/ThirdParty/Mcal_S32x/Supply/SW32G_RTD_4.4_3.0.4/eclipse/plugins/Mcu_TS_T40D11M30I4R0/src/Clock_Ip_Selector.o
 .ARM.attributes
                0x000023eb       0x2c obj/external/ThirdParty/Mcal_S32x/Supply/SW32G_RTD_4.4_3.0.4/eclipse/plugins/Mcu_TS_T40D11M30I4R0/src/Clock_Ip_Specific.o
 .ARM.attributes
                0x00002417       0x31 obj/external/ThirdParty/Mcal_S32x/Supply/SW32G_RTD_4.4_3.0.4/eclipse/plugins/Mcu_TS_T40D11M30I4R0/src/Clock_Ip_Specific1.o
 .ARM.attributes
                0x00002448       0x31 obj/external/ThirdParty/Mcal_S32x/Supply/SW32G_RTD_4.4_3.0.4/eclipse/plugins/Mcu_TS_T40D11M30I4R0/src/Clock_Ip_Specific2.o
 .ARM.attributes
                0x00002479       0x2c obj/external/ThirdParty/Mcal_S32x/Supply/SW32G_RTD_4.4_3.0.4/eclipse/plugins/Mcu_TS_T40D11M30I4R0/src/Mcu.o
 .ARM.attributes
                0x000024a5       0x31 obj/external/ThirdParty/Mcal_S32x/Supply/SW32G_RTD_4.4_3.0.4/eclipse/plugins/Mcu_TS_T40D11M30I4R0/src/Mcu_Dem_Wrapper.o
 .ARM.attributes
                0x000024d6       0x2c obj/external/ThirdParty/Mcal_S32x/Supply/SW32G_RTD_4.4_3.0.4/eclipse/plugins/Mcu_TS_T40D11M30I4R0/src/Mcu_Ipw.o
 .ARM.attributes
                0x00002502       0x2c obj/external/ThirdParty/Mcal_S32x/Supply/SW32G_RTD_4.4_3.0.4/eclipse/plugins/Mcu_TS_T40D11M30I4R0/src/Power_Ip.o
 .ARM.attributes
                0x0000252e       0x31 obj/external/ThirdParty/Mcal_S32x/Supply/SW32G_RTD_4.4_3.0.4/eclipse/plugins/Mcu_TS_T40D11M30I4R0/src/Power_Ip_CortexA.o
 .ARM.attributes
                0x0000255f       0x2c obj/external/ThirdParty/Mcal_S32x/Supply/SW32G_RTD_4.4_3.0.4/eclipse/plugins/Mcu_TS_T40D11M30I4R0/src/Power_Ip_CortexM7.o
 .ARM.attributes
                0x0000258b       0x2c obj/external/ThirdParty/Mcal_S32x/Supply/SW32G_RTD_4.4_3.0.4/eclipse/plugins/Mcu_TS_T40D11M30I4R0/src/Power_Ip_MC_ME.o
 .ARM.attributes
                0x000025b7       0x2c obj/external/ThirdParty/Mcal_S32x/Supply/SW32G_RTD_4.4_3.0.4/eclipse/plugins/Mcu_TS_T40D11M30I4R0/src/Power_Ip_MC_RGM.o
 .ARM.attributes
                0x000025e3       0x31 obj/external/ThirdParty/Mcal_S32x/Supply/SW32G_RTD_4.4_3.0.4/eclipse/plugins/Mcu_TS_T40D11M30I4R0/src/Power_Ip_MC_RGM_Irq.o
 .ARM.attributes
                0x00002614       0x2c obj/external/ThirdParty/Mcal_S32x/Supply/SW32G_RTD_4.4_3.0.4/eclipse/plugins/Mcu_TS_T40D11M30I4R0/src/Power_Ip_MSCM.o
 .ARM.attributes
                0x00002640       0x2c obj/external/ThirdParty/Mcal_S32x/Supply/SW32G_RTD_4.4_3.0.4/eclipse/plugins/Mcu_TS_T40D11M30I4R0/src/Power_Ip_PMC.o
 .ARM.attributes
                0x0000266c       0x2c obj/external/ThirdParty/Mcal_S32x/Supply/SW32G_RTD_4.4_3.0.4/eclipse/plugins/Mcu_TS_T40D11M30I4R0/src/Power_Ip_Private.o
 .ARM.attributes
                0x00002698       0x2c obj/external/ThirdParty/Mcal_S32x/Supply/SW32G_RTD_4.4_3.0.4/eclipse/plugins/Mcu_TS_T40D11M30I4R0/src/Ram_Ip.o
 .ARM.attributes
                0x000026c4       0x2c obj/external/ThirdParty/Mcal_S32x/Supply/SW32G_RTD_4.4_3.0.4/eclipse/plugins/Port_TS_T40D11M30I4R0/src/Port.o
 .ARM.attributes
                0x000026f0       0x2c obj/external/ThirdParty/Mcal_S32x/Supply/SW32G_RTD_4.4_3.0.4/eclipse/plugins/Port_TS_T40D11M30I4R0/src/Port_Ipw.o
 .ARM.attributes
                0x0000271c       0x2c obj/external/ThirdParty/Mcal_S32x/Supply/SW32G_RTD_4.4_3.0.4/eclipse/plugins/Port_TS_T40D11M30I4R0/src/Siul2_Port_Ip.o
 .ARM.attributes
                0x00002748       0x2c obj/external/ap-cp-gateway/Appl/GenData/BswM_Lcfg.o
 .ARM.attributes
                0x00002774       0x31 obj/external/ap-cp-gateway/Appl/GenData/CanIf_Lcfg.o
 .ARM.attributes
                0x000027a5       0x31 obj/external/ap-cp-gateway/Appl/GenData/CanIf_PBcfg.o
 .ARM.attributes
                0x000027d6       0x31 obj/external/ap-cp-gateway/Appl/GenData/CanNm_Cfg.o
 .ARM.attributes
                0x00002807       0x31 obj/external/ap-cp-gateway/Appl/GenData/CanNm_Lcfg.o
 .ARM.attributes
                0x00002838       0x31 obj/external/ap-cp-gateway/Appl/GenData/CanNm_PBcfg.o
 .ARM.attributes
                0x00002869       0x31 obj/external/ap-cp-gateway/Appl/GenData/CanSM_Lcfg.o
 .ARM.attributes
                0x0000289a       0x31 obj/external/ap-cp-gateway/Appl/GenData/CanTp_Lcfg.o
 .ARM.attributes
                0x000028cb       0x31 obj/external/ap-cp-gateway/Appl/GenData/CanTp_PBcfg.o
 .ARM.attributes
                0x000028fc       0x31 obj/external/ap-cp-gateway/Appl/GenData/CanXcp_Lcfg.o
 .ARM.attributes
                0x0000292d       0x31 obj/external/ap-cp-gateway/Appl/GenData/CanXcp_PBcfg.o
 .ARM.attributes
                0x0000295e       0x31 obj/external/ap-cp-gateway/Appl/GenData/Can_30_Flexcan4_Lcfg.o
 .ARM.attributes
                0x0000298f       0x31 obj/external/ap-cp-gateway/Appl/GenData/Can_30_Flexcan4_PBcfg.o
 .ARM.attributes
                0x000029c0       0x2c obj/external/ap-cp-gateway/Appl/GenData/ComM_Lcfg.o
 .ARM.attributes
                0x000029ec       0x2c obj/external/ap-cp-gateway/Appl/GenData/Com_Lcfg.o
 .ARM.attributes
                0x00002a18       0x31 obj/external/ap-cp-gateway/Appl/GenData/Com_PBcfg.o
 .ARM.attributes
                0x00002a49       0x2c obj/external/ap-cp-gateway/Appl/GenData/Dcm_Lcfg.o
 .ARM.attributes
                0x00002a75       0x31 obj/external/ap-cp-gateway/Appl/GenData/Dcm_PBcfg.o
 .ARM.attributes
                0x00002aa6       0x31 obj/external/ap-cp-gateway/Appl/GenData/Dem_Lcfg.o
 .ARM.attributes
                0x00002ad7       0x31 obj/external/ap-cp-gateway/Appl/GenData/Dem_PBcfg.o
 .ARM.attributes
                0x00002b08       0x31 obj/external/ap-cp-gateway/Appl/GenData/Det_Cfg.o
 .ARM.attributes
                0x00002b39       0x31 obj/external/ap-cp-gateway/Appl/GenData/EcuM_Cfg.o
 .ARM.attributes
                0x00002b6a       0x31 obj/external/ap-cp-gateway/Appl/GenData/EcuM_Init_Cfg.o
 .ARM.attributes
                0x00002b9b       0x31 obj/external/ap-cp-gateway/Appl/GenData/EcuM_Init_PBcfg.o
 .ARM.attributes
                0x00002bcc       0x31 obj/external/ap-cp-gateway/Appl/GenData/EcuM_PBcfg.o
 .ARM.attributes
                0x00002bfd       0x2c obj/external/ap-cp-gateway/Appl/GenData/Fee_Lcfg.o
 .ARM.attributes
                0x00002c29       0x2c obj/external/ap-cp-gateway/Appl/GenData/IpduM_Lcfg.o
 .ARM.attributes
                0x00002c55       0x31 obj/external/ap-cp-gateway/Appl/GenData/IpduM_PBcfg.o
 .ARM.attributes
                0x00002c86       0x2c obj/external/ap-cp-gateway/Appl/GenData/MemIf_Cfg.o
 .ARM.attributes
                0x00002cb2       0x31 obj/external/ap-cp-gateway/Appl/GenData/Nm_Cfg.o
 .ARM.attributes
                0x00002ce3       0x31 obj/external/ap-cp-gateway/Appl/GenData/Nm_Lcfg.o
 .ARM.attributes
                0x00002d14       0x2c obj/external/ap-cp-gateway/Appl/GenData/NvM_Cfg.o
 .ARM.attributes
                0x00002d40       0x31 obj/external/ap-cp-gateway/Appl/GenData/Os_AccessCheck_Lcfg.o
 .ARM.attributes
                0x00002d71       0x31 obj/external/ap-cp-gateway/Appl/GenData/Os_Alarm_Lcfg.o
 .ARM.attributes
                0x00002da2       0x31 obj/external/ap-cp-gateway/Appl/GenData/Os_Application_Lcfg.o
 .ARM.attributes
                0x00002dd3       0x31 obj/external/ap-cp-gateway/Appl/GenData/Os_Barrier_Lcfg.o
 .ARM.attributes
                0x00002e04       0x31 obj/external/ap-cp-gateway/Appl/GenData/Os_Core_Lcfg.o
 .ARM.attributes
                0x00002e35       0x31 obj/external/ap-cp-gateway/Appl/GenData/Os_Counter_Lcfg.o
 .ARM.attributes
                0x00002e66       0x31 obj/external/ap-cp-gateway/Appl/GenData/Os_Error_Lcfg.o
 .ARM.attributes
                0x00002e97       0x31 obj/external/ap-cp-gateway/Appl/GenData/Os_Hal_Context_Lcfg.o
 .ARM.attributes
                0x00002ec8       0x31 obj/external/ap-cp-gateway/Appl/GenData/Os_Hal_Core_Lcfg.o
 .ARM.attributes
                0x00002ef9       0x31 obj/external/ap-cp-gateway/Appl/GenData/Os_Hal_Entry_Lcfg.o
 .ARM.attributes
                0x00002f2a       0x31 obj/external/ap-cp-gateway/Appl/GenData/Os_Hal_Interrupt_Lcfg.o
 .ARM.attributes
                0x00002f5b       0x31 obj/external/ap-cp-gateway/Appl/GenData/Os_Hal_Kernel_Lcfg.o
 .ARM.attributes
                0x00002f8c       0x31 obj/external/ap-cp-gateway/Appl/GenData/Os_Hal_MemoryProtection_Lcfg.o
 .ARM.attributes
                0x00002fbd       0x31 obj/external/ap-cp-gateway/Appl/GenData/Os_Hal_Timer_Lcfg.o
 .ARM.attributes
                0x00002fee       0x31 obj/external/ap-cp-gateway/Appl/GenData/Os_Hook_Lcfg.o
 .ARM.attributes
                0x0000301f       0x31 obj/external/ap-cp-gateway/Appl/GenData/Os_Ioc_Lcfg.o
 .ARM.attributes
                0x00003050       0x31 obj/external/ap-cp-gateway/Appl/GenData/Os_Isr_Lcfg.o
 .ARM.attributes
                0x00003081       0x31 obj/external/ap-cp-gateway/Appl/GenData/Os_MemoryProtection_Lcfg.o
 .ARM.attributes
                0x000030b2       0x31 obj/external/ap-cp-gateway/Appl/GenData/Os_Peripheral_Lcfg.o
 .ARM.attributes
                0x000030e3       0x31 obj/external/ap-cp-gateway/Appl/GenData/Os_Resource_Lcfg.o
 .ARM.attributes
                0x00003114       0x31 obj/external/ap-cp-gateway/Appl/GenData/Os_ScheduleTable_Lcfg.o
 .ARM.attributes
                0x00003145       0x31 obj/external/ap-cp-gateway/Appl/GenData/Os_Scheduler_Lcfg.o
 .ARM.attributes
                0x00003176       0x31 obj/external/ap-cp-gateway/Appl/GenData/Os_ServiceFunction_Lcfg.o
 .ARM.attributes
                0x000031a7       0x31 obj/external/ap-cp-gateway/Appl/GenData/Os_Spinlock_Lcfg.o
 .ARM.attributes
                0x000031d8       0x31 obj/external/ap-cp-gateway/Appl/GenData/Os_Stack_Lcfg.o
 .ARM.attributes
                0x00003209       0x31 obj/external/ap-cp-gateway/Appl/GenData/Os_Task_Lcfg.o
 .ARM.attributes
                0x0000323a       0x31 obj/external/ap-cp-gateway/Appl/GenData/Os_TimingProtection_Lcfg.o
 .ARM.attributes
                0x0000326b       0x31 obj/external/ap-cp-gateway/Appl/GenData/Os_Trace_Lcfg.o
 .ARM.attributes
                0x0000329c       0x31 obj/external/ap-cp-gateway/Appl/GenData/Os_XSignal_Lcfg.o
 .ARM.attributes
                0x000032cd       0x2c obj/external/ap-cp-gateway/Appl/GenData/PduR_Lcfg.o
 .ARM.attributes
                0x000032f9       0x31 obj/external/ap-cp-gateway/Appl/GenData/PduR_PBcfg.o
 .ARM.attributes
                0x0000332a       0x2c obj/external/ap-cp-gateway/Appl/GenData/Rte.o
 .ARM.attributes
                0x00003356       0x31 obj/external/ap-cp-gateway/Appl/GenData/Xcp_Lcfg.o
 .ARM.attributes
                0x00003387       0x31 obj/external/ap-cp-gateway/Appl/GenData/src/CDD_Mcl_Cfg.o
 .ARM.attributes
                0x000033b8       0x31 obj/external/ap-cp-gateway/Appl/GenData/src/CDD_Mcl_PBcfg.o
 .ARM.attributes
                0x000033e9       0x31 obj/external/ap-cp-gateway/Appl/GenData/src/Clock_Ip_Cfg.o
 .ARM.attributes
                0x0000341a       0x31 obj/external/ap-cp-gateway/Appl/GenData/src/Clock_Ip_PBcfg.o
 .ARM.attributes
                0x0000344b       0x31 obj/external/ap-cp-gateway/Appl/GenData/src/Dio_Cfg.o
 .ARM.attributes
                0x0000347c       0x31 obj/external/ap-cp-gateway/Appl/GenData/src/Dma_Ip_Cfg.o
 .ARM.attributes
                0x000034ad       0x31 obj/external/ap-cp-gateway/Appl/GenData/src/Dma_Ip_PBcfg.o
 .ARM.attributes
                0x000034de       0x31 obj/external/ap-cp-gateway/Appl/GenData/src/Fls_Cfg.o
 .ARM.attributes
                0x0000350f       0x31 obj/external/ap-cp-gateway/Appl/GenData/src/Fls_PBcfg.o
 .ARM.attributes
                0x00003540       0x31 obj/external/ap-cp-gateway/Appl/GenData/src/Mcu_Cfg.o
 .ARM.attributes
                0x00003571       0x31 obj/external/ap-cp-gateway/Appl/GenData/src/Mcu_PBcfg.o
 .ARM.attributes
                0x000035a2       0x31 obj/external/ap-cp-gateway/Appl/GenData/src/OsIf_Cfg.o
 .ARM.attributes
                0x000035d3       0x31 obj/external/ap-cp-gateway/Appl/GenData/src/Port_Cfg.o
 .ARM.attributes
                0x00003604       0x31 obj/external/ap-cp-gateway/Appl/GenData/src/Port_PBcfg.o
 .ARM.attributes
                0x00003635       0x31 obj/external/ap-cp-gateway/Appl/GenData/src/Power_Ip_Cfg.o
 .ARM.attributes
                0x00003666       0x31 obj/external/ap-cp-gateway/Appl/GenData/src/Power_Ip_PBcfg.o
 .ARM.attributes
                0x00003697       0x31 obj/external/ap-cp-gateway/Appl/GenData/src/Qspi_Ip_PBcfg.o
 .ARM.attributes
                0x000036c8       0x31 obj/external/ap-cp-gateway/Appl/GenData/src/Ram_Ip_Cfg.o
 .ARM.attributes
                0x000036f9       0x31 obj/external/ap-cp-gateway/Appl/GenData/src/Ram_Ip_PBcfg.o
 .ARM.attributes
                0x0000372a       0x31 obj/external/ap-cp-gateway/Appl/GenData/src/Siul2_Port_Ip_PBcfg.o
 .ARM.attributes
                0x0000375b       0x31 obj/external/ap-cp-gateway/Appl/GenData/vBrs_Lcfg.o
 .ARM.attributes
                0x0000378c       0x31 obj/external/ap-cp-gateway/Appl/GenData/vLinkGen_Lcfg.o
 .ARM.attributes
                0x000037bd       0x2c obj/external/ap-cp-gateway/Appl/Source/ARMBrsHwIntTb_CortexM.o
 .ARM.attributes
                0x000037e9       0x2c obj/external/ap-cp-gateway/Appl/Source/ARMBrsHw_CortexM.o
 .ARM.attributes
                0x00003815       0x31 obj/external/ap-cp-gateway/Appl/Source/ARMStartup_CortexM.o
 .ARM.attributes
                0x00003846       0x2c obj/external/ap-cp-gateway/Appl/Source/BrsHw.o
 .ARM.attributes
                0x00003872       0x2c obj/external/ap-cp-gateway/Appl/Source/BrsMain.o
 .ARM.attributes
                0x0000389e       0x2c obj/external/ap-cp-gateway/Appl/Source/BrsMainStartup.o
 .ARM.attributes
                0x000038ca       0x2c obj/external/ap-cp-gateway/Appl/Source/BrsMain_Callout_Stubs.o
 .ARM.attributes
                0x000038f6       0x2c obj/external/ap-cp-gateway/Appl/Source/BswInit.o
 .ARM.attributes
                0x00003922       0x2c obj/external/ap-cp-gateway/Appl/Source/BswM_Callout_Stubs.o
 .ARM.attributes
                0x0000394e       0x2c obj/external/ap-cp-gateway/Appl/Source/Dcm_Callout_Stubs.o
 .ARM.attributes
                0x0000397a       0x2c obj/external/ap-cp-gateway/Appl/Source/EcuM_Callout_Stubs.o
 .ARM.attributes
                0x000039a6       0x2c obj/external/ap-cp-gateway/Appl/Source/Os_Callout_Stubs.o
 .ARM.attributes
                0x000039d2       0x2c obj/external/ap-cp-gateway/Appl/Source/XcpAppl.o
 .ARM.attributes
                0x000039fe       0x2c obj/external/ap-cp-gateway/Appl/Source/ipc-shm/Cdd_Ipc.o
 .ARM.attributes
                0x00003a2a       0x31 obj/external/ap-cp-gateway/Appl/Source/ipc-shm/Cdd_Ipc_Lcfg.o
 .ARM.attributes
                0x00003a5b       0x2c obj/external/ap-cp-gateway/Appl/Source/ipc-shm/common/ipc-queue.o
 .ARM.attributes
                0x00003a87       0x2c obj/external/ap-cp-gateway/Appl/Source/ipc-shm/common/ipc-shm.o
 .ARM.attributes
                0x00003ab3       0x2c obj/external/ap-cp-gateway/Appl/Source/ipc-shm/hw/s32gen1/ipc-hw-s32gen1.o
 .ARM.attributes
                0x00003adf       0x2c obj/external/ap-cp-gateway/Appl/Source/ipc-shm/os/autosar/ipc-os-autosar.o
 .ARM.attributes
                0x00003b0b       0x2d C:/TOOLS/NXP/gcc-9.2-arm32-eabi/arm-none-eabi/newlib/lib/thumb/v7-m/nofp\libc.a(lib_a-memcpy-stub.o)
 .ARM.attributes
                0x00003b38       0x2d C:/TOOLS/NXP/gcc-9.2-arm32-eabi/arm-none-eabi/newlib/lib/thumb/v7-m/nofp\libc.a(lib_a-memset.o)

.comment        0x00000000       0x80
 .comment       0x00000000       0x80 obj/external/Components/BswM/Implementation/BswM.o
                                 0x81 (size before relaxing)
 .comment       0x00000080       0x81 obj/external/Components/CanIf/Implementation/CanIf.o
 .comment       0x00000080       0x81 obj/external/Components/CanNm/Implementation/CanNm.o
 .comment       0x00000080       0x81 obj/external/Components/CanSM/Implementation/CanSM.o
 .comment       0x00000080       0x81 obj/external/Components/CanTp/Implementation/CanTp.o
 .comment       0x00000080       0x81 obj/external/Components/CanXcp/Implementation/CanXcp.o
 .comment       0x00000080       0x81 obj/external/Components/Can_30_Flexcan4/Implementation/Can_30_Flexcan4.o
 .comment       0x00000080       0x81 obj/external/Components/Can_30_Flexcan4/Implementation/Can_30_Flexcan4_Irq.o
 .comment       0x00000080       0x81 obj/external/Components/Com/Implementation/Com.o
 .comment       0x00000080       0x81 obj/external/Components/Com/Implementation/Com_Buffers.o
 .comment       0x00000080       0x81 obj/external/Components/Com/Implementation/Com_CprQueue.o
 .comment       0x00000080       0x81 obj/external/Components/Com/Implementation/Com_CprQueueDescrGw.o
 .comment       0x00000080       0x81 obj/external/Components/Com/Implementation/Com_CprQueueSigGw.o
 .comment       0x00000080       0x81 obj/external/Components/Com/Implementation/Com_DescriptionGateway.o
 .comment       0x00000080       0x81 obj/external/Components/Com/Implementation/Com_Deserializer.o
 .comment       0x00000080       0x81 obj/external/Components/Com/Implementation/Com_IPduGroupHdlr.o
 .comment       0x00000080       0x81 obj/external/Components/Com/Implementation/Com_LLIf.o
 .comment       0x00000080       0x81 obj/external/Components/Com/Implementation/Com_LMgt.o
 .comment       0x00000080       0x81 obj/external/Components/Com/Implementation/Com_MainFunctions.o
 .comment       0x00000080       0x81 obj/external/Components/Com/Implementation/Com_Notifications.o
 .comment       0x00000080       0x81 obj/external/Components/Com/Implementation/Com_RxInv.o
 .comment       0x00000080       0x81 obj/external/Components/Com/Implementation/Com_RxProcessing.o
 .comment       0x00000080       0x81 obj/external/Components/Com/Implementation/Com_Serializer.o
 .comment       0x00000080       0x81 obj/external/Components/Com/Implementation/Com_SignalFilterHdlr.o
 .comment       0x00000080       0x81 obj/external/Components/Com/Implementation/Com_SignalGateway.o
 .comment       0x00000080       0x81 obj/external/Components/Com/Implementation/Com_SignalIf.o
 .comment       0x00000080       0x81 obj/external/Components/Com/Implementation/Com_Timer.o
 .comment       0x00000080       0x81 obj/external/Components/Com/Implementation/Com_TxModeHdlr.o
 .comment       0x00000080       0x81 obj/external/Components/ComM/Implementation/ComM.o
 .comment       0x00000080       0x81 obj/external/Components/Crc/Implementation/Crc.o
 .comment       0x00000080       0x81 obj/external/Components/Dcm/Implementation/Dcm.o
 .comment       0x00000080       0x81 obj/external/Components/Dcm/Implementation/Dcm_AuthMgr.o
 .comment       0x00000080       0x81 obj/external/Components/Dcm/Implementation/Dcm_CfgWrap.o
 .comment       0x00000080       0x81 obj/external/Components/Dcm/Implementation/Dcm_Debug.o
 .comment       0x00000080       0x81 obj/external/Components/Dcm/Implementation/Dcm_DemIf.o
 .comment       0x00000080       0x81 obj/external/Components/Dcm/Implementation/Dcm_Diag.o
 .comment       0x00000080       0x81 obj/external/Components/Dcm/Implementation/Dcm_DidMgr.o
 .comment       0x00000080       0x81 obj/external/Components/Dcm/Implementation/Dcm_Ext.o
 .comment       0x00000080       0x81 obj/external/Components/Dcm/Implementation/Dcm_FblMgr.o
 .comment       0x00000080       0x81 obj/external/Components/Dcm/Implementation/Dcm_MemMgr.o
 .comment       0x00000080       0x81 obj/external/Components/Dcm/Implementation/Dcm_Mode.o
 .comment       0x00000080       0x81 obj/external/Components/Dcm/Implementation/Dcm_Net.o
 .comment       0x00000080       0x81 obj/external/Components/Dcm/Implementation/Dcm_ObdDtcMgr.o
 .comment       0x00000080       0x81 obj/external/Components/Dcm/Implementation/Dcm_ObdIdMgr.o
 .comment       0x00000080       0x81 obj/external/Components/Dcm/Implementation/Dcm_PagedBuffer.o
 .comment       0x00000080       0x81 obj/external/Components/Dcm/Implementation/Dcm_Repeater.o
 .comment       0x00000080       0x81 obj/external/Components/Dcm/Implementation/Dcm_RidMgr.o
 .comment       0x00000080       0x81 obj/external/Components/Dcm/Implementation/Dcm_RsrcMgr.o
 .comment       0x00000080       0x81 obj/external/Components/Dcm/Implementation/Dcm_State.o
 .comment       0x00000080       0x81 obj/external/Components/Dcm/Implementation/Dcm_Svc01.o
 .comment       0x00000080       0x81 obj/external/Components/Dcm/Implementation/Dcm_Svc02.o
 .comment       0x00000080       0x81 obj/external/Components/Dcm/Implementation/Dcm_Svc03.o
 .comment       0x00000080       0x81 obj/external/Components/Dcm/Implementation/Dcm_Svc04.o
 .comment       0x00000080       0x81 obj/external/Components/Dcm/Implementation/Dcm_Svc06.o
 .comment       0x00000080       0x81 obj/external/Components/Dcm/Implementation/Dcm_Svc07.o
 .comment       0x00000080       0x81 obj/external/Components/Dcm/Implementation/Dcm_Svc08.o
 .comment       0x00000080       0x81 obj/external/Components/Dcm/Implementation/Dcm_Svc09.o
 .comment       0x00000080       0x81 obj/external/Components/Dcm/Implementation/Dcm_Svc0A.o
 .comment       0x00000080       0x81 obj/external/Components/Dcm/Implementation/Dcm_Svc11.o
 .comment       0x00000080       0x81 obj/external/Components/Dcm/Implementation/Dcm_Svc14.o
 .comment       0x00000080       0x81 obj/external/Components/Dcm/Implementation/Dcm_Svc19.o
 .comment       0x00000080       0x81 obj/external/Components/Dcm/Implementation/Dcm_Svc19Uti.o
 .comment       0x00000080       0x81 obj/external/Components/Dcm/Implementation/Dcm_Svc22.o
 .comment       0x00000080       0x81 obj/external/Components/Dcm/Implementation/Dcm_Svc23.o
 .comment       0x00000080       0x81 obj/external/Components/Dcm/Implementation/Dcm_Svc24.o
 .comment       0x00000080       0x81 obj/external/Components/Dcm/Implementation/Dcm_Svc27.o
 .comment       0x00000080       0x81 obj/external/Components/Dcm/Implementation/Dcm_Svc28.o
 .comment       0x00000080       0x81 obj/external/Components/Dcm/Implementation/Dcm_Svc29.o
 .comment       0x00000080       0x81 obj/external/Components/Dcm/Implementation/Dcm_Svc2A.o
 .comment       0x00000080       0x81 obj/external/Components/Dcm/Implementation/Dcm_Svc2ASchd.o
 .comment       0x00000080       0x81 obj/external/Components/Dcm/Implementation/Dcm_Svc2E.o
 .comment       0x00000080       0x81 obj/external/Components/Dcm/Implementation/Dcm_Svc2F.o
 .comment       0x00000080       0x81 obj/external/Components/Dcm/Implementation/Dcm_Svc31.o
 .comment       0x00000080       0x81 obj/external/Components/Dcm/Implementation/Dcm_Svc34.o
 .comment       0x00000080       0x81 obj/external/Components/Dcm/Implementation/Dcm_Svc36.o
 .comment       0x00000080       0x81 obj/external/Components/Dcm/Implementation/Dcm_Svc37.o
 .comment       0x00000080       0x81 obj/external/Components/Dcm/Implementation/Dcm_Svc3D.o
 .comment       0x00000080       0x81 obj/external/Components/Dcm/Implementation/Dcm_Svc3E.o
 .comment       0x00000080       0x81 obj/external/Components/Dcm/Implementation/Dcm_Svc85.o
 .comment       0x00000080       0x81 obj/external/Components/Dcm/Implementation/Dcm_Tmr.o
 .comment       0x00000080       0x81 obj/external/Components/Dcm/Implementation/Dcm_Tsk.o
 .comment       0x00000080       0x81 obj/external/Components/Dcm/Implementation/Dcm_Uti.o
 .comment       0x00000080       0x81 obj/external/Components/Dcm/Implementation/Dcm_VarMgr.o
 .comment       0x00000080       0x81 obj/external/Components/Dem/Implementation/Dem.o
 .comment       0x00000080       0x81 obj/external/Components/Det/Implementation/Det.o
 .comment       0x00000080       0x81 obj/external/Components/EcuM/Implementation/EcuM.o
 .comment       0x00000080       0x81 obj/external/Components/Fee/Implementation/Fee.o
 .comment       0x00000080       0x81 obj/external/Components/Fee/Implementation/Fee_ChunkInfo.o
 .comment       0x00000080       0x81 obj/external/Components/Fee/Implementation/Fee_LookUpTable.o
 .comment       0x00000080       0x81 obj/external/Components/Fee/Implementation/Fee_Partition.o
 .comment       0x00000080       0x81 obj/external/Components/Fee/Implementation/Fee_Processing.o
 .comment       0x00000080       0x81 obj/external/Components/Fee/Implementation/Fee_Sector.o
 .comment       0x00000080       0x81 obj/external/Components/IpduM/Implementation/IpduM.o
 .comment       0x00000080       0x81 obj/external/Components/IpduM/Implementation/IpduM_Container.o
 .comment       0x00000080       0x81 obj/external/Components/IpduM/Implementation/IpduM_Mux.o
 .comment       0x00000080       0x81 obj/external/Components/MemIf/Implementation/MemIf.o
 .comment       0x00000080       0x81 obj/external/Components/Nm/Implementation/Nm.o
 .comment       0x00000080       0x81 obj/external/Components/NvM/Implementation/NvM.o
 .comment       0x00000080       0x81 obj/external/Components/NvM/Implementation/NvM_Act.o
 .comment       0x00000080       0x81 obj/external/Components/NvM/Implementation/NvM_Crc.o
 .comment       0x00000080       0x81 obj/external/Components/NvM/Implementation/NvM_DataIntegrity.o
 .comment       0x00000080       0x81 obj/external/Components/NvM/Implementation/NvM_JobProc.o
 .comment       0x00000080       0x81 obj/external/Components/NvM/Implementation/NvM_Mac.o
 .comment       0x00000080       0x81 obj/external/Components/NvM/Implementation/NvM_MemIfAbstraction.o
 .comment       0x00000080       0x81 obj/external/Components/NvM/Implementation/NvM_MemIfMemoryCore.o
 .comment       0x00000080       0x81 obj/external/Components/NvM/Implementation/NvM_Qry.o
 .comment       0x00000080       0x81 obj/external/Components/NvM/Implementation/NvM_Queue.o
 .comment       0x00000080       0x81 obj/external/Components/Os/Implementation/Os_AccessCheck.o
 .comment       0x00000080       0x81 obj/external/Components/Os/Implementation/Os_Alarm.o
 .comment       0x00000080       0x81 obj/external/Components/Os/Implementation/Os_Application.o
 .comment       0x00000080       0x81 obj/external/Components/Os/Implementation/Os_Barrier.o
 .comment       0x00000080       0x81 obj/external/Components/Os/Implementation/Os_Bit.o
 .comment       0x00000080       0x81 obj/external/Components/Os/Implementation/Os_BitArray.o
 .comment       0x00000080       0x81 obj/external/Components/Os/Implementation/Os_Core.o
 .comment       0x00000080       0x81 obj/external/Components/Os/Implementation/Os_Counter.o
 .comment       0x00000080       0x81 obj/external/Components/Os/Implementation/Os_Deque.o
 .comment       0x00000080       0x81 obj/external/Components/Os/Implementation/Os_Error.o
 .comment       0x00000080       0x81 obj/external/Components/Os/Implementation/Os_Event.o
 .comment       0x00000080       0x81 obj/external/Components/Os/Implementation/Os_Fifo.o
 .comment       0x00000080       0x81 obj/external/Components/Os/Implementation/Os_Fifo08.o
 .comment       0x00000080       0x81 obj/external/Components/Os/Implementation/Os_Fifo16.o
 .comment       0x00000080       0x81 obj/external/Components/Os/Implementation/Os_Fifo32.o
 .comment       0x00000080       0x81 obj/external/Components/Os/Implementation/Os_FifoRef.o
 .comment       0x00000080       0x81 obj/external/Components/Os/Implementation/Os_Hal_Compiler_Arm.o
 .comment       0x00000080       0x81 obj/external/Components/Os/Implementation/Os_Hal_Compiler_Iar.o
 .comment       0x00000080       0x81 obj/external/Components/Os/Implementation/Os_Hal_Context.o
 .comment       0x00000080       0x81 obj/external/Components/Os/Implementation/Os_Hal_Core.o
 .comment       0x00000080       0x81 obj/external/Components/Os/Implementation/Os_Hal_Entry.o
 .comment       0x00000080       0x81 obj/external/Components/Os/Implementation/Os_Hook.o
 .comment       0x00000080       0x81 obj/external/Components/Os/Implementation/Os_Interrupt.o
 .comment       0x00000080       0x81 obj/external/Components/Os/Implementation/Os_Ioc.o
 .comment       0x00000080       0x81 obj/external/Components/Os/Implementation/Os_Isr.o
 .comment       0x00000080       0x81 obj/external/Components/Os/Implementation/Os_Job.o
 .comment       0x00000080       0x81 obj/external/Components/Os/Implementation/Os_Lock.o
 .comment       0x00000080       0x81 obj/external/Components/Os/Implementation/Os_MemoryProtection.o
 .comment       0x00000080       0x81 obj/external/Components/Os/Implementation/Os_Peripheral.o
 .comment       0x00000080       0x81 obj/external/Components/Os/Implementation/Os_PriorityQueue.o
 .comment       0x00000080       0x81 obj/external/Components/Os/Implementation/Os_Resource.o
 .comment       0x00000080       0x81 obj/external/Components/Os/Implementation/Os_ScheduleTable.o
 .comment       0x00000080       0x81 obj/external/Components/Os/Implementation/Os_Scheduler.o
 .comment       0x00000080       0x81 obj/external/Components/Os/Implementation/Os_ServiceFunction.o
 .comment       0x00000080       0x81 obj/external/Components/Os/Implementation/Os_Spinlock.o
 .comment       0x00000080       0x81 obj/external/Components/Os/Implementation/Os_Stack.o
 .comment       0x00000080       0x81 obj/external/Components/Os/Implementation/Os_Task.o
 .comment       0x00000080       0x81 obj/external/Components/Os/Implementation/Os_Thread.o
 .comment       0x00000080       0x81 obj/external/Components/Os/Implementation/Os_Timer.o
 .comment       0x00000080       0x81 obj/external/Components/Os/Implementation/Os_TimingProtection.o
 .comment       0x00000080       0x81 obj/external/Components/Os/Implementation/Os_Trace.o
 .comment       0x00000080       0x81 obj/external/Components/Os/Implementation/Os_Trap.o
 .comment       0x00000080       0x81 obj/external/Components/Os/Implementation/Os_XSignal.o
 .comment       0x00000080       0x81 obj/external/Components/PduR/Implementation/PduR.o
 .comment       0x00000080       0x81 obj/external/Components/PduR/Implementation/PduR_Bm.o
 .comment       0x00000080       0x81 obj/external/Components/PduR/Implementation/PduR_Fm.o
 .comment       0x00000080       0x81 obj/external/Components/PduR/Implementation/PduR_IFQ.o
 .comment       0x00000080       0x81 obj/external/Components/PduR/Implementation/PduR_Lock.o
 .comment       0x00000080       0x81 obj/external/Components/PduR/Implementation/PduR_McQ.o
 .comment       0x00000080       0x81 obj/external/Components/PduR/Implementation/PduR_RmIf.o
 .comment       0x00000080       0x81 obj/external/Components/PduR/Implementation/PduR_RmTp.o
 .comment       0x00000080       0x81 obj/external/Components/PduR/Implementation/PduR_RmTp_TxInst.o
 .comment       0x00000080       0x81 obj/external/Components/PduR/Implementation/PduR_Sm.o
 .comment       0x00000080       0x81 obj/external/Components/VStdLib/Implementation/vstdlib.o
 .comment       0x00000080       0x81 obj/external/Components/Xcp/Implementation/Xcp.o
 .comment       0x00000080       0x81 obj/external/ThirdParty/Mcal_S32x/Supply/SW32G_RTD_4.4_3.0.4/eclipse/plugins/Base_TS_T40D11M30I4R0/src/OsIf_Interrupts.o
 .comment       0x00000080       0x81 obj/external/ThirdParty/Mcal_S32x/Supply/SW32G_RTD_4.4_3.0.4/eclipse/plugins/Base_TS_T40D11M30I4R0/src/OsIf_Timer.o
 .comment       0x00000080       0x81 obj/external/ThirdParty/Mcal_S32x/Supply/SW32G_RTD_4.4_3.0.4/eclipse/plugins/Base_TS_T40D11M30I4R0/src/OsIf_Timer_System.o
 .comment       0x00000080       0x81 obj/external/ThirdParty/Mcal_S32x/Supply/SW32G_RTD_4.4_3.0.4/eclipse/plugins/Base_TS_T40D11M30I4R0/src/OsIf_Timer_System_Internal_Systick.o
 .comment       0x00000080       0x81 obj/external/ThirdParty/Mcal_S32x/Supply/SW32G_RTD_4.4_3.0.4/eclipse/plugins/Dio_TS_T40D11M30I4R0/src/Dio.o
 .comment       0x00000080       0x81 obj/external/ThirdParty/Mcal_S32x/Supply/SW32G_RTD_4.4_3.0.4/eclipse/plugins/Dio_TS_T40D11M30I4R0/src/Dio_Ipw.o
 .comment       0x00000080       0x81 obj/external/ThirdParty/Mcal_S32x/Supply/SW32G_RTD_4.4_3.0.4/eclipse/plugins/Dio_TS_T40D11M30I4R0/src/Siul2_Dio_Ip.o
 .comment       0x00000080       0x81 obj/external/ThirdParty/Mcal_S32x/Supply/SW32G_RTD_4.4_3.0.4/eclipse/plugins/Fls_TS_T40D11M30I4R0/src/Fls.o
 .comment       0x00000080       0x81 obj/external/ThirdParty/Mcal_S32x/Supply/SW32G_RTD_4.4_3.0.4/eclipse/plugins/Fls_TS_T40D11M30I4R0/src/Fls_IPW.o
 .comment       0x00000080       0x81 obj/external/ThirdParty/Mcal_S32x/Supply/SW32G_RTD_4.4_3.0.4/eclipse/plugins/Fls_TS_T40D11M30I4R0/src/Qspi_Ip.o
 .comment       0x00000080       0x81 obj/external/ThirdParty/Mcal_S32x/Supply/SW32G_RTD_4.4_3.0.4/eclipse/plugins/Fls_TS_T40D11M30I4R0/src/Qspi_Ip_Controller.o
 .comment       0x00000080       0x81 obj/external/ThirdParty/Mcal_S32x/Supply/SW32G_RTD_4.4_3.0.4/eclipse/plugins/Fls_TS_T40D11M30I4R0/src/Qspi_Ip_Sfdp.o
 .comment       0x00000080       0x81 obj/external/ThirdParty/Mcal_S32x/Supply/SW32G_RTD_4.4_3.0.4/eclipse/plugins/Mcl_TS_T40D11M30I4R0/src/CDD_Mcl.o
 .comment       0x00000080       0x81 obj/external/ThirdParty/Mcal_S32x/Supply/SW32G_RTD_4.4_3.0.4/eclipse/plugins/Mcl_TS_T40D11M30I4R0/src/Dma_Ip.o
 .comment       0x00000080       0x81 obj/external/ThirdParty/Mcal_S32x/Supply/SW32G_RTD_4.4_3.0.4/eclipse/plugins/Mcl_TS_T40D11M30I4R0/src/Dma_Ip_Driver_State.o
 .comment       0x00000080       0x81 obj/external/ThirdParty/Mcal_S32x/Supply/SW32G_RTD_4.4_3.0.4/eclipse/plugins/Mcl_TS_T40D11M30I4R0/src/Dma_Ip_Hw_Access.o
 .comment       0x00000080       0x81 obj/external/ThirdParty/Mcal_S32x/Supply/SW32G_RTD_4.4_3.0.4/eclipse/plugins/Mcl_TS_T40D11M30I4R0/src/Dma_Ip_Irq.o
 .comment       0x00000080       0x81 obj/external/ThirdParty/Mcal_S32x/Supply/SW32G_RTD_4.4_3.0.4/eclipse/plugins/Mcl_TS_T40D11M30I4R0/src/Dma_Ip_Multicore.o
 .comment       0x00000080       0x81 obj/external/ThirdParty/Mcal_S32x/Supply/SW32G_RTD_4.4_3.0.4/eclipse/plugins/Mcl_TS_T40D11M30I4R0/src/Ftm_Mcl_Ip.o
 .comment       0x00000080       0x81 obj/external/ThirdParty/Mcal_S32x/Supply/SW32G_RTD_4.4_3.0.4/eclipse/plugins/Mcu_TS_T40D11M30I4R0/src/Clock_Ip.o
 .comment       0x00000080       0x81 obj/external/ThirdParty/Mcal_S32x/Supply/SW32G_RTD_4.4_3.0.4/eclipse/plugins/Mcu_TS_T40D11M30I4R0/src/Clock_Ip_Data.o
 .comment       0x00000080       0x81 obj/external/ThirdParty/Mcal_S32x/Supply/SW32G_RTD_4.4_3.0.4/eclipse/plugins/Mcu_TS_T40D11M30I4R0/src/Clock_Ip_Data1.o
 .comment       0x00000080       0x81 obj/external/ThirdParty/Mcal_S32x/Supply/SW32G_RTD_4.4_3.0.4/eclipse/plugins/Mcu_TS_T40D11M30I4R0/src/Clock_Ip_Data2.o
 .comment       0x00000080       0x81 obj/external/ThirdParty/Mcal_S32x/Supply/SW32G_RTD_4.4_3.0.4/eclipse/plugins/Mcu_TS_T40D11M30I4R0/src/Clock_Ip_Divider.o
 .comment       0x00000080       0x81 obj/external/ThirdParty/Mcal_S32x/Supply/SW32G_RTD_4.4_3.0.4/eclipse/plugins/Mcu_TS_T40D11M30I4R0/src/Clock_Ip_DividerTrigger.o
 .comment       0x00000080       0x81 obj/external/ThirdParty/Mcal_S32x/Supply/SW32G_RTD_4.4_3.0.4/eclipse/plugins/Mcu_TS_T40D11M30I4R0/src/Clock_Ip_ExtOsc.o
 .comment       0x00000080       0x81 obj/external/ThirdParty/Mcal_S32x/Supply/SW32G_RTD_4.4_3.0.4/eclipse/plugins/Mcu_TS_T40D11M30I4R0/src/Clock_Ip_FracDiv.o
 .comment       0x00000080       0x81 obj/external/ThirdParty/Mcal_S32x/Supply/SW32G_RTD_4.4_3.0.4/eclipse/plugins/Mcu_TS_T40D11M30I4R0/src/Clock_Ip_Frequency.o
 .comment       0x00000080       0x81 obj/external/ThirdParty/Mcal_S32x/Supply/SW32G_RTD_4.4_3.0.4/eclipse/plugins/Mcu_TS_T40D11M30I4R0/src/Clock_Ip_Frequency1.o
 .comment       0x00000080       0x81 obj/external/ThirdParty/Mcal_S32x/Supply/SW32G_RTD_4.4_3.0.4/eclipse/plugins/Mcu_TS_T40D11M30I4R0/src/Clock_Ip_Frequency2.o
 .comment       0x00000080       0x81 obj/external/ThirdParty/Mcal_S32x/Supply/SW32G_RTD_4.4_3.0.4/eclipse/plugins/Mcu_TS_T40D11M30I4R0/src/Clock_Ip_Gate.o
 .comment       0x00000080       0x81 obj/external/ThirdParty/Mcal_S32x/Supply/SW32G_RTD_4.4_3.0.4/eclipse/plugins/Mcu_TS_T40D11M30I4R0/src/Clock_Ip_IntOsc.o
 .comment       0x00000080       0x81 obj/external/ThirdParty/Mcal_S32x/Supply/SW32G_RTD_4.4_3.0.4/eclipse/plugins/Mcu_TS_T40D11M30I4R0/src/Clock_Ip_Irq.o
 .comment       0x00000080       0x81 obj/external/ThirdParty/Mcal_S32x/Supply/SW32G_RTD_4.4_3.0.4/eclipse/plugins/Mcu_TS_T40D11M30I4R0/src/Clock_Ip_Monitor.o
 .comment       0x00000080       0x81 obj/external/ThirdParty/Mcal_S32x/Supply/SW32G_RTD_4.4_3.0.4/eclipse/plugins/Mcu_TS_T40D11M30I4R0/src/Clock_Ip_Pll.o
 .comment       0x00000080       0x81 obj/external/ThirdParty/Mcal_S32x/Supply/SW32G_RTD_4.4_3.0.4/eclipse/plugins/Mcu_TS_T40D11M30I4R0/src/Clock_Ip_ProgFreqSwitch.o
 .comment       0x00000080       0x81 obj/external/ThirdParty/Mcal_S32x/Supply/SW32G_RTD_4.4_3.0.4/eclipse/plugins/Mcu_TS_T40D11M30I4R0/src/Clock_Ip_Selector.o
 .comment       0x00000080       0x81 obj/external/ThirdParty/Mcal_S32x/Supply/SW32G_RTD_4.4_3.0.4/eclipse/plugins/Mcu_TS_T40D11M30I4R0/src/Clock_Ip_Specific.o
 .comment       0x00000080       0x81 obj/external/ThirdParty/Mcal_S32x/Supply/SW32G_RTD_4.4_3.0.4/eclipse/plugins/Mcu_TS_T40D11M30I4R0/src/Clock_Ip_Specific1.o
 .comment       0x00000080       0x81 obj/external/ThirdParty/Mcal_S32x/Supply/SW32G_RTD_4.4_3.0.4/eclipse/plugins/Mcu_TS_T40D11M30I4R0/src/Clock_Ip_Specific2.o
 .comment       0x00000080       0x81 obj/external/ThirdParty/Mcal_S32x/Supply/SW32G_RTD_4.4_3.0.4/eclipse/plugins/Mcu_TS_T40D11M30I4R0/src/Mcu.o
 .comment       0x00000080       0x81 obj/external/ThirdParty/Mcal_S32x/Supply/SW32G_RTD_4.4_3.0.4/eclipse/plugins/Mcu_TS_T40D11M30I4R0/src/Mcu_Dem_Wrapper.o
 .comment       0x00000080       0x81 obj/external/ThirdParty/Mcal_S32x/Supply/SW32G_RTD_4.4_3.0.4/eclipse/plugins/Mcu_TS_T40D11M30I4R0/src/Mcu_Ipw.o
 .comment       0x00000080       0x81 obj/external/ThirdParty/Mcal_S32x/Supply/SW32G_RTD_4.4_3.0.4/eclipse/plugins/Mcu_TS_T40D11M30I4R0/src/Power_Ip.o
 .comment       0x00000080       0x81 obj/external/ThirdParty/Mcal_S32x/Supply/SW32G_RTD_4.4_3.0.4/eclipse/plugins/Mcu_TS_T40D11M30I4R0/src/Power_Ip_CortexA.o
 .comment       0x00000080       0x81 obj/external/ThirdParty/Mcal_S32x/Supply/SW32G_RTD_4.4_3.0.4/eclipse/plugins/Mcu_TS_T40D11M30I4R0/src/Power_Ip_CortexM7.o
 .comment       0x00000080       0x81 obj/external/ThirdParty/Mcal_S32x/Supply/SW32G_RTD_4.4_3.0.4/eclipse/plugins/Mcu_TS_T40D11M30I4R0/src/Power_Ip_MC_ME.o
 .comment       0x00000080       0x81 obj/external/ThirdParty/Mcal_S32x/Supply/SW32G_RTD_4.4_3.0.4/eclipse/plugins/Mcu_TS_T40D11M30I4R0/src/Power_Ip_MC_RGM.o
 .comment       0x00000080       0x81 obj/external/ThirdParty/Mcal_S32x/Supply/SW32G_RTD_4.4_3.0.4/eclipse/plugins/Mcu_TS_T40D11M30I4R0/src/Power_Ip_MC_RGM_Irq.o
 .comment       0x00000080       0x81 obj/external/ThirdParty/Mcal_S32x/Supply/SW32G_RTD_4.4_3.0.4/eclipse/plugins/Mcu_TS_T40D11M30I4R0/src/Power_Ip_MSCM.o
 .comment       0x00000080       0x81 obj/external/ThirdParty/Mcal_S32x/Supply/SW32G_RTD_4.4_3.0.4/eclipse/plugins/Mcu_TS_T40D11M30I4R0/src/Power_Ip_PMC.o
 .comment       0x00000080       0x81 obj/external/ThirdParty/Mcal_S32x/Supply/SW32G_RTD_4.4_3.0.4/eclipse/plugins/Mcu_TS_T40D11M30I4R0/src/Power_Ip_Private.o
 .comment       0x00000080       0x81 obj/external/ThirdParty/Mcal_S32x/Supply/SW32G_RTD_4.4_3.0.4/eclipse/plugins/Mcu_TS_T40D11M30I4R0/src/Ram_Ip.o
 .comment       0x00000080       0x81 obj/external/ThirdParty/Mcal_S32x/Supply/SW32G_RTD_4.4_3.0.4/eclipse/plugins/Port_TS_T40D11M30I4R0/src/Port.o
 .comment       0x00000080       0x81 obj/external/ThirdParty/Mcal_S32x/Supply/SW32G_RTD_4.4_3.0.4/eclipse/plugins/Port_TS_T40D11M30I4R0/src/Port_Ipw.o
 .comment       0x00000080       0x81 obj/external/ThirdParty/Mcal_S32x/Supply/SW32G_RTD_4.4_3.0.4/eclipse/plugins/Port_TS_T40D11M30I4R0/src/Siul2_Port_Ip.o
 .comment       0x00000080       0x81 obj/external/ap-cp-gateway/Appl/GenData/BswM_Lcfg.o
 .comment       0x00000080       0x81 obj/external/ap-cp-gateway/Appl/GenData/CanIf_Lcfg.o
 .comment       0x00000080       0x81 obj/external/ap-cp-gateway/Appl/GenData/CanIf_PBcfg.o
 .comment       0x00000080       0x81 obj/external/ap-cp-gateway/Appl/GenData/CanNm_Cfg.o
 .comment       0x00000080       0x81 obj/external/ap-cp-gateway/Appl/GenData/CanNm_Lcfg.o
 .comment       0x00000080       0x81 obj/external/ap-cp-gateway/Appl/GenData/CanNm_PBcfg.o
 .comment       0x00000080       0x81 obj/external/ap-cp-gateway/Appl/GenData/CanSM_Lcfg.o
 .comment       0x00000080       0x81 obj/external/ap-cp-gateway/Appl/GenData/CanTp_Lcfg.o
 .comment       0x00000080       0x81 obj/external/ap-cp-gateway/Appl/GenData/CanTp_PBcfg.o
 .comment       0x00000080       0x81 obj/external/ap-cp-gateway/Appl/GenData/CanXcp_Lcfg.o
 .comment       0x00000080       0x81 obj/external/ap-cp-gateway/Appl/GenData/CanXcp_PBcfg.o
 .comment       0x00000080       0x81 obj/external/ap-cp-gateway/Appl/GenData/Can_30_Flexcan4_Lcfg.o
 .comment       0x00000080       0x81 obj/external/ap-cp-gateway/Appl/GenData/Can_30_Flexcan4_PBcfg.o
 .comment       0x00000080       0x81 obj/external/ap-cp-gateway/Appl/GenData/ComM_Lcfg.o
 .comment       0x00000080       0x81 obj/external/ap-cp-gateway/Appl/GenData/Com_Lcfg.o
 .comment       0x00000080       0x81 obj/external/ap-cp-gateway/Appl/GenData/Com_PBcfg.o
 .comment       0x00000080       0x81 obj/external/ap-cp-gateway/Appl/GenData/Dcm_Lcfg.o
 .comment       0x00000080       0x81 obj/external/ap-cp-gateway/Appl/GenData/Dcm_PBcfg.o
 .comment       0x00000080       0x81 obj/external/ap-cp-gateway/Appl/GenData/Dem_Lcfg.o
 .comment       0x00000080       0x81 obj/external/ap-cp-gateway/Appl/GenData/Dem_PBcfg.o
 .comment       0x00000080       0x81 obj/external/ap-cp-gateway/Appl/GenData/Det_Cfg.o
 .comment       0x00000080       0x81 obj/external/ap-cp-gateway/Appl/GenData/EcuM_Cfg.o
 .comment       0x00000080       0x81 obj/external/ap-cp-gateway/Appl/GenData/EcuM_Init_Cfg.o
 .comment       0x00000080       0x81 obj/external/ap-cp-gateway/Appl/GenData/EcuM_Init_PBcfg.o
 .comment       0x00000080       0x81 obj/external/ap-cp-gateway/Appl/GenData/EcuM_PBcfg.o
 .comment       0x00000080       0x81 obj/external/ap-cp-gateway/Appl/GenData/Fee_Lcfg.o
 .comment       0x00000080       0x81 obj/external/ap-cp-gateway/Appl/GenData/IpduM_Lcfg.o
 .comment       0x00000080       0x81 obj/external/ap-cp-gateway/Appl/GenData/IpduM_PBcfg.o
 .comment       0x00000080       0x81 obj/external/ap-cp-gateway/Appl/GenData/MemIf_Cfg.o
 .comment       0x00000080       0x81 obj/external/ap-cp-gateway/Appl/GenData/Nm_Cfg.o
 .comment       0x00000080       0x81 obj/external/ap-cp-gateway/Appl/GenData/Nm_Lcfg.o
 .comment       0x00000080       0x81 obj/external/ap-cp-gateway/Appl/GenData/NvM_Cfg.o
 .comment       0x00000080       0x81 obj/external/ap-cp-gateway/Appl/GenData/Os_AccessCheck_Lcfg.o
 .comment       0x00000080       0x81 obj/external/ap-cp-gateway/Appl/GenData/Os_Alarm_Lcfg.o
 .comment       0x00000080       0x81 obj/external/ap-cp-gateway/Appl/GenData/Os_Application_Lcfg.o
 .comment       0x00000080       0x81 obj/external/ap-cp-gateway/Appl/GenData/Os_Barrier_Lcfg.o
 .comment       0x00000080       0x81 obj/external/ap-cp-gateway/Appl/GenData/Os_Core_Lcfg.o
 .comment       0x00000080       0x81 obj/external/ap-cp-gateway/Appl/GenData/Os_Counter_Lcfg.o
 .comment       0x00000080       0x81 obj/external/ap-cp-gateway/Appl/GenData/Os_Error_Lcfg.o
 .comment       0x00000080       0x81 obj/external/ap-cp-gateway/Appl/GenData/Os_Hal_Context_Lcfg.o
 .comment       0x00000080       0x81 obj/external/ap-cp-gateway/Appl/GenData/Os_Hal_Core_Lcfg.o
 .comment       0x00000080       0x81 obj/external/ap-cp-gateway/Appl/GenData/Os_Hal_Entry_Lcfg.o
 .comment       0x00000080       0x81 obj/external/ap-cp-gateway/Appl/GenData/Os_Hal_Interrupt_Lcfg.o
 .comment       0x00000080       0x81 obj/external/ap-cp-gateway/Appl/GenData/Os_Hal_Kernel_Lcfg.o
 .comment       0x00000080       0x81 obj/external/ap-cp-gateway/Appl/GenData/Os_Hal_MemoryProtection_Lcfg.o
 .comment       0x00000080       0x81 obj/external/ap-cp-gateway/Appl/GenData/Os_Hal_Timer_Lcfg.o
 .comment       0x00000080       0x81 obj/external/ap-cp-gateway/Appl/GenData/Os_Hook_Lcfg.o
 .comment       0x00000080       0x81 obj/external/ap-cp-gateway/Appl/GenData/Os_Ioc_Lcfg.o
 .comment       0x00000080       0x81 obj/external/ap-cp-gateway/Appl/GenData/Os_Isr_Lcfg.o
 .comment       0x00000080       0x81 obj/external/ap-cp-gateway/Appl/GenData/Os_MemoryProtection_Lcfg.o
 .comment       0x00000080       0x81 obj/external/ap-cp-gateway/Appl/GenData/Os_Peripheral_Lcfg.o
 .comment       0x00000080       0x81 obj/external/ap-cp-gateway/Appl/GenData/Os_Resource_Lcfg.o
 .comment       0x00000080       0x81 obj/external/ap-cp-gateway/Appl/GenData/Os_ScheduleTable_Lcfg.o
 .comment       0x00000080       0x81 obj/external/ap-cp-gateway/Appl/GenData/Os_Scheduler_Lcfg.o
 .comment       0x00000080       0x81 obj/external/ap-cp-gateway/Appl/GenData/Os_ServiceFunction_Lcfg.o
 .comment       0x00000080       0x81 obj/external/ap-cp-gateway/Appl/GenData/Os_Spinlock_Lcfg.o
 .comment       0x00000080       0x81 obj/external/ap-cp-gateway/Appl/GenData/Os_Stack_Lcfg.o
 .comment       0x00000080       0x81 obj/external/ap-cp-gateway/Appl/GenData/Os_Task_Lcfg.o
 .comment       0x00000080       0x81 obj/external/ap-cp-gateway/Appl/GenData/Os_TimingProtection_Lcfg.o
 .comment       0x00000080       0x81 obj/external/ap-cp-gateway/Appl/GenData/Os_Trace_Lcfg.o
 .comment       0x00000080       0x81 obj/external/ap-cp-gateway/Appl/GenData/Os_XSignal_Lcfg.o
 .comment       0x00000080       0x81 obj/external/ap-cp-gateway/Appl/GenData/PduR_Lcfg.o
 .comment       0x00000080       0x81 obj/external/ap-cp-gateway/Appl/GenData/PduR_PBcfg.o
 .comment       0x00000080       0x81 obj/external/ap-cp-gateway/Appl/GenData/Rte.o
 .comment       0x00000080       0x81 obj/external/ap-cp-gateway/Appl/GenData/Xcp_Lcfg.o
 .comment       0x00000080       0x81 obj/external/ap-cp-gateway/Appl/GenData/src/CDD_Mcl_Cfg.o
 .comment       0x00000080       0x81 obj/external/ap-cp-gateway/Appl/GenData/src/CDD_Mcl_PBcfg.o
 .comment       0x00000080       0x81 obj/external/ap-cp-gateway/Appl/GenData/src/Clock_Ip_Cfg.o
 .comment       0x00000080       0x81 obj/external/ap-cp-gateway/Appl/GenData/src/Clock_Ip_PBcfg.o
 .comment       0x00000080       0x81 obj/external/ap-cp-gateway/Appl/GenData/src/Dio_Cfg.o
 .comment       0x00000080       0x81 obj/external/ap-cp-gateway/Appl/GenData/src/Dma_Ip_Cfg.o
 .comment       0x00000080       0x81 obj/external/ap-cp-gateway/Appl/GenData/src/Dma_Ip_PBcfg.o
 .comment       0x00000080       0x81 obj/external/ap-cp-gateway/Appl/GenData/src/Fls_Cfg.o
 .comment       0x00000080       0x81 obj/external/ap-cp-gateway/Appl/GenData/src/Fls_PBcfg.o
 .comment       0x00000080       0x81 obj/external/ap-cp-gateway/Appl/GenData/src/Mcu_Cfg.o
 .comment       0x00000080       0x81 obj/external/ap-cp-gateway/Appl/GenData/src/Mcu_PBcfg.o
 .comment       0x00000080       0x81 obj/external/ap-cp-gateway/Appl/GenData/src/OsIf_Cfg.o
 .comment       0x00000080       0x81 obj/external/ap-cp-gateway/Appl/GenData/src/Port_Cfg.o
 .comment       0x00000080       0x81 obj/external/ap-cp-gateway/Appl/GenData/src/Port_PBcfg.o
 .comment       0x00000080       0x81 obj/external/ap-cp-gateway/Appl/GenData/src/Power_Ip_Cfg.o
 .comment       0x00000080       0x81 obj/external/ap-cp-gateway/Appl/GenData/src/Power_Ip_PBcfg.o
 .comment       0x00000080       0x81 obj/external/ap-cp-gateway/Appl/GenData/src/Qspi_Ip_PBcfg.o
 .comment       0x00000080       0x81 obj/external/ap-cp-gateway/Appl/GenData/src/Ram_Ip_Cfg.o
 .comment       0x00000080       0x81 obj/external/ap-cp-gateway/Appl/GenData/src/Ram_Ip_PBcfg.o
 .comment       0x00000080       0x81 obj/external/ap-cp-gateway/Appl/GenData/src/Siul2_Port_Ip_PBcfg.o
 .comment       0x00000080       0x81 obj/external/ap-cp-gateway/Appl/GenData/vBrs_Lcfg.o
 .comment       0x00000080       0x81 obj/external/ap-cp-gateway/Appl/GenData/vLinkGen_Lcfg.o
 .comment       0x00000080       0x81 obj/external/ap-cp-gateway/Appl/Source/ARMBrsHwIntTb_CortexM.o
 .comment       0x00000080       0x81 obj/external/ap-cp-gateway/Appl/Source/ARMBrsHw_CortexM.o
 .comment       0x00000080       0x81 obj/external/ap-cp-gateway/Appl/Source/ARMStartup_CortexM.o
 .comment       0x00000080       0x81 obj/external/ap-cp-gateway/Appl/Source/BrsHw.o
 .comment       0x00000080       0x81 obj/external/ap-cp-gateway/Appl/Source/BrsMain.o
 .comment       0x00000080       0x81 obj/external/ap-cp-gateway/Appl/Source/BrsMainStartup.o
 .comment       0x00000080       0x81 obj/external/ap-cp-gateway/Appl/Source/BrsMain_Callout_Stubs.o
 .comment       0x00000080       0x81 obj/external/ap-cp-gateway/Appl/Source/BswInit.o
 .comment       0x00000080       0x81 obj/external/ap-cp-gateway/Appl/Source/BswM_Callout_Stubs.o
 .comment       0x00000080       0x81 obj/external/ap-cp-gateway/Appl/Source/Dcm_Callout_Stubs.o
 .comment       0x00000080       0x81 obj/external/ap-cp-gateway/Appl/Source/EcuM_Callout_Stubs.o
 .comment       0x00000080       0x81 obj/external/ap-cp-gateway/Appl/Source/Os_Callout_Stubs.o
 .comment       0x00000080       0x81 obj/external/ap-cp-gateway/Appl/Source/XcpAppl.o
 .comment       0x00000080       0x81 obj/external/ap-cp-gateway/Appl/Source/ipc-shm/Cdd_Ipc.o
 .comment       0x00000080       0x81 obj/external/ap-cp-gateway/Appl/Source/ipc-shm/Cdd_Ipc_Lcfg.o
 .comment       0x00000080       0x81 obj/external/ap-cp-gateway/Appl/Source/ipc-shm/common/ipc-queue.o
 .comment       0x00000080       0x81 obj/external/ap-cp-gateway/Appl/Source/ipc-shm/common/ipc-shm.o
 .comment       0x00000080       0x81 obj/external/ap-cp-gateway/Appl/Source/ipc-shm/hw/s32gen1/ipc-hw-s32gen1.o
 .comment       0x00000080       0x81 obj/external/ap-cp-gateway/Appl/Source/ipc-shm/os/autosar/ipc-os-autosar.o

.debug_line     0x00000000    0xb4902
 .debug_line    0x00000000       0x78 obj/external/Components/Os/Implementation/Os_Hal_Compiler_TiInt.o
 .debug_line    0x00000078      0x1c9 obj/external/Components/Os/Implementation/Os_Hal_ContextAsm.o
 .debug_line    0x00000241       0x81 obj/external/ap-cp-gateway/Appl/GenData/Os_Hal_EntryAsm_Lcfg.o
 .debug_line    0x000002c2      0xc44 obj/external/Components/BswM/Implementation/BswM.o
 .debug_line    0x00000f06     0x11aa obj/external/Components/CanIf/Implementation/CanIf.o
 .debug_line    0x000020b0      0x789 obj/external/Components/CanNm/Implementation/CanNm.o
 .debug_line    0x00002839      0x960 obj/external/Components/CanSM/Implementation/CanSM.o
 .debug_line    0x00003199     0x1002 obj/external/Components/CanTp/Implementation/CanTp.o
 .debug_line    0x0000419b      0x4b0 obj/external/Components/CanXcp/Implementation/CanXcp.o
 .debug_line    0x0000464b     0x2237 obj/external/Components/Can_30_Flexcan4/Implementation/Can_30_Flexcan4.o
 .debug_line    0x00006882      0x171 obj/external/Components/Can_30_Flexcan4/Implementation/Can_30_Flexcan4_Irq.o
 .debug_line    0x000069f3      0x531 obj/external/Components/Com/Implementation/Com.o
 .debug_line    0x00006f24      0x289 obj/external/Components/Com/Implementation/Com_Buffers.o
 .debug_line    0x000071ad       0xa9 obj/external/Components/Com/Implementation/Com_CprQueue.o
 .debug_line    0x00007256       0xa9 obj/external/Components/Com/Implementation/Com_CprQueueDescrGw.o
 .debug_line    0x000072ff       0xa9 obj/external/Components/Com/Implementation/Com_CprQueueSigGw.o
 .debug_line    0x000073a8       0xa9 obj/external/Components/Com/Implementation/Com_DescriptionGateway.o
 .debug_line    0x00007451      0x2b2 obj/external/Components/Com/Implementation/Com_Deserializer.o
 .debug_line    0x00007703      0x45f obj/external/Components/Com/Implementation/Com_IPduGroupHdlr.o
 .debug_line    0x00007b62      0x246 obj/external/Components/Com/Implementation/Com_LLIf.o
 .debug_line    0x00007da8      0x249 obj/external/Components/Com/Implementation/Com_LMgt.o
 .debug_line    0x00007ff1      0x1ce obj/external/Components/Com/Implementation/Com_MainFunctions.o
 .debug_line    0x000081bf       0xa9 obj/external/Components/Com/Implementation/Com_Notifications.o
 .debug_line    0x00008268       0xa9 obj/external/Components/Com/Implementation/Com_RxInv.o
 .debug_line    0x00008311      0x340 obj/external/Components/Com/Implementation/Com_RxProcessing.o
 .debug_line    0x00008651      0x240 obj/external/Components/Com/Implementation/Com_Serializer.o
 .debug_line    0x00008891       0xa9 obj/external/Components/Com/Implementation/Com_SignalFilterHdlr.o
 .debug_line    0x0000893a       0xa9 obj/external/Components/Com/Implementation/Com_SignalGateway.o
 .debug_line    0x000089e3      0x279 obj/external/Components/Com/Implementation/Com_SignalIf.o
 .debug_line    0x00008c5c       0xa9 obj/external/Components/Com/Implementation/Com_Timer.o
 .debug_line    0x00008d05      0x2be obj/external/Components/Com/Implementation/Com_TxModeHdlr.o
 .debug_line    0x00008fc3     0x13c2 obj/external/Components/ComM/Implementation/ComM.o
 .debug_line    0x0000a385      0x464 obj/external/Components/Crc/Implementation/Crc.o
 .debug_line    0x0000a7e9     0x3f9c obj/external/Components/Dcm/Implementation/Dcm.o
 .debug_line    0x0000e785       0x1d obj/external/Components/Dcm/Implementation/Dcm_AuthMgr.o
 .debug_line    0x0000e7a2      0x30a obj/external/Components/Dcm/Implementation/Dcm_CfgWrap.o
 .debug_line    0x0000eaac      0x377 obj/external/Components/Dcm/Implementation/Dcm_Debug.o
 .debug_line    0x0000ee23      0x404 obj/external/Components/Dcm/Implementation/Dcm_DemIf.o
 .debug_line    0x0000f227       0x1d obj/external/Components/Dcm/Implementation/Dcm_Diag.o
 .debug_line    0x0000f244     0x1d64 obj/external/Components/Dcm/Implementation/Dcm_DidMgr.o
 .debug_line    0x00010fa8      0x470 obj/external/Components/Dcm/Implementation/Dcm_Ext.o
 .debug_line    0x00011418       0x1d obj/external/Components/Dcm/Implementation/Dcm_FblMgr.o
 .debug_line    0x00011435      0x667 obj/external/Components/Dcm/Implementation/Dcm_MemMgr.o
 .debug_line    0x00011a9c      0x5cc obj/external/Components/Dcm/Implementation/Dcm_Mode.o
 .debug_line    0x00012068      0x2ee obj/external/Components/Dcm/Implementation/Dcm_Net.o
 .debug_line    0x00012356       0x1d obj/external/Components/Dcm/Implementation/Dcm_ObdDtcMgr.o
 .debug_line    0x00012373      0x511 obj/external/Components/Dcm/Implementation/Dcm_ObdIdMgr.o
 .debug_line    0x00012884      0x2ee obj/external/Components/Dcm/Implementation/Dcm_PagedBuffer.o
 .debug_line    0x00012b72      0x5d0 obj/external/Components/Dcm/Implementation/Dcm_Repeater.o
 .debug_line    0x00013142      0x7d8 obj/external/Components/Dcm/Implementation/Dcm_RidMgr.o
 .debug_line    0x0001391a      0x59f obj/external/Components/Dcm/Implementation/Dcm_RsrcMgr.o
 .debug_line    0x00013eb9      0x805 obj/external/Components/Dcm/Implementation/Dcm_State.o
 .debug_line    0x000146be       0x1d obj/external/Components/Dcm/Implementation/Dcm_Svc01.o
 .debug_line    0x000146db       0x1d obj/external/Components/Dcm/Implementation/Dcm_Svc02.o
 .debug_line    0x000146f8       0x1d obj/external/Components/Dcm/Implementation/Dcm_Svc03.o
 .debug_line    0x00014715       0x1d obj/external/Components/Dcm/Implementation/Dcm_Svc04.o
 .debug_line    0x00014732       0x1d obj/external/Components/Dcm/Implementation/Dcm_Svc06.o
 .debug_line    0x0001474f       0x1d obj/external/Components/Dcm/Implementation/Dcm_Svc07.o
 .debug_line    0x0001476c       0x1d obj/external/Components/Dcm/Implementation/Dcm_Svc08.o
 .debug_line    0x00014789       0x1d obj/external/Components/Dcm/Implementation/Dcm_Svc09.o
 .debug_line    0x000147a6       0x1d obj/external/Components/Dcm/Implementation/Dcm_Svc0A.o
 .debug_line    0x000147c3      0x65b obj/external/Components/Dcm/Implementation/Dcm_Svc11.o
 .debug_line    0x00014e1e      0x649 obj/external/Components/Dcm/Implementation/Dcm_Svc14.o
 .debug_line    0x00015467      0x993 obj/external/Components/Dcm/Implementation/Dcm_Svc19.o
 .debug_line    0x00015dfa     0x1823 obj/external/Components/Dcm/Implementation/Dcm_Svc19Uti.o
 .debug_line    0x0001761d      0x8e3 obj/external/Components/Dcm/Implementation/Dcm_Svc22.o
 .debug_line    0x00017f00      0x6a4 obj/external/Components/Dcm/Implementation/Dcm_Svc23.o
 .debug_line    0x000185a4       0x1d obj/external/Components/Dcm/Implementation/Dcm_Svc24.o
 .debug_line    0x000185c1      0xbb2 obj/external/Components/Dcm/Implementation/Dcm_Svc27.o
 .debug_line    0x00019173      0x6ab obj/external/Components/Dcm/Implementation/Dcm_Svc28.o
 .debug_line    0x0001981e       0x1d obj/external/Components/Dcm/Implementation/Dcm_Svc29.o
 .debug_line    0x0001983b      0x703 obj/external/Components/Dcm/Implementation/Dcm_Svc2A.o
 .debug_line    0x00019f3e      0xa74 obj/external/Components/Dcm/Implementation/Dcm_Svc2ASchd.o
 .debug_line    0x0001a9b2      0x681 obj/external/Components/Dcm/Implementation/Dcm_Svc2E.o
 .debug_line    0x0001b033      0x99f obj/external/Components/Dcm/Implementation/Dcm_Svc2F.o
 .debug_line    0x0001b9d2      0x905 obj/external/Components/Dcm/Implementation/Dcm_Svc31.o
 .debug_line    0x0001c2d7       0x1d obj/external/Components/Dcm/Implementation/Dcm_Svc34.o
 .debug_line    0x0001c2f4       0x1d obj/external/Components/Dcm/Implementation/Dcm_Svc36.o
 .debug_line    0x0001c311       0x1d obj/external/Components/Dcm/Implementation/Dcm_Svc37.o
 .debug_line    0x0001c32e      0x684 obj/external/Components/Dcm/Implementation/Dcm_Svc3D.o
 .debug_line    0x0001c9b2      0x49b obj/external/Components/Dcm/Implementation/Dcm_Svc3E.o
 .debug_line    0x0001ce4d      0x6bf obj/external/Components/Dcm/Implementation/Dcm_Svc85.o
 .debug_line    0x0001d50c      0x92d obj/external/Components/Dcm/Implementation/Dcm_Tmr.o
 .debug_line    0x0001de39      0xa40 obj/external/Components/Dcm/Implementation/Dcm_Tsk.o
 .debug_line    0x0001e879      0x6ee obj/external/Components/Dcm/Implementation/Dcm_Uti.o
 .debug_line    0x0001ef67      0x32d obj/external/Components/Dcm/Implementation/Dcm_VarMgr.o
 .debug_line    0x0001f294    0x1349c obj/external/Components/Dem/Implementation/Dem.o
 .debug_line    0x00032730      0x1f3 obj/external/Components/Det/Implementation/Det.o
 .debug_line    0x00032923      0xac6 obj/external/Components/EcuM/Implementation/EcuM.o
 .debug_line    0x000333e9      0xdaa obj/external/Components/Fee/Implementation/Fee.o
 .debug_line    0x00034193      0xe31 obj/external/Components/Fee/Implementation/Fee_ChunkInfo.o
 .debug_line    0x00034fc4      0x25b obj/external/Components/Fee/Implementation/Fee_LookUpTable.o
 .debug_line    0x0003521f      0x5b1 obj/external/Components/Fee/Implementation/Fee_Partition.o
 .debug_line    0x000357d0     0x2c86 obj/external/Components/Fee/Implementation/Fee_Processing.o
 .debug_line    0x00038456      0x841 obj/external/Components/Fee/Implementation/Fee_Sector.o
 .debug_line    0x00038c97      0x42b obj/external/Components/IpduM/Implementation/IpduM.o
 .debug_line    0x000390c2     0x12b0 obj/external/Components/IpduM/Implementation/IpduM_Container.o
 .debug_line    0x0003a372       0xab obj/external/Components/IpduM/Implementation/IpduM_Mux.o
 .debug_line    0x0003a41d      0x48a obj/external/Components/MemIf/Implementation/MemIf.o
 .debug_line    0x0003a8a7      0x7e7 obj/external/Components/Nm/Implementation/Nm.o
 .debug_line    0x0003b08e     0x141c obj/external/Components/NvM/Implementation/NvM.o
 .debug_line    0x0003c4aa      0xfe9 obj/external/Components/NvM/Implementation/NvM_Act.o
 .debug_line    0x0003d493      0x58f obj/external/Components/NvM/Implementation/NvM_Crc.o
 .debug_line    0x0003da22      0x2c5 obj/external/Components/NvM/Implementation/NvM_DataIntegrity.o
 .debug_line    0x0003dce7      0x2ee obj/external/Components/NvM/Implementation/NvM_JobProc.o
 .debug_line    0x0003dfd5      0x19b obj/external/Components/NvM/Implementation/NvM_Mac.o
 .debug_line    0x0003e170      0x23c obj/external/Components/NvM/Implementation/NvM_MemIfAbstraction.o
 .debug_line    0x0003e3ac       0x88 obj/external/Components/NvM/Implementation/NvM_MemIfMemoryCore.o
 .debug_line    0x0003e434      0x6da obj/external/Components/NvM/Implementation/NvM_Qry.o
 .debug_line    0x0003eb0e      0x4b7 obj/external/Components/NvM/Implementation/NvM_Queue.o
 .debug_line    0x0003efc5      0x9ae obj/external/Components/Os/Implementation/Os_AccessCheck.o
 .debug_line    0x0003f973     0x2535 obj/external/Components/Os/Implementation/Os_Alarm.o
 .debug_line    0x00041ea8     0x1862 obj/external/Components/Os/Implementation/Os_Application.o
 .debug_line    0x0004370a      0xab3 obj/external/Components/Os/Implementation/Os_Barrier.o
 .debug_line    0x000441bd      0x919 obj/external/Components/Os/Implementation/Os_Bit.o
 .debug_line    0x00044ad6      0x919 obj/external/Components/Os/Implementation/Os_BitArray.o
 .debug_line    0x000453ef     0x2d37 obj/external/Components/Os/Implementation/Os_Core.o
 .debug_line    0x00048126     0x440f obj/external/Components/Os/Implementation/Os_Counter.o
 .debug_line    0x0004c535      0x919 obj/external/Components/Os/Implementation/Os_Deque.o
 .debug_line    0x0004ce4e     0x1805 obj/external/Components/Os/Implementation/Os_Error.o
 .debug_line    0x0004e653     0x22f6 obj/external/Components/Os/Implementation/Os_Event.o
 .debug_line    0x00050949      0x919 obj/external/Components/Os/Implementation/Os_Fifo.o
 .debug_line    0x00051262      0x919 obj/external/Components/Os/Implementation/Os_Fifo08.o
 .debug_line    0x00051b7b      0x919 obj/external/Components/Os/Implementation/Os_Fifo16.o
 .debug_line    0x00052494      0x919 obj/external/Components/Os/Implementation/Os_Fifo32.o
 .debug_line    0x00052dad      0x919 obj/external/Components/Os/Implementation/Os_FifoRef.o
 .debug_line    0x000536c6       0x1d obj/external/Components/Os/Implementation/Os_Hal_Compiler_Arm.o
 .debug_line    0x000536e3       0x1d obj/external/Components/Os/Implementation/Os_Hal_Compiler_Iar.o
 .debug_line    0x00053700      0xc20 obj/external/Components/Os/Implementation/Os_Hal_Context.o
 .debug_line    0x00054320      0xa59 obj/external/Components/Os/Implementation/Os_Hal_Core.o
 .debug_line    0x00054d79      0x919 obj/external/Components/Os/Implementation/Os_Hal_Entry.o
 .debug_line    0x00055692     0x21d4 obj/external/Components/Os/Implementation/Os_Hook.o
 .debug_line    0x00057866     0x18e3 obj/external/Components/Os/Implementation/Os_Interrupt.o
 .debug_line    0x00059149      0xe25 obj/external/Components/Os/Implementation/Os_Ioc.o
 .debug_line    0x00059f6e     0x297b obj/external/Components/Os/Implementation/Os_Isr.o
 .debug_line    0x0005c8e9      0x919 obj/external/Components/Os/Implementation/Os_Job.o
 .debug_line    0x0005d202      0x919 obj/external/Components/Os/Implementation/Os_Lock.o
 .debug_line    0x0005db1b      0xb80 obj/external/Components/Os/Implementation/Os_MemoryProtection.o
 .debug_line    0x0005e69b     0x1156 obj/external/Components/Os/Implementation/Os_Peripheral.o
 .debug_line    0x0005f7f1     0x1147 obj/external/Components/Os/Implementation/Os_PriorityQueue.o
 .debug_line    0x00060938     0x203c obj/external/Components/Os/Implementation/Os_Resource.o
 .debug_line    0x00062974      0xf5b obj/external/Components/Os/Implementation/Os_ScheduleTable.o
 .debug_line    0x000638cf     0x1e9d obj/external/Components/Os/Implementation/Os_Scheduler.o
 .debug_line    0x0006576c      0xca0 obj/external/Components/Os/Implementation/Os_ServiceFunction.o
 .debug_line    0x0006640c      0xc52 obj/external/Components/Os/Implementation/Os_Spinlock.o
 .debug_line    0x0006705e      0xe6a obj/external/Components/Os/Implementation/Os_Stack.o
 .debug_line    0x00067ec8     0x3a6a obj/external/Components/Os/Implementation/Os_Task.o
 .debug_line    0x0006b932     0x1029 obj/external/Components/Os/Implementation/Os_Thread.o
 .debug_line    0x0006c95b      0xc0c obj/external/Components/Os/Implementation/Os_Timer.o
 .debug_line    0x0006d567      0xb4c obj/external/Components/Os/Implementation/Os_TimingProtection.o
 .debug_line    0x0006e0b3      0x919 obj/external/Components/Os/Implementation/Os_Trace.o
 .debug_line    0x0006e9cc     0x68bb obj/external/Components/Os/Implementation/Os_Trap.o
 .debug_line    0x00075287     0x2956 obj/external/Components/Os/Implementation/Os_XSignal.o
 .debug_line    0x00077bdd      0x583 obj/external/Components/PduR/Implementation/PduR.o
 .debug_line    0x00078160      0xdd7 obj/external/Components/PduR/Implementation/PduR_Bm.o
 .debug_line    0x00078f37      0x4a8 obj/external/Components/PduR/Implementation/PduR_Fm.o
 .debug_line    0x000793df      0x1fc obj/external/Components/PduR/Implementation/PduR_IFQ.o
 .debug_line    0x000795db      0x31c obj/external/Components/PduR/Implementation/PduR_Lock.o
 .debug_line    0x000798f7      0x1fc obj/external/Components/PduR/Implementation/PduR_McQ.o
 .debug_line    0x00079af3      0x631 obj/external/Components/PduR/Implementation/PduR_RmIf.o
 .debug_line    0x0007a124      0x352 obj/external/Components/PduR/Implementation/PduR_RmTp.o
 .debug_line    0x0007a476      0x1fc obj/external/Components/PduR/Implementation/PduR_RmTp_TxInst.o
 .debug_line    0x0007a672      0x1fc obj/external/Components/PduR/Implementation/PduR_Sm.o
 .debug_line    0x0007a86e     0x3acd obj/external/Components/VStdLib/Implementation/vstdlib.o
 .debug_line    0x0007e33b     0x1d97 obj/external/Components/Xcp/Implementation/Xcp.o
 .debug_line    0x000800d2       0x1d obj/external/ThirdParty/Mcal_S32x/Supply/SW32G_RTD_4.4_3.0.4/eclipse/plugins/Base_TS_T40D11M30I4R0/src/OsIf_Interrupts.o
 .debug_line    0x000800ef      0x1cd obj/external/ThirdParty/Mcal_S32x/Supply/SW32G_RTD_4.4_3.0.4/eclipse/plugins/Base_TS_T40D11M30I4R0/src/OsIf_Timer.o
 .debug_line    0x000802bc       0x1d obj/external/ThirdParty/Mcal_S32x/Supply/SW32G_RTD_4.4_3.0.4/eclipse/plugins/Base_TS_T40D11M30I4R0/src/OsIf_Timer_System.o
 .debug_line    0x000802d9       0x1d obj/external/ThirdParty/Mcal_S32x/Supply/SW32G_RTD_4.4_3.0.4/eclipse/plugins/Base_TS_T40D11M30I4R0/src/OsIf_Timer_System_Internal_Systick.o
 .debug_line    0x000802f6      0x228 obj/external/ThirdParty/Mcal_S32x/Supply/SW32G_RTD_4.4_3.0.4/eclipse/plugins/Dio_TS_T40D11M30I4R0/src/Dio.o
 .debug_line    0x0008051e      0x38b obj/external/ThirdParty/Mcal_S32x/Supply/SW32G_RTD_4.4_3.0.4/eclipse/plugins/Dio_TS_T40D11M30I4R0/src/Dio_Ipw.o
 .debug_line    0x000808a9      0x64e obj/external/ThirdParty/Mcal_S32x/Supply/SW32G_RTD_4.4_3.0.4/eclipse/plugins/Dio_TS_T40D11M30I4R0/src/Siul2_Dio_Ip.o
 .debug_line    0x00080ef7     0x184e obj/external/ThirdParty/Mcal_S32x/Supply/SW32G_RTD_4.4_3.0.4/eclipse/plugins/Fls_TS_T40D11M30I4R0/src/Fls.o
 .debug_line    0x00082745      0xafb obj/external/ThirdParty/Mcal_S32x/Supply/SW32G_RTD_4.4_3.0.4/eclipse/plugins/Fls_TS_T40D11M30I4R0/src/Fls_IPW.o
 .debug_line    0x00083240     0x1e84 obj/external/ThirdParty/Mcal_S32x/Supply/SW32G_RTD_4.4_3.0.4/eclipse/plugins/Fls_TS_T40D11M30I4R0/src/Qspi_Ip.o
 .debug_line    0x000850c4     0x2437 obj/external/ThirdParty/Mcal_S32x/Supply/SW32G_RTD_4.4_3.0.4/eclipse/plugins/Fls_TS_T40D11M30I4R0/src/Qspi_Ip_Controller.o
 .debug_line    0x000874fb     0x4e6f obj/external/ThirdParty/Mcal_S32x/Supply/SW32G_RTD_4.4_3.0.4/eclipse/plugins/Fls_TS_T40D11M30I4R0/src/Qspi_Ip_Sfdp.o
 .debug_line    0x0008c36a      0x1e6 obj/external/ThirdParty/Mcal_S32x/Supply/SW32G_RTD_4.4_3.0.4/eclipse/plugins/Mcl_TS_T40D11M30I4R0/src/CDD_Mcl.o
 .debug_line    0x0008c550       0x1d obj/external/ThirdParty/Mcal_S32x/Supply/SW32G_RTD_4.4_3.0.4/eclipse/plugins/Mcl_TS_T40D11M30I4R0/src/Dma_Ip.o
 .debug_line    0x0008c56d       0x1d obj/external/ThirdParty/Mcal_S32x/Supply/SW32G_RTD_4.4_3.0.4/eclipse/plugins/Mcl_TS_T40D11M30I4R0/src/Dma_Ip_Driver_State.o
 .debug_line    0x0008c58a       0x1d obj/external/ThirdParty/Mcal_S32x/Supply/SW32G_RTD_4.4_3.0.4/eclipse/plugins/Mcl_TS_T40D11M30I4R0/src/Dma_Ip_Hw_Access.o
 .debug_line    0x0008c5a7       0x1d obj/external/ThirdParty/Mcal_S32x/Supply/SW32G_RTD_4.4_3.0.4/eclipse/plugins/Mcl_TS_T40D11M30I4R0/src/Dma_Ip_Irq.o
 .debug_line    0x0008c5c4       0x1d obj/external/ThirdParty/Mcal_S32x/Supply/SW32G_RTD_4.4_3.0.4/eclipse/plugins/Mcl_TS_T40D11M30I4R0/src/Dma_Ip_Multicore.o
 .debug_line    0x0008c5e1       0x1d obj/external/ThirdParty/Mcal_S32x/Supply/SW32G_RTD_4.4_3.0.4/eclipse/plugins/Mcl_TS_T40D11M30I4R0/src/Ftm_Mcl_Ip.o
 .debug_line    0x0008c5fe     0x1115 obj/external/ThirdParty/Mcal_S32x/Supply/SW32G_RTD_4.4_3.0.4/eclipse/plugins/Mcu_TS_T40D11M30I4R0/src/Clock_Ip.o
 .debug_line    0x0008d713      0x318 obj/external/ThirdParty/Mcal_S32x/Supply/SW32G_RTD_4.4_3.0.4/eclipse/plugins/Mcu_TS_T40D11M30I4R0/src/Clock_Ip_Data.o
 .debug_line    0x0008da2b      0x20b obj/external/ThirdParty/Mcal_S32x/Supply/SW32G_RTD_4.4_3.0.4/eclipse/plugins/Mcu_TS_T40D11M30I4R0/src/Clock_Ip_Data1.o
 .debug_line    0x0008dc36      0x20b obj/external/ThirdParty/Mcal_S32x/Supply/SW32G_RTD_4.4_3.0.4/eclipse/plugins/Mcu_TS_T40D11M30I4R0/src/Clock_Ip_Data2.o
 .debug_line    0x0008de41      0x496 obj/external/ThirdParty/Mcal_S32x/Supply/SW32G_RTD_4.4_3.0.4/eclipse/plugins/Mcu_TS_T40D11M30I4R0/src/Clock_Ip_Divider.o
 .debug_line    0x0008e2d7      0x2bb obj/external/ThirdParty/Mcal_S32x/Supply/SW32G_RTD_4.4_3.0.4/eclipse/plugins/Mcu_TS_T40D11M30I4R0/src/Clock_Ip_DividerTrigger.o
 .debug_line    0x0008e592      0x423 obj/external/ThirdParty/Mcal_S32x/Supply/SW32G_RTD_4.4_3.0.4/eclipse/plugins/Mcu_TS_T40D11M30I4R0/src/Clock_Ip_ExtOsc.o
 .debug_line    0x0008e9b5      0x41d obj/external/ThirdParty/Mcal_S32x/Supply/SW32G_RTD_4.4_3.0.4/eclipse/plugins/Mcu_TS_T40D11M30I4R0/src/Clock_Ip_FracDiv.o
 .debug_line    0x0008edd2      0x20b obj/external/ThirdParty/Mcal_S32x/Supply/SW32G_RTD_4.4_3.0.4/eclipse/plugins/Mcu_TS_T40D11M30I4R0/src/Clock_Ip_Frequency.o
 .debug_line    0x0008efdd      0x20b obj/external/ThirdParty/Mcal_S32x/Supply/SW32G_RTD_4.4_3.0.4/eclipse/plugins/Mcu_TS_T40D11M30I4R0/src/Clock_Ip_Frequency1.o
 .debug_line    0x0008f1e8      0x20b obj/external/ThirdParty/Mcal_S32x/Supply/SW32G_RTD_4.4_3.0.4/eclipse/plugins/Mcu_TS_T40D11M30I4R0/src/Clock_Ip_Frequency2.o
 .debug_line    0x0008f3f3      0x42c obj/external/ThirdParty/Mcal_S32x/Supply/SW32G_RTD_4.4_3.0.4/eclipse/plugins/Mcu_TS_T40D11M30I4R0/src/Clock_Ip_Gate.o
 .debug_line    0x0008f81f      0x2c3 obj/external/ThirdParty/Mcal_S32x/Supply/SW32G_RTD_4.4_3.0.4/eclipse/plugins/Mcu_TS_T40D11M30I4R0/src/Clock_Ip_IntOsc.o
 .debug_line    0x0008fae2      0x2a4 obj/external/ThirdParty/Mcal_S32x/Supply/SW32G_RTD_4.4_3.0.4/eclipse/plugins/Mcu_TS_T40D11M30I4R0/src/Clock_Ip_Irq.o
 .debug_line    0x0008fd86      0x73e obj/external/ThirdParty/Mcal_S32x/Supply/SW32G_RTD_4.4_3.0.4/eclipse/plugins/Mcu_TS_T40D11M30I4R0/src/Clock_Ip_Monitor.o
 .debug_line    0x000904c4      0x5c8 obj/external/ThirdParty/Mcal_S32x/Supply/SW32G_RTD_4.4_3.0.4/eclipse/plugins/Mcu_TS_T40D11M30I4R0/src/Clock_Ip_Pll.o
 .debug_line    0x00090a8c      0x47f obj/external/ThirdParty/Mcal_S32x/Supply/SW32G_RTD_4.4_3.0.4/eclipse/plugins/Mcu_TS_T40D11M30I4R0/src/Clock_Ip_ProgFreqSwitch.o
 .debug_line    0x00090f0b      0x834 obj/external/ThirdParty/Mcal_S32x/Supply/SW32G_RTD_4.4_3.0.4/eclipse/plugins/Mcu_TS_T40D11M30I4R0/src/Clock_Ip_Selector.o
 .debug_line    0x0009173f      0x572 obj/external/ThirdParty/Mcal_S32x/Supply/SW32G_RTD_4.4_3.0.4/eclipse/plugins/Mcu_TS_T40D11M30I4R0/src/Clock_Ip_Specific.o
 .debug_line    0x00091cb1      0x20b obj/external/ThirdParty/Mcal_S32x/Supply/SW32G_RTD_4.4_3.0.4/eclipse/plugins/Mcu_TS_T40D11M30I4R0/src/Clock_Ip_Specific1.o
 .debug_line    0x00091ebc      0x20b obj/external/ThirdParty/Mcal_S32x/Supply/SW32G_RTD_4.4_3.0.4/eclipse/plugins/Mcu_TS_T40D11M30I4R0/src/Clock_Ip_Specific2.o
 .debug_line    0x000920c7      0x43d obj/external/ThirdParty/Mcal_S32x/Supply/SW32G_RTD_4.4_3.0.4/eclipse/plugins/Mcu_TS_T40D11M30I4R0/src/Mcu.o
 .debug_line    0x00092504      0x199 obj/external/ThirdParty/Mcal_S32x/Supply/SW32G_RTD_4.4_3.0.4/eclipse/plugins/Mcu_TS_T40D11M30I4R0/src/Mcu_Dem_Wrapper.o
 .debug_line    0x0009269d      0x383 obj/external/ThirdParty/Mcal_S32x/Supply/SW32G_RTD_4.4_3.0.4/eclipse/plugins/Mcu_TS_T40D11M30I4R0/src/Mcu_Ipw.o
 .debug_line    0x00092a20      0x36c obj/external/ThirdParty/Mcal_S32x/Supply/SW32G_RTD_4.4_3.0.4/eclipse/plugins/Mcu_TS_T40D11M30I4R0/src/Power_Ip.o
 .debug_line    0x00092d8c      0x14d obj/external/ThirdParty/Mcal_S32x/Supply/SW32G_RTD_4.4_3.0.4/eclipse/plugins/Mcu_TS_T40D11M30I4R0/src/Power_Ip_CortexA.o
 .debug_line    0x00092ed9      0x35c obj/external/ThirdParty/Mcal_S32x/Supply/SW32G_RTD_4.4_3.0.4/eclipse/plugins/Mcu_TS_T40D11M30I4R0/src/Power_Ip_CortexM7.o
 .debug_line    0x00093235      0xa8f obj/external/ThirdParty/Mcal_S32x/Supply/SW32G_RTD_4.4_3.0.4/eclipse/plugins/Mcu_TS_T40D11M30I4R0/src/Power_Ip_MC_ME.o
 .debug_line    0x00093cc4      0xb6c obj/external/ThirdParty/Mcal_S32x/Supply/SW32G_RTD_4.4_3.0.4/eclipse/plugins/Mcu_TS_T40D11M30I4R0/src/Power_Ip_MC_RGM.o
 .debug_line    0x00094830      0x14d obj/external/ThirdParty/Mcal_S32x/Supply/SW32G_RTD_4.4_3.0.4/eclipse/plugins/Mcu_TS_T40D11M30I4R0/src/Power_Ip_MC_RGM_Irq.o
 .debug_line    0x0009497d      0x263 obj/external/ThirdParty/Mcal_S32x/Supply/SW32G_RTD_4.4_3.0.4/eclipse/plugins/Mcu_TS_T40D11M30I4R0/src/Power_Ip_MSCM.o
 .debug_line    0x00094be0      0x2c8 obj/external/ThirdParty/Mcal_S32x/Supply/SW32G_RTD_4.4_3.0.4/eclipse/plugins/Mcu_TS_T40D11M30I4R0/src/Power_Ip_PMC.o
 .debug_line    0x00094ea8      0x2da obj/external/ThirdParty/Mcal_S32x/Supply/SW32G_RTD_4.4_3.0.4/eclipse/plugins/Mcu_TS_T40D11M30I4R0/src/Power_Ip_Private.o
 .debug_line    0x00095182      0x2b0 obj/external/ThirdParty/Mcal_S32x/Supply/SW32G_RTD_4.4_3.0.4/eclipse/plugins/Mcu_TS_T40D11M30I4R0/src/Ram_Ip.o
 .debug_line    0x00095432      0x456 obj/external/ThirdParty/Mcal_S32x/Supply/SW32G_RTD_4.4_3.0.4/eclipse/plugins/Port_TS_T40D11M30I4R0/src/Port.o
 .debug_line    0x00095888      0xa27 obj/external/ThirdParty/Mcal_S32x/Supply/SW32G_RTD_4.4_3.0.4/eclipse/plugins/Port_TS_T40D11M30I4R0/src/Port_Ipw.o
 .debug_line    0x000962af      0x85f obj/external/ThirdParty/Mcal_S32x/Supply/SW32G_RTD_4.4_3.0.4/eclipse/plugins/Port_TS_T40D11M30I4R0/src/Siul2_Port_Ip.o
 .debug_line    0x00096b0e      0xecf obj/external/ap-cp-gateway/Appl/GenData/BswM_Lcfg.o
 .debug_line    0x000979dd      0x290 obj/external/ap-cp-gateway/Appl/GenData/CanIf_Lcfg.o
 .debug_line    0x00097c6d      0x144 obj/external/ap-cp-gateway/Appl/GenData/CanIf_PBcfg.o
 .debug_line    0x00097db1      0x1c7 obj/external/ap-cp-gateway/Appl/GenData/CanNm_Cfg.o
 .debug_line    0x00097f78       0xa1 obj/external/ap-cp-gateway/Appl/GenData/CanNm_Lcfg.o
 .debug_line    0x00098019       0xa1 obj/external/ap-cp-gateway/Appl/GenData/CanNm_PBcfg.o
 .debug_line    0x000980ba      0x1cc obj/external/ap-cp-gateway/Appl/GenData/CanSM_Lcfg.o
 .debug_line    0x00098286      0x1b2 obj/external/ap-cp-gateway/Appl/GenData/CanTp_Lcfg.o
 .debug_line    0x00098438      0x122 obj/external/ap-cp-gateway/Appl/GenData/CanTp_PBcfg.o
 .debug_line    0x0009855a      0x1b6 obj/external/ap-cp-gateway/Appl/GenData/CanXcp_Lcfg.o
 .debug_line    0x00098710        0x0 obj/external/ap-cp-gateway/Appl/GenData/CanXcp_PBcfg.o
 .debug_line    0x00098710       0xee obj/external/ap-cp-gateway/Appl/GenData/Can_30_Flexcan4_Lcfg.o
 .debug_line    0x000987fe       0xc5 obj/external/ap-cp-gateway/Appl/GenData/Can_30_Flexcan4_PBcfg.o
 .debug_line    0x000988c3      0x26c obj/external/ap-cp-gateway/Appl/GenData/ComM_Lcfg.o
 .debug_line    0x00098b2f      0x14e obj/external/ap-cp-gateway/Appl/GenData/Com_Lcfg.o
 .debug_line    0x00098c7d       0x1d obj/external/ap-cp-gateway/Appl/GenData/Com_PBcfg.o
 .debug_line    0x00098c9a      0xa19 obj/external/ap-cp-gateway/Appl/GenData/Dcm_Lcfg.o
 .debug_line    0x000996b3      0x350 obj/external/ap-cp-gateway/Appl/GenData/Dcm_PBcfg.o
 .debug_line    0x00099a03      0x28c obj/external/ap-cp-gateway/Appl/GenData/Dem_Lcfg.o
 .debug_line    0x00099c8f      0x244 obj/external/ap-cp-gateway/Appl/GenData/Dem_PBcfg.o
 .debug_line    0x00099ed3       0xc3 obj/external/ap-cp-gateway/Appl/GenData/Det_Cfg.o
 .debug_line    0x00099f96      0x2d7 obj/external/ap-cp-gateway/Appl/GenData/EcuM_Cfg.o
 .debug_line    0x0009a26d       0x1d obj/external/ap-cp-gateway/Appl/GenData/EcuM_Init_Cfg.o
 .debug_line    0x0009a28a       0x1d obj/external/ap-cp-gateway/Appl/GenData/EcuM_Init_PBcfg.o
 .debug_line    0x0009a2a7       0x1d obj/external/ap-cp-gateway/Appl/GenData/EcuM_PBcfg.o
 .debug_line    0x0009a2c4      0x2ee obj/external/ap-cp-gateway/Appl/GenData/Fee_Lcfg.o
 .debug_line    0x0009a5b2      0x14b obj/external/ap-cp-gateway/Appl/GenData/IpduM_Lcfg.o
 .debug_line    0x0009a6fd       0x1d obj/external/ap-cp-gateway/Appl/GenData/IpduM_PBcfg.o
 .debug_line    0x0009a71a      0x16f obj/external/ap-cp-gateway/Appl/GenData/MemIf_Cfg.o
 .debug_line    0x0009a889      0x1f4 obj/external/ap-cp-gateway/Appl/GenData/Nm_Cfg.o
 .debug_line    0x0009aa7d      0x11d obj/external/ap-cp-gateway/Appl/GenData/Nm_Lcfg.o
 .debug_line    0x0009ab9a      0x3b6 obj/external/ap-cp-gateway/Appl/GenData/NvM_Cfg.o
 .debug_line    0x0009af50      0x96f obj/external/ap-cp-gateway/Appl/GenData/Os_AccessCheck_Lcfg.o
 .debug_line    0x0009b8bf      0x969 obj/external/ap-cp-gateway/Appl/GenData/Os_Alarm_Lcfg.o
 .debug_line    0x0009c228      0x96f obj/external/ap-cp-gateway/Appl/GenData/Os_Application_Lcfg.o
 .debug_line    0x0009cb97      0x96b obj/external/ap-cp-gateway/Appl/GenData/Os_Barrier_Lcfg.o
 .debug_line    0x0009d502      0x97e obj/external/ap-cp-gateway/Appl/GenData/Os_Core_Lcfg.o
 .debug_line    0x0009de80      0x982 obj/external/ap-cp-gateway/Appl/GenData/Os_Counter_Lcfg.o
 .debug_line    0x0009e802      0x97c obj/external/ap-cp-gateway/Appl/GenData/Os_Error_Lcfg.o
 .debug_line    0x0009f17e      0x988 obj/external/ap-cp-gateway/Appl/GenData/Os_Hal_Context_Lcfg.o
 .debug_line    0x0009fb06      0x9b2 obj/external/ap-cp-gateway/Appl/GenData/Os_Hal_Core_Lcfg.o
 .debug_line    0x000a04b8      0x99a obj/external/ap-cp-gateway/Appl/GenData/Os_Hal_Entry_Lcfg.o
 .debug_line    0x000a0e52      0x971 obj/external/ap-cp-gateway/Appl/GenData/Os_Hal_Interrupt_Lcfg.o
 .debug_line    0x000a17c3      0x99d obj/external/ap-cp-gateway/Appl/GenData/Os_Hal_Kernel_Lcfg.o
 .debug_line    0x000a2160      0x919 obj/external/ap-cp-gateway/Appl/GenData/Os_Hal_MemoryProtection_Lcfg.o
 .debug_line    0x000a2a79      0x984 obj/external/ap-cp-gateway/Appl/GenData/Os_Hal_Timer_Lcfg.o
 .debug_line    0x000a33fd      0x981 obj/external/ap-cp-gateway/Appl/GenData/Os_Hook_Lcfg.o
 .debug_line    0x000a3d7e      0x919 obj/external/ap-cp-gateway/Appl/GenData/Os_Ioc_Lcfg.o
 .debug_line    0x000a4697      0x980 obj/external/ap-cp-gateway/Appl/GenData/Os_Isr_Lcfg.o
 .debug_line    0x000a5017      0x919 obj/external/ap-cp-gateway/Appl/GenData/Os_MemoryProtection_Lcfg.o
 .debug_line    0x000a5930      0x96e obj/external/ap-cp-gateway/Appl/GenData/Os_Peripheral_Lcfg.o
 .debug_line    0x000a629e      0x96c obj/external/ap-cp-gateway/Appl/GenData/Os_Resource_Lcfg.o
 .debug_line    0x000a6c0a      0x971 obj/external/ap-cp-gateway/Appl/GenData/Os_ScheduleTable_Lcfg.o
 .debug_line    0x000a757b      0x96d obj/external/ap-cp-gateway/Appl/GenData/Os_Scheduler_Lcfg.o
 .debug_line    0x000a7ee8      0x98c obj/external/ap-cp-gateway/Appl/GenData/Os_ServiceFunction_Lcfg.o
 .debug_line    0x000a8874      0x96c obj/external/ap-cp-gateway/Appl/GenData/Os_Spinlock_Lcfg.o
 .debug_line    0x000a91e0      0x969 obj/external/ap-cp-gateway/Appl/GenData/Os_Stack_Lcfg.o
 .debug_line    0x000a9b49      0x992 obj/external/ap-cp-gateway/Appl/GenData/Os_Task_Lcfg.o
 .debug_line    0x000aa4db      0x919 obj/external/ap-cp-gateway/Appl/GenData/Os_TimingProtection_Lcfg.o
 .debug_line    0x000aadf4      0x919 obj/external/ap-cp-gateway/Appl/GenData/Os_Trace_Lcfg.o
 .debug_line    0x000ab70d      0x96b obj/external/ap-cp-gateway/Appl/GenData/Os_XSignal_Lcfg.o
 .debug_line    0x000ac078      0x43b obj/external/ap-cp-gateway/Appl/GenData/PduR_Lcfg.o
 .debug_line    0x000ac4b3      0x1d1 obj/external/ap-cp-gateway/Appl/GenData/PduR_PBcfg.o
 .debug_line    0x000ac684      0xe86 obj/external/ap-cp-gateway/Appl/GenData/Rte.o
 .debug_line    0x000ad50a      0x19b obj/external/ap-cp-gateway/Appl/GenData/Xcp_Lcfg.o
 .debug_line    0x000ad6a5       0xfa obj/external/ap-cp-gateway/Appl/GenData/src/CDD_Mcl_Cfg.o
 .debug_line    0x000ad79f      0x14d obj/external/ap-cp-gateway/Appl/GenData/src/CDD_Mcl_PBcfg.o
 .debug_line    0x000ad8ec      0x20b obj/external/ap-cp-gateway/Appl/GenData/src/Clock_Ip_Cfg.o
 .debug_line    0x000adaf7      0x25f obj/external/ap-cp-gateway/Appl/GenData/src/Clock_Ip_PBcfg.o
 .debug_line    0x000add56       0xcf obj/external/ap-cp-gateway/Appl/GenData/src/Dio_Cfg.o
 .debug_line    0x000ade25       0x1d obj/external/ap-cp-gateway/Appl/GenData/src/Dma_Ip_Cfg.o
 .debug_line    0x000ade42       0x1d obj/external/ap-cp-gateway/Appl/GenData/src/Dma_Ip_PBcfg.o
 .debug_line    0x000ade5f      0x166 obj/external/ap-cp-gateway/Appl/GenData/src/Fls_Cfg.o
 .debug_line    0x000adfc5      0x1b5 obj/external/ap-cp-gateway/Appl/GenData/src/Fls_PBcfg.o
 .debug_line    0x000ae17a      0x1c2 obj/external/ap-cp-gateway/Appl/GenData/src/Mcu_Cfg.o
 .debug_line    0x000ae33c      0x211 obj/external/ap-cp-gateway/Appl/GenData/src/Mcu_PBcfg.o
 .debug_line    0x000ae54d       0x1d obj/external/ap-cp-gateway/Appl/GenData/src/OsIf_Cfg.o
 .debug_line    0x000ae56a      0x24d obj/external/ap-cp-gateway/Appl/GenData/src/Port_Cfg.o
 .debug_line    0x000ae7b7      0x24f obj/external/ap-cp-gateway/Appl/GenData/src/Port_PBcfg.o
 .debug_line    0x000aea06      0x14d obj/external/ap-cp-gateway/Appl/GenData/src/Power_Ip_Cfg.o
 .debug_line    0x000aeb53      0x1e6 obj/external/ap-cp-gateway/Appl/GenData/src/Power_Ip_PBcfg.o
 .debug_line    0x000aed39      0x151 obj/external/ap-cp-gateway/Appl/GenData/src/Qspi_Ip_PBcfg.o
 .debug_line    0x000aee8a       0xfc obj/external/ap-cp-gateway/Appl/GenData/src/Ram_Ip_Cfg.o
 .debug_line    0x000aef86       0xfc obj/external/ap-cp-gateway/Appl/GenData/src/Ram_Ip_PBcfg.o
 .debug_line    0x000af082      0x240 obj/external/ap-cp-gateway/Appl/GenData/src/Siul2_Port_Ip_PBcfg.o
 .debug_line    0x000af2c2       0xe5 obj/external/ap-cp-gateway/Appl/GenData/vBrs_Lcfg.o
 .debug_line    0x000af3a7       0xb8 obj/external/ap-cp-gateway/Appl/GenData/vLinkGen_Lcfg.o
 .debug_line    0x000af45f       0xf4 obj/external/ap-cp-gateway/Appl/Source/ARMBrsHwIntTb_CortexM.o
 .debug_line    0x000af553      0x381 obj/external/ap-cp-gateway/Appl/Source/ARMBrsHw_CortexM.o
 .debug_line    0x000af8d4       0xf9 obj/external/ap-cp-gateway/Appl/Source/ARMStartup_CortexM.o
 .debug_line    0x000af9cd      0x234 obj/external/ap-cp-gateway/Appl/Source/BrsHw.o
 .debug_line    0x000afc01      0x442 obj/external/ap-cp-gateway/Appl/Source/BrsMain.o
 .debug_line    0x000b0043      0x2de obj/external/ap-cp-gateway/Appl/Source/BrsMainStartup.o
 .debug_line    0x000b0321      0x116 obj/external/ap-cp-gateway/Appl/Source/BrsMain_Callout_Stubs.o
 .debug_line    0x000b0437      0x2fb obj/external/ap-cp-gateway/Appl/Source/BswInit.o
 .debug_line    0x000b0732      0x7ba obj/external/ap-cp-gateway/Appl/Source/BswM_Callout_Stubs.o
 .debug_line    0x000b0eec      0x405 obj/external/ap-cp-gateway/Appl/Source/Dcm_Callout_Stubs.o
 .debug_line    0x000b12f1      0xf00 obj/external/ap-cp-gateway/Appl/Source/EcuM_Callout_Stubs.o
 .debug_line    0x000b21f1      0x143 obj/external/ap-cp-gateway/Appl/Source/Os_Callout_Stubs.o
 .debug_line    0x000b2334      0x366 obj/external/ap-cp-gateway/Appl/Source/XcpAppl.o
 .debug_line    0x000b269a      0x37e obj/external/ap-cp-gateway/Appl/Source/ipc-shm/Cdd_Ipc.o
 .debug_line    0x000b2a18      0x1b4 obj/external/ap-cp-gateway/Appl/Source/ipc-shm/Cdd_Ipc_Lcfg.o
 .debug_line    0x000b2bcc      0x2ff obj/external/ap-cp-gateway/Appl/Source/ipc-shm/common/ipc-queue.o
 .debug_line    0x000b2ecb      0xf9d obj/external/ap-cp-gateway/Appl/Source/ipc-shm/common/ipc-shm.o
 .debug_line    0x000b3e68      0x4b7 obj/external/ap-cp-gateway/Appl/Source/ipc-shm/hw/s32gen1/ipc-hw-s32gen1.o
 .debug_line    0x000b431f      0x5e3 obj/external/ap-cp-gateway/Appl/Source/ipc-shm/os/autosar/ipc-os-autosar.o

.debug_info     0x00000000   0x3f9dbe
 .debug_info    0x00000000       0x26 obj/external/Components/Os/Implementation/Os_Hal_Compiler_TiInt.o
 .debug_info    0x00000026       0x26 obj/external/Components/Os/Implementation/Os_Hal_ContextAsm.o
 .debug_info    0x0000004c       0x26 obj/external/ap-cp-gateway/Appl/GenData/Os_Hal_EntryAsm_Lcfg.o
 .debug_info    0x00000072     0xaba1 obj/external/Components/BswM/Implementation/BswM.o
 .debug_info    0x0000ac13     0x3230 obj/external/Components/CanIf/Implementation/CanIf.o
 .debug_info    0x0000de43     0x36b2 obj/external/Components/CanNm/Implementation/CanNm.o
 .debug_info    0x000114f5     0x3297 obj/external/Components/CanSM/Implementation/CanSM.o
 .debug_info    0x0001478c     0x4568 obj/external/Components/CanTp/Implementation/CanTp.o
 .debug_info    0x00018cf4     0x24e6 obj/external/Components/CanXcp/Implementation/CanXcp.o
 .debug_info    0x0001b1da     0x5928 obj/external/Components/Can_30_Flexcan4/Implementation/Can_30_Flexcan4.o
 .debug_info    0x00020b02      0xdb0 obj/external/Components/Can_30_Flexcan4/Implementation/Can_30_Flexcan4_Irq.o
 .debug_info    0x000218b2     0x2532 obj/external/Components/Com/Implementation/Com.o
 .debug_info    0x00023de4     0x1cfb obj/external/Components/Com/Implementation/Com_Buffers.o
 .debug_info    0x00025adf     0x187a obj/external/Components/Com/Implementation/Com_CprQueue.o
 .debug_info    0x00027359     0x187a obj/external/Components/Com/Implementation/Com_CprQueueDescrGw.o
 .debug_info    0x00028bd3     0x187a obj/external/Components/Com/Implementation/Com_CprQueueSigGw.o
 .debug_info    0x0002a44d     0x187a obj/external/Components/Com/Implementation/Com_DescriptionGateway.o
 .debug_info    0x0002bcc7     0x1e80 obj/external/Components/Com/Implementation/Com_Deserializer.o
 .debug_info    0x0002db47     0x2304 obj/external/Components/Com/Implementation/Com_IPduGroupHdlr.o
 .debug_info    0x0002fe4b     0x1bc0 obj/external/Components/Com/Implementation/Com_LLIf.o
 .debug_info    0x00031a0b     0x1afc obj/external/Components/Com/Implementation/Com_LMgt.o
 .debug_info    0x00033507     0x19ff obj/external/Components/Com/Implementation/Com_MainFunctions.o
 .debug_info    0x00034f06     0x187a obj/external/Components/Com/Implementation/Com_Notifications.o
 .debug_info    0x00036780     0x187a obj/external/Components/Com/Implementation/Com_RxInv.o
 .debug_info    0x00037ffa     0x23bb obj/external/Components/Com/Implementation/Com_RxProcessing.o
 .debug_info    0x0003a3b5     0x1c3f obj/external/Components/Com/Implementation/Com_Serializer.o
 .debug_info    0x0003bff4     0x187a obj/external/Components/Com/Implementation/Com_SignalFilterHdlr.o
 .debug_info    0x0003d86e     0x187a obj/external/Components/Com/Implementation/Com_SignalGateway.o
 .debug_info    0x0003f0e8     0x1d46 obj/external/Components/Com/Implementation/Com_SignalIf.o
 .debug_info    0x00040e2e     0x187a obj/external/Components/Com/Implementation/Com_Timer.o
 .debug_info    0x000426a8     0x1e11 obj/external/Components/Com/Implementation/Com_TxModeHdlr.o
 .debug_info    0x000444b9     0x2084 obj/external/Components/ComM/Implementation/ComM.o
 .debug_info    0x0004653d      0x6a7 obj/external/Components/Crc/Implementation/Crc.o
 .debug_info    0x00046be4    0x109ad obj/external/Components/Dcm/Implementation/Dcm.o
 .debug_info    0x00057591       0x6b obj/external/Components/Dcm/Implementation/Dcm_AuthMgr.o
 .debug_info    0x000575fc     0x316a obj/external/Components/Dcm/Implementation/Dcm_CfgWrap.o
 .debug_info    0x0005a766     0x323e obj/external/Components/Dcm/Implementation/Dcm_Debug.o
 .debug_info    0x0005d9a4     0x33cd obj/external/Components/Dcm/Implementation/Dcm_DemIf.o
 .debug_info    0x00060d71       0x6b obj/external/Components/Dcm/Implementation/Dcm_Diag.o
 .debug_info    0x00060ddc     0x9675 obj/external/Components/Dcm/Implementation/Dcm_DidMgr.o
 .debug_info    0x0006a451     0x3c31 obj/external/Components/Dcm/Implementation/Dcm_Ext.o
 .debug_info    0x0006e082       0x6b obj/external/Components/Dcm/Implementation/Dcm_FblMgr.o
 .debug_info    0x0006e0ed     0x4388 obj/external/Components/Dcm/Implementation/Dcm_MemMgr.o
 .debug_info    0x00072475     0x407f obj/external/Components/Dcm/Implementation/Dcm_Mode.o
 .debug_info    0x000764f4     0x3108 obj/external/Components/Dcm/Implementation/Dcm_Net.o
 .debug_info    0x000795fc       0x6b obj/external/Components/Dcm/Implementation/Dcm_ObdDtcMgr.o
 .debug_info    0x00079667     0x3e27 obj/external/Components/Dcm/Implementation/Dcm_ObdIdMgr.o
 .debug_info    0x0007d48e     0x3108 obj/external/Components/Dcm/Implementation/Dcm_PagedBuffer.o
 .debug_info    0x00080596     0x3ff0 obj/external/Components/Dcm/Implementation/Dcm_Repeater.o
 .debug_info    0x00084586     0x48e4 obj/external/Components/Dcm/Implementation/Dcm_RidMgr.o
 .debug_info    0x00088e6a     0x37bd obj/external/Components/Dcm/Implementation/Dcm_RsrcMgr.o
 .debug_info    0x0008c627     0x45ba obj/external/Components/Dcm/Implementation/Dcm_State.o
 .debug_info    0x00090be1       0x6b obj/external/Components/Dcm/Implementation/Dcm_Svc01.o
 .debug_info    0x00090c4c       0x6b obj/external/Components/Dcm/Implementation/Dcm_Svc02.o
 .debug_info    0x00090cb7       0x6b obj/external/Components/Dcm/Implementation/Dcm_Svc03.o
 .debug_info    0x00090d22       0x6b obj/external/Components/Dcm/Implementation/Dcm_Svc04.o
 .debug_info    0x00090d8d       0x6b obj/external/Components/Dcm/Implementation/Dcm_Svc06.o
 .debug_info    0x00090df8       0x6b obj/external/Components/Dcm/Implementation/Dcm_Svc07.o
 .debug_info    0x00090e63       0x6b obj/external/Components/Dcm/Implementation/Dcm_Svc08.o
 .debug_info    0x00090ece       0x6b obj/external/Components/Dcm/Implementation/Dcm_Svc09.o
 .debug_info    0x00090f39       0x6b obj/external/Components/Dcm/Implementation/Dcm_Svc0A.o
 .debug_info    0x00090fa4     0x43d7 obj/external/Components/Dcm/Implementation/Dcm_Svc11.o
 .debug_info    0x0009537b     0x42d9 obj/external/Components/Dcm/Implementation/Dcm_Svc14.o
 .debug_info    0x00099654     0x55b7 obj/external/Components/Dcm/Implementation/Dcm_Svc19.o
 .debug_info    0x0009ec0b     0x84f5 obj/external/Components/Dcm/Implementation/Dcm_Svc19Uti.o
 .debug_info    0x000a7100     0x4da5 obj/external/Components/Dcm/Implementation/Dcm_Svc22.o
 .debug_info    0x000abea5     0x455b obj/external/Components/Dcm/Implementation/Dcm_Svc23.o
 .debug_info    0x000b0400       0x6b obj/external/Components/Dcm/Implementation/Dcm_Svc24.o
 .debug_info    0x000b046b     0x54fd obj/external/Components/Dcm/Implementation/Dcm_Svc27.o
 .debug_info    0x000b5968     0x4474 obj/external/Components/Dcm/Implementation/Dcm_Svc28.o
 .debug_info    0x000b9ddc       0x6b obj/external/Components/Dcm/Implementation/Dcm_Svc29.o
 .debug_info    0x000b9e47     0x4985 obj/external/Components/Dcm/Implementation/Dcm_Svc2A.o
 .debug_info    0x000be7cc     0x5009 obj/external/Components/Dcm/Implementation/Dcm_Svc2ASchd.o
 .debug_info    0x000c37d5     0x43d6 obj/external/Components/Dcm/Implementation/Dcm_Svc2E.o
 .debug_info    0x000c7bab     0x5174 obj/external/Components/Dcm/Implementation/Dcm_Svc2F.o
 .debug_info    0x000ccd1f     0x4cc4 obj/external/Components/Dcm/Implementation/Dcm_Svc31.o
 .debug_info    0x000d19e3       0x6b obj/external/Components/Dcm/Implementation/Dcm_Svc34.o
 .debug_info    0x000d1a4e       0x6b obj/external/Components/Dcm/Implementation/Dcm_Svc36.o
 .debug_info    0x000d1ab9       0x6b obj/external/Components/Dcm/Implementation/Dcm_Svc37.o
 .debug_info    0x000d1b24     0x44bc obj/external/Components/Dcm/Implementation/Dcm_Svc3D.o
 .debug_info    0x000d5fe0     0x3cd9 obj/external/Components/Dcm/Implementation/Dcm_Svc3E.o
 .debug_info    0x000d9cb9     0x4418 obj/external/Components/Dcm/Implementation/Dcm_Svc85.o
 .debug_info    0x000de0d1     0x4ad6 obj/external/Components/Dcm/Implementation/Dcm_Tmr.o
 .debug_info    0x000e2ba7     0x52d0 obj/external/Components/Dcm/Implementation/Dcm_Tsk.o
 .debug_info    0x000e7e77     0x3cdf obj/external/Components/Dcm/Implementation/Dcm_Uti.o
 .debug_info    0x000ebb56     0x3193 obj/external/Components/Dcm/Implementation/Dcm_VarMgr.o
 .debug_info    0x000eece9    0x3d6f7 obj/external/Components/Dem/Implementation/Dem.o
 .debug_info    0x0012c3e0      0x36d obj/external/Components/Det/Implementation/Det.o
 .debug_info    0x0012c74d     0x5a9d obj/external/Components/EcuM/Implementation/EcuM.o
 .debug_info    0x001321ea     0x3274 obj/external/Components/Fee/Implementation/Fee.o
 .debug_info    0x0013545e     0x21d1 obj/external/Components/Fee/Implementation/Fee_ChunkInfo.o
 .debug_info    0x0013762f     0x1dcf obj/external/Components/Fee/Implementation/Fee_LookUpTable.o
 .debug_info    0x001393fe     0x1a58 obj/external/Components/Fee/Implementation/Fee_Partition.o
 .debug_info    0x0013ae56     0x7b72 obj/external/Components/Fee/Implementation/Fee_Processing.o
 .debug_info    0x001429c8     0x1e29 obj/external/Components/Fee/Implementation/Fee_Sector.o
 .debug_info    0x001447f1      0xe53 obj/external/Components/IpduM/Implementation/IpduM.o
 .debug_info    0x00145644     0x2c18 obj/external/Components/IpduM/Implementation/IpduM_Container.o
 .debug_info    0x0014825c      0x923 obj/external/Components/IpduM/Implementation/IpduM_Mux.o
 .debug_info    0x00148b7f      0x93e obj/external/Components/MemIf/Implementation/MemIf.o
 .debug_info    0x001494bd     0x12b0 obj/external/Components/Nm/Implementation/Nm.o
 .debug_info    0x0014a76d     0x2a83 obj/external/Components/NvM/Implementation/NvM.o
 .debug_info    0x0014d1f0     0x21c3 obj/external/Components/NvM/Implementation/NvM_Act.o
 .debug_info    0x0014f3b3     0x190e obj/external/Components/NvM/Implementation/NvM_Crc.o
 .debug_info    0x00150cc1     0x14a8 obj/external/Components/NvM/Implementation/NvM_DataIntegrity.o
 .debug_info    0x00152169     0x14ce obj/external/Components/NvM/Implementation/NvM_JobProc.o
 .debug_info    0x00153637     0x106e obj/external/Components/NvM/Implementation/NvM_Mac.o
 .debug_info    0x001546a5      0xb4c obj/external/Components/NvM/Implementation/NvM_MemIfAbstraction.o
 .debug_info    0x001551f1       0xef obj/external/Components/NvM/Implementation/NvM_MemIfMemoryCore.o
 .debug_info    0x001552e0     0x1715 obj/external/Components/NvM/Implementation/NvM_Qry.o
 .debug_info    0x001569f5     0x1681 obj/external/Components/NvM/Implementation/NvM_Queue.o
 .debug_info    0x00158076     0x4e80 obj/external/Components/Os/Implementation/Os_AccessCheck.o
 .debug_info    0x0015cef6     0x8700 obj/external/Components/Os/Implementation/Os_Alarm.o
 .debug_info    0x001655f6     0x7d39 obj/external/Components/Os/Implementation/Os_Application.o
 .debug_info    0x0016d32f     0x518a obj/external/Components/Os/Implementation/Os_Barrier.o
 .debug_info    0x001724b9     0x4b0a obj/external/Components/Os/Implementation/Os_Bit.o
 .debug_info    0x00176fc3     0x4b0a obj/external/Components/Os/Implementation/Os_BitArray.o
 .debug_info    0x0017bacd     0x9aa1 obj/external/Components/Os/Implementation/Os_Core.o
 .debug_info    0x0018556e     0xb505 obj/external/Components/Os/Implementation/Os_Counter.o
 .debug_info    0x00190a73     0x4b0a obj/external/Components/Os/Implementation/Os_Deque.o
 .debug_info    0x0019557d     0x6ca8 obj/external/Components/Os/Implementation/Os_Error.o
 .debug_info    0x0019c225     0x899d obj/external/Components/Os/Implementation/Os_Event.o
 .debug_info    0x001a4bc2     0x4b0a obj/external/Components/Os/Implementation/Os_Fifo.o
 .debug_info    0x001a96cc     0x4b0a obj/external/Components/Os/Implementation/Os_Fifo08.o
 .debug_info    0x001ae1d6     0x4b0a obj/external/Components/Os/Implementation/Os_Fifo16.o
 .debug_info    0x001b2ce0     0x4b0a obj/external/Components/Os/Implementation/Os_Fifo32.o
 .debug_info    0x001b77ea     0x4b0a obj/external/Components/Os/Implementation/Os_FifoRef.o
 .debug_info    0x001bc2f4       0x6b obj/external/Components/Os/Implementation/Os_Hal_Compiler_Arm.o
 .debug_info    0x001bc35f       0x6b obj/external/Components/Os/Implementation/Os_Hal_Compiler_Iar.o
 .debug_info    0x001bc3ca     0x504e obj/external/Components/Os/Implementation/Os_Hal_Context.o
 .debug_info    0x001c1418     0x4d2f obj/external/Components/Os/Implementation/Os_Hal_Core.o
 .debug_info    0x001c6147     0x4b0a obj/external/Components/Os/Implementation/Os_Hal_Entry.o
 .debug_info    0x001cac51     0x896c obj/external/Components/Os/Implementation/Os_Hook.o
 .debug_info    0x001d35bd     0x6cf9 obj/external/Components/Os/Implementation/Os_Interrupt.o
 .debug_info    0x001da2b6     0x77a8 obj/external/Components/Os/Implementation/Os_Ioc.o
 .debug_info    0x001e1a5e     0x981c obj/external/Components/Os/Implementation/Os_Isr.o
 .debug_info    0x001eb27a     0x4b0a obj/external/Components/Os/Implementation/Os_Job.o
 .debug_info    0x001efd84     0x4b0a obj/external/Components/Os/Implementation/Os_Lock.o
 .debug_info    0x001f488e     0x5016 obj/external/Components/Os/Implementation/Os_MemoryProtection.o
 .debug_info    0x001f98a4     0x5eb7 obj/external/Components/Os/Implementation/Os_Peripheral.o
 .debug_info    0x001ff75b     0x56e6 obj/external/Components/Os/Implementation/Os_PriorityQueue.o
 .debug_info    0x00204e41     0x8870 obj/external/Components/Os/Implementation/Os_Resource.o
 .debug_info    0x0020d6b1     0x6c99 obj/external/Components/Os/Implementation/Os_ScheduleTable.o
 .debug_info    0x0021434a     0x7006 obj/external/Components/Os/Implementation/Os_Scheduler.o
 .debug_info    0x0021b350     0x641c obj/external/Components/Os/Implementation/Os_ServiceFunction.o
 .debug_info    0x0022176c     0x6b04 obj/external/Components/Os/Implementation/Os_Spinlock.o
 .debug_info    0x00228270     0x6109 obj/external/Components/Os/Implementation/Os_Stack.o
 .debug_info    0x0022e379     0xacfa obj/external/Components/Os/Implementation/Os_Task.o
 .debug_info    0x00239073     0x636d obj/external/Components/Os/Implementation/Os_Thread.o
 .debug_info    0x0023f3e0     0x57c1 obj/external/Components/Os/Implementation/Os_Timer.o
 .debug_info    0x00244ba1     0x5725 obj/external/Components/Os/Implementation/Os_TimingProtection.o
 .debug_info    0x0024a2c6     0x4b0a obj/external/Components/Os/Implementation/Os_Trace.o
 .debug_info    0x0024edd0    0x147d9 obj/external/Components/Os/Implementation/Os_Trap.o
 .debug_info    0x002635a9     0x8b35 obj/external/Components/Os/Implementation/Os_XSignal.o
 .debug_info    0x0026c0de     0x4d6d obj/external/Components/PduR/Implementation/PduR.o
 .debug_info    0x00270e4b     0x769b obj/external/Components/PduR/Implementation/PduR_Bm.o
 .debug_info    0x002784e6     0x4f3c obj/external/Components/PduR/Implementation/PduR_Fm.o
 .debug_info    0x0027d422     0x434f obj/external/Components/PduR/Implementation/PduR_IFQ.o
 .debug_info    0x00281771     0x457b obj/external/Components/PduR/Implementation/PduR_Lock.o
 .debug_info    0x00285cec     0x434f obj/external/Components/PduR/Implementation/PduR_McQ.o
 .debug_info    0x0028a03b     0x5577 obj/external/Components/PduR/Implementation/PduR_RmIf.o
 .debug_info    0x0028f5b2     0x47b0 obj/external/Components/PduR/Implementation/PduR_RmTp.o
 .debug_info    0x00293d62     0x434f obj/external/Components/PduR/Implementation/PduR_RmTp_TxInst.o
 .debug_info    0x002980b1     0x434f obj/external/Components/PduR/Implementation/PduR_Sm.o
 .debug_info    0x0029c400     0x4c98 obj/external/Components/VStdLib/Implementation/vstdlib.o
 .debug_info    0x002a1098     0x2b09 obj/external/Components/Xcp/Implementation/Xcp.o
 .debug_info    0x002a3ba1       0x72 obj/external/ThirdParty/Mcal_S32x/Supply/SW32G_RTD_4.4_3.0.4/eclipse/plugins/Base_TS_T40D11M30I4R0/src/OsIf_Interrupts.o
 .debug_info    0x002a3c13      0x270 obj/external/ThirdParty/Mcal_S32x/Supply/SW32G_RTD_4.4_3.0.4/eclipse/plugins/Base_TS_T40D11M30I4R0/src/OsIf_Timer.o
 .debug_info    0x002a3e83       0x72 obj/external/ThirdParty/Mcal_S32x/Supply/SW32G_RTD_4.4_3.0.4/eclipse/plugins/Base_TS_T40D11M30I4R0/src/OsIf_Timer_System.o
 .debug_info    0x002a3ef5       0x72 obj/external/ThirdParty/Mcal_S32x/Supply/SW32G_RTD_4.4_3.0.4/eclipse/plugins/Base_TS_T40D11M30I4R0/src/OsIf_Timer_System_Internal_Systick.o
 .debug_info    0x002a3f67      0x48e obj/external/ThirdParty/Mcal_S32x/Supply/SW32G_RTD_4.4_3.0.4/eclipse/plugins/Dio_TS_T40D11M30I4R0/src/Dio.o
 .debug_info    0x002a43f5      0x6b3 obj/external/ThirdParty/Mcal_S32x/Supply/SW32G_RTD_4.4_3.0.4/eclipse/plugins/Dio_TS_T40D11M30I4R0/src/Dio_Ipw.o
 .debug_info    0x002a4aa8     0x1da6 obj/external/ThirdParty/Mcal_S32x/Supply/SW32G_RTD_4.4_3.0.4/eclipse/plugins/Dio_TS_T40D11M30I4R0/src/Siul2_Dio_Ip.o
 .debug_info    0x002a684e     0x2adf obj/external/ThirdParty/Mcal_S32x/Supply/SW32G_RTD_4.4_3.0.4/eclipse/plugins/Fls_TS_T40D11M30I4R0/src/Fls.o
 .debug_info    0x002a932d     0x19f1 obj/external/ThirdParty/Mcal_S32x/Supply/SW32G_RTD_4.4_3.0.4/eclipse/plugins/Fls_TS_T40D11M30I4R0/src/Fls_IPW.o
 .debug_info    0x002aad1e     0x3ab8 obj/external/ThirdParty/Mcal_S32x/Supply/SW32G_RTD_4.4_3.0.4/eclipse/plugins/Fls_TS_T40D11M30I4R0/src/Qspi_Ip.o
 .debug_info    0x002ae7d6     0x50ca obj/external/ThirdParty/Mcal_S32x/Supply/SW32G_RTD_4.4_3.0.4/eclipse/plugins/Fls_TS_T40D11M30I4R0/src/Qspi_Ip_Controller.o
 .debug_info    0x002b38a0     0x8976 obj/external/ThirdParty/Mcal_S32x/Supply/SW32G_RTD_4.4_3.0.4/eclipse/plugins/Fls_TS_T40D11M30I4R0/src/Qspi_Ip_Sfdp.o
 .debug_info    0x002bc216      0x170 obj/external/ThirdParty/Mcal_S32x/Supply/SW32G_RTD_4.4_3.0.4/eclipse/plugins/Mcl_TS_T40D11M30I4R0/src/CDD_Mcl.o
 .debug_info    0x002bc386       0x72 obj/external/ThirdParty/Mcal_S32x/Supply/SW32G_RTD_4.4_3.0.4/eclipse/plugins/Mcl_TS_T40D11M30I4R0/src/Dma_Ip.o
 .debug_info    0x002bc3f8       0x72 obj/external/ThirdParty/Mcal_S32x/Supply/SW32G_RTD_4.4_3.0.4/eclipse/plugins/Mcl_TS_T40D11M30I4R0/src/Dma_Ip_Driver_State.o
 .debug_info    0x002bc46a       0x72 obj/external/ThirdParty/Mcal_S32x/Supply/SW32G_RTD_4.4_3.0.4/eclipse/plugins/Mcl_TS_T40D11M30I4R0/src/Dma_Ip_Hw_Access.o
 .debug_info    0x002bc4dc       0x72 obj/external/ThirdParty/Mcal_S32x/Supply/SW32G_RTD_4.4_3.0.4/eclipse/plugins/Mcl_TS_T40D11M30I4R0/src/Dma_Ip_Irq.o
 .debug_info    0x002bc54e       0x72 obj/external/ThirdParty/Mcal_S32x/Supply/SW32G_RTD_4.4_3.0.4/eclipse/plugins/Mcl_TS_T40D11M30I4R0/src/Dma_Ip_Multicore.o
 .debug_info    0x002bc5c0       0x72 obj/external/ThirdParty/Mcal_S32x/Supply/SW32G_RTD_4.4_3.0.4/eclipse/plugins/Mcl_TS_T40D11M30I4R0/src/Ftm_Mcl_Ip.o
 .debug_info    0x002bc632     0x27d9 obj/external/ThirdParty/Mcal_S32x/Supply/SW32G_RTD_4.4_3.0.4/eclipse/plugins/Mcu_TS_T40D11M30I4R0/src/Clock_Ip.o
 .debug_info    0x002bee0b     0x2c35 obj/external/ThirdParty/Mcal_S32x/Supply/SW32G_RTD_4.4_3.0.4/eclipse/plugins/Mcu_TS_T40D11M30I4R0/src/Clock_Ip_Data.o
 .debug_info    0x002c1a40     0x1cdf obj/external/ThirdParty/Mcal_S32x/Supply/SW32G_RTD_4.4_3.0.4/eclipse/plugins/Mcu_TS_T40D11M30I4R0/src/Clock_Ip_Data1.o
 .debug_info    0x002c371f     0x1cdf obj/external/ThirdParty/Mcal_S32x/Supply/SW32G_RTD_4.4_3.0.4/eclipse/plugins/Mcu_TS_T40D11M30I4R0/src/Clock_Ip_Data2.o
 .debug_info    0x002c53fe     0x1fe6 obj/external/ThirdParty/Mcal_S32x/Supply/SW32G_RTD_4.4_3.0.4/eclipse/plugins/Mcu_TS_T40D11M30I4R0/src/Clock_Ip_Divider.o
 .debug_info    0x002c73e4     0x1d22 obj/external/ThirdParty/Mcal_S32x/Supply/SW32G_RTD_4.4_3.0.4/eclipse/plugins/Mcu_TS_T40D11M30I4R0/src/Clock_Ip_DividerTrigger.o
 .debug_info    0x002c9106     0x1fa6 obj/external/ThirdParty/Mcal_S32x/Supply/SW32G_RTD_4.4_3.0.4/eclipse/plugins/Mcu_TS_T40D11M30I4R0/src/Clock_Ip_ExtOsc.o
 .debug_info    0x002cb0ac     0x1fba obj/external/ThirdParty/Mcal_S32x/Supply/SW32G_RTD_4.4_3.0.4/eclipse/plugins/Mcu_TS_T40D11M30I4R0/src/Clock_Ip_FracDiv.o
 .debug_info    0x002cd066     0x1cdf obj/external/ThirdParty/Mcal_S32x/Supply/SW32G_RTD_4.4_3.0.4/eclipse/plugins/Mcu_TS_T40D11M30I4R0/src/Clock_Ip_Frequency.o
 .debug_info    0x002ced45     0x1cdf obj/external/ThirdParty/Mcal_S32x/Supply/SW32G_RTD_4.4_3.0.4/eclipse/plugins/Mcu_TS_T40D11M30I4R0/src/Clock_Ip_Frequency1.o
 .debug_info    0x002d0a24     0x1cdf obj/external/ThirdParty/Mcal_S32x/Supply/SW32G_RTD_4.4_3.0.4/eclipse/plugins/Mcu_TS_T40D11M30I4R0/src/Clock_Ip_Frequency2.o
 .debug_info    0x002d2703     0x1fa0 obj/external/ThirdParty/Mcal_S32x/Supply/SW32G_RTD_4.4_3.0.4/eclipse/plugins/Mcu_TS_T40D11M30I4R0/src/Clock_Ip_Gate.o
 .debug_info    0x002d46a3     0x1d47 obj/external/ThirdParty/Mcal_S32x/Supply/SW32G_RTD_4.4_3.0.4/eclipse/plugins/Mcu_TS_T40D11M30I4R0/src/Clock_Ip_IntOsc.o
 .debug_info    0x002d63ea     0x1d14 obj/external/ThirdParty/Mcal_S32x/Supply/SW32G_RTD_4.4_3.0.4/eclipse/plugins/Mcu_TS_T40D11M30I4R0/src/Clock_Ip_Irq.o
 .debug_info    0x002d80fe     0x2833 obj/external/ThirdParty/Mcal_S32x/Supply/SW32G_RTD_4.4_3.0.4/eclipse/plugins/Mcu_TS_T40D11M30I4R0/src/Clock_Ip_Monitor.o
 .debug_info    0x002da931     0x20fe obj/external/ThirdParty/Mcal_S32x/Supply/SW32G_RTD_4.4_3.0.4/eclipse/plugins/Mcu_TS_T40D11M30I4R0/src/Clock_Ip_Pll.o
 .debug_info    0x002dca2f     0x1f07 obj/external/ThirdParty/Mcal_S32x/Supply/SW32G_RTD_4.4_3.0.4/eclipse/plugins/Mcu_TS_T40D11M30I4R0/src/Clock_Ip_ProgFreqSwitch.o
 .debug_info    0x002de936     0x270a obj/external/ThirdParty/Mcal_S32x/Supply/SW32G_RTD_4.4_3.0.4/eclipse/plugins/Mcu_TS_T40D11M30I4R0/src/Clock_Ip_Selector.o
 .debug_info    0x002e1040     0x237c obj/external/ThirdParty/Mcal_S32x/Supply/SW32G_RTD_4.4_3.0.4/eclipse/plugins/Mcu_TS_T40D11M30I4R0/src/Clock_Ip_Specific.o
 .debug_info    0x002e33bc     0x1cdf obj/external/ThirdParty/Mcal_S32x/Supply/SW32G_RTD_4.4_3.0.4/eclipse/plugins/Mcu_TS_T40D11M30I4R0/src/Clock_Ip_Specific1.o
 .debug_info    0x002e509b     0x1cdf obj/external/ThirdParty/Mcal_S32x/Supply/SW32G_RTD_4.4_3.0.4/eclipse/plugins/Mcu_TS_T40D11M30I4R0/src/Clock_Ip_Specific2.o
 .debug_info    0x002e6d7a     0x176c obj/external/ThirdParty/Mcal_S32x/Supply/SW32G_RTD_4.4_3.0.4/eclipse/plugins/Mcu_TS_T40D11M30I4R0/src/Mcu.o
 .debug_info    0x002e84e6     0x11f0 obj/external/ThirdParty/Mcal_S32x/Supply/SW32G_RTD_4.4_3.0.4/eclipse/plugins/Mcu_TS_T40D11M30I4R0/src/Mcu_Dem_Wrapper.o
 .debug_info    0x002e96d6     0x178d obj/external/ThirdParty/Mcal_S32x/Supply/SW32G_RTD_4.4_3.0.4/eclipse/plugins/Mcu_TS_T40D11M30I4R0/src/Mcu_Ipw.o
 .debug_info    0x002eae63      0x9ad obj/external/ThirdParty/Mcal_S32x/Supply/SW32G_RTD_4.4_3.0.4/eclipse/plugins/Mcu_TS_T40D11M30I4R0/src/Power_Ip.o
 .debug_info    0x002eb810      0x530 obj/external/ThirdParty/Mcal_S32x/Supply/SW32G_RTD_4.4_3.0.4/eclipse/plugins/Mcu_TS_T40D11M30I4R0/src/Power_Ip_CortexA.o
 .debug_info    0x002ebd40      0xaa7 obj/external/ThirdParty/Mcal_S32x/Supply/SW32G_RTD_4.4_3.0.4/eclipse/plugins/Mcu_TS_T40D11M30I4R0/src/Power_Ip_CortexM7.o
 .debug_info    0x002ec7e7     0x12e5 obj/external/ThirdParty/Mcal_S32x/Supply/SW32G_RTD_4.4_3.0.4/eclipse/plugins/Mcu_TS_T40D11M30I4R0/src/Power_Ip_MC_ME.o
 .debug_info    0x002edacc     0x144e obj/external/ThirdParty/Mcal_S32x/Supply/SW32G_RTD_4.4_3.0.4/eclipse/plugins/Mcu_TS_T40D11M30I4R0/src/Power_Ip_MC_RGM.o
 .debug_info    0x002eef1a      0x530 obj/external/ThirdParty/Mcal_S32x/Supply/SW32G_RTD_4.4_3.0.4/eclipse/plugins/Mcu_TS_T40D11M30I4R0/src/Power_Ip_MC_RGM_Irq.o
 .debug_info    0x002ef44a      0x98d obj/external/ThirdParty/Mcal_S32x/Supply/SW32G_RTD_4.4_3.0.4/eclipse/plugins/Mcu_TS_T40D11M30I4R0/src/Power_Ip_MSCM.o
 .debug_info    0x002efdd7      0x679 obj/external/ThirdParty/Mcal_S32x/Supply/SW32G_RTD_4.4_3.0.4/eclipse/plugins/Mcu_TS_T40D11M30I4R0/src/Power_Ip_PMC.o
 .debug_info    0x002f0450      0x73a obj/external/ThirdParty/Mcal_S32x/Supply/SW32G_RTD_4.4_3.0.4/eclipse/plugins/Mcu_TS_T40D11M30I4R0/src/Power_Ip_Private.o
 .debug_info    0x002f0b8a      0x20c obj/external/ThirdParty/Mcal_S32x/Supply/SW32G_RTD_4.4_3.0.4/eclipse/plugins/Mcu_TS_T40D11M30I4R0/src/Ram_Ip.o
 .debug_info    0x002f0d96     0x22cf obj/external/ThirdParty/Mcal_S32x/Supply/SW32G_RTD_4.4_3.0.4/eclipse/plugins/Port_TS_T40D11M30I4R0/src/Port.o
 .debug_info    0x002f3065     0x2ba3 obj/external/ThirdParty/Mcal_S32x/Supply/SW32G_RTD_4.4_3.0.4/eclipse/plugins/Port_TS_T40D11M30I4R0/src/Port_Ipw.o
 .debug_info    0x002f5c08     0x226a obj/external/ThirdParty/Mcal_S32x/Supply/SW32G_RTD_4.4_3.0.4/eclipse/plugins/Port_TS_T40D11M30I4R0/src/Siul2_Port_Ip.o
 .debug_info    0x002f7e72     0xb51c obj/external/ap-cp-gateway/Appl/GenData/BswM_Lcfg.o
 .debug_info    0x0030338e     0x2cb5 obj/external/ap-cp-gateway/Appl/GenData/CanIf_Lcfg.o
 .debug_info    0x00306043     0x18cf obj/external/ap-cp-gateway/Appl/GenData/CanIf_PBcfg.o
 .debug_info    0x00307912     0x2851 obj/external/ap-cp-gateway/Appl/GenData/CanNm_Cfg.o
 .debug_info    0x0030a163      0xc6d obj/external/ap-cp-gateway/Appl/GenData/CanNm_Lcfg.o
 .debug_info    0x0030add0      0xc6d obj/external/ap-cp-gateway/Appl/GenData/CanNm_PBcfg.o
 .debug_info    0x0030ba3d     0x1a23 obj/external/ap-cp-gateway/Appl/GenData/CanSM_Lcfg.o
 .debug_info    0x0030d460     0x1eca obj/external/ap-cp-gateway/Appl/GenData/CanTp_Lcfg.o
 .debug_info    0x0030f32a     0x18f6 obj/external/ap-cp-gateway/Appl/GenData/CanTp_PBcfg.o
 .debug_info    0x00310c20     0x1a07 obj/external/ap-cp-gateway/Appl/GenData/CanXcp_Lcfg.o
 .debug_info    0x00312627      0xe52 obj/external/ap-cp-gateway/Appl/GenData/Can_30_Flexcan4_Lcfg.o
 .debug_info    0x00313479      0xd32 obj/external/ap-cp-gateway/Appl/GenData/Can_30_Flexcan4_PBcfg.o
 .debug_info    0x003141ab     0x20fa obj/external/ap-cp-gateway/Appl/GenData/ComM_Lcfg.o
 .debug_info    0x003162a5     0x1b9d obj/external/ap-cp-gateway/Appl/GenData/Com_Lcfg.o
 .debug_info    0x00317e42       0x6b obj/external/ap-cp-gateway/Appl/GenData/Com_PBcfg.o
 .debug_info    0x00317ead     0x5756 obj/external/ap-cp-gateway/Appl/GenData/Dcm_Lcfg.o
 .debug_info    0x0031d603     0x3616 obj/external/ap-cp-gateway/Appl/GenData/Dcm_PBcfg.o
 .debug_info    0x00320c19     0x1952 obj/external/ap-cp-gateway/Appl/GenData/Dem_Lcfg.o
 .debug_info    0x0032256b     0x1645 obj/external/ap-cp-gateway/Appl/GenData/Dem_PBcfg.o
 .debug_info    0x00323bb0       0xf5 obj/external/ap-cp-gateway/Appl/GenData/Det_Cfg.o
 .debug_info    0x00323ca5     0x1a2f obj/external/ap-cp-gateway/Appl/GenData/EcuM_Cfg.o
 .debug_info    0x003256d4       0x6b obj/external/ap-cp-gateway/Appl/GenData/EcuM_Init_Cfg.o
 .debug_info    0x0032573f       0x6b obj/external/ap-cp-gateway/Appl/GenData/EcuM_Init_PBcfg.o
 .debug_info    0x003257aa       0x6b obj/external/ap-cp-gateway/Appl/GenData/EcuM_PBcfg.o
 .debug_info    0x00325815     0x2141 obj/external/ap-cp-gateway/Appl/GenData/Fee_Lcfg.o
 .debug_info    0x00327956      0xa5e obj/external/ap-cp-gateway/Appl/GenData/IpduM_Lcfg.o
 .debug_info    0x003283b4       0x6b obj/external/ap-cp-gateway/Appl/GenData/IpduM_PBcfg.o
 .debug_info    0x0032841f      0x3ad obj/external/ap-cp-gateway/Appl/GenData/MemIf_Cfg.o
 .debug_info    0x003287cc     0x15f7 obj/external/ap-cp-gateway/Appl/GenData/Nm_Cfg.o
 .debug_info    0x00329dc3      0x423 obj/external/ap-cp-gateway/Appl/GenData/Nm_Lcfg.o
 .debug_info    0x0032a1e6     0x2017 obj/external/ap-cp-gateway/Appl/GenData/NvM_Cfg.o
 .debug_info    0x0032c1fd     0x4b6d obj/external/ap-cp-gateway/Appl/GenData/Os_AccessCheck_Lcfg.o
 .debug_info    0x00330d6a     0x4c31 obj/external/ap-cp-gateway/Appl/GenData/Os_Alarm_Lcfg.o
 .debug_info    0x0033599b     0x4cc5 obj/external/ap-cp-gateway/Appl/GenData/Os_Application_Lcfg.o
 .debug_info    0x0033a660     0x4ba6 obj/external/ap-cp-gateway/Appl/GenData/Os_Barrier_Lcfg.o
 .debug_info    0x0033f206     0x4e11 obj/external/ap-cp-gateway/Appl/GenData/Os_Core_Lcfg.o
 .debug_info    0x00344017     0x4bcd obj/external/ap-cp-gateway/Appl/GenData/Os_Counter_Lcfg.o
 .debug_info    0x00348be4     0x4c07 obj/external/ap-cp-gateway/Appl/GenData/Os_Error_Lcfg.o
 .debug_info    0x0034d7eb     0x4e21 obj/external/ap-cp-gateway/Appl/GenData/Os_Hal_Context_Lcfg.o
 .debug_info    0x0035260c     0x4e0c obj/external/ap-cp-gateway/Appl/GenData/Os_Hal_Core_Lcfg.o
 .debug_info    0x00357418     0x4c63 obj/external/ap-cp-gateway/Appl/GenData/Os_Hal_Entry_Lcfg.o
 .debug_info    0x0035c07b     0x4beb obj/external/ap-cp-gateway/Appl/GenData/Os_Hal_Interrupt_Lcfg.o
 .debug_info    0x00360c66     0x4d69 obj/external/ap-cp-gateway/Appl/GenData/Os_Hal_Kernel_Lcfg.o
 .debug_info    0x003659cf     0x4b0a obj/external/ap-cp-gateway/Appl/GenData/Os_Hal_MemoryProtection_Lcfg.o
 .debug_info    0x0036a4d9     0x4b79 obj/external/ap-cp-gateway/Appl/GenData/Os_Hal_Timer_Lcfg.o
 .debug_info    0x0036f052     0x4daa obj/external/ap-cp-gateway/Appl/GenData/Os_Hook_Lcfg.o
 .debug_info    0x00373dfc     0x4b0a obj/external/ap-cp-gateway/Appl/GenData/Os_Ioc_Lcfg.o
 .debug_info    0x00378906     0x4ddc obj/external/ap-cp-gateway/Appl/GenData/Os_Isr_Lcfg.o
 .debug_info    0x0037d6e2     0x4b0a obj/external/ap-cp-gateway/Appl/GenData/Os_MemoryProtection_Lcfg.o
 .debug_info    0x003821ec     0x4b6d obj/external/ap-cp-gateway/Appl/GenData/Os_Peripheral_Lcfg.o
 .debug_info    0x00386d59     0x4bc1 obj/external/ap-cp-gateway/Appl/GenData/Os_Resource_Lcfg.o
 .debug_info    0x0038b91a     0x4b6d obj/external/ap-cp-gateway/Appl/GenData/Os_ScheduleTable_Lcfg.o
 .debug_info    0x00390487     0x4cae obj/external/ap-cp-gateway/Appl/GenData/Os_Scheduler_Lcfg.o
 .debug_info    0x00395135     0x4cd8 obj/external/ap-cp-gateway/Appl/GenData/Os_ServiceFunction_Lcfg.o
 .debug_info    0x00399e0d     0x4b6d obj/external/ap-cp-gateway/Appl/GenData/Os_Spinlock_Lcfg.o
 .debug_info    0x0039e97a     0x4c5b obj/external/ap-cp-gateway/Appl/GenData/Os_Stack_Lcfg.o
 .debug_info    0x003a35d5     0x4dfe obj/external/ap-cp-gateway/Appl/GenData/Os_Task_Lcfg.o
 .debug_info    0x003a83d3     0x4b0a obj/external/ap-cp-gateway/Appl/GenData/Os_TimingProtection_Lcfg.o
 .debug_info    0x003acedd     0x4b0a obj/external/ap-cp-gateway/Appl/GenData/Os_Trace_Lcfg.o
 .debug_info    0x003b19e7     0x4b6d obj/external/ap-cp-gateway/Appl/GenData/Os_XSignal_Lcfg.o
 .debug_info    0x003b6554     0x4c03 obj/external/ap-cp-gateway/Appl/GenData/PduR_Lcfg.o
 .debug_info    0x003bb157     0x31e4 obj/external/ap-cp-gateway/Appl/GenData/PduR_PBcfg.o
 .debug_info    0x003be33b     0x2a6f obj/external/ap-cp-gateway/Appl/GenData/Rte.o
 .debug_info    0x003c0daa      0x730 obj/external/ap-cp-gateway/Appl/GenData/Xcp_Lcfg.o
 .debug_info    0x003c14da       0xfd obj/external/ap-cp-gateway/Appl/GenData/src/CDD_Mcl_Cfg.o
 .debug_info    0x003c15d7      0x123 obj/external/ap-cp-gateway/Appl/GenData/src/CDD_Mcl_PBcfg.o
 .debug_info    0x003c16fa     0x1cdf obj/external/ap-cp-gateway/Appl/GenData/src/Clock_Ip_Cfg.o
 .debug_info    0x003c33d9     0x1cf9 obj/external/ap-cp-gateway/Appl/GenData/src/Clock_Ip_PBcfg.o
 .debug_info    0x003c50d2      0x294 obj/external/ap-cp-gateway/Appl/GenData/src/Dio_Cfg.o
 .debug_info    0x003c5366       0x72 obj/external/ap-cp-gateway/Appl/GenData/src/Dma_Ip_Cfg.o
 .debug_info    0x003c53d8       0x72 obj/external/ap-cp-gateway/Appl/GenData/src/Dma_Ip_PBcfg.o
 .debug_info    0x003c544a      0xe73 obj/external/ap-cp-gateway/Appl/GenData/src/Fls_Cfg.o
 .debug_info    0x003c62bd      0xfd1 obj/external/ap-cp-gateway/Appl/GenData/src/Fls_PBcfg.o
 .debug_info    0x003c728e     0x1325 obj/external/ap-cp-gateway/Appl/GenData/src/Mcu_Cfg.o
 .debug_info    0x003c85b3     0x133f obj/external/ap-cp-gateway/Appl/GenData/src/Mcu_PBcfg.o
 .debug_info    0x003c98f2       0x72 obj/external/ap-cp-gateway/Appl/GenData/src/OsIf_Cfg.o
 .debug_info    0x003c9964     0x2047 obj/external/ap-cp-gateway/Appl/GenData/src/Port_Cfg.o
 .debug_info    0x003cb9ab     0x1ff2 obj/external/ap-cp-gateway/Appl/GenData/src/Port_PBcfg.o
 .debug_info    0x003cd99d      0x530 obj/external/ap-cp-gateway/Appl/GenData/src/Power_Ip_Cfg.o
 .debug_info    0x003cdecd      0x6d7 obj/external/ap-cp-gateway/Appl/GenData/src/Power_Ip_PBcfg.o
 .debug_info    0x003ce5a4      0xb63 obj/external/ap-cp-gateway/Appl/GenData/src/Qspi_Ip_PBcfg.o
 .debug_info    0x003cf107      0x14e obj/external/ap-cp-gateway/Appl/GenData/src/Ram_Ip_Cfg.o
 .debug_info    0x003cf255      0x14e obj/external/ap-cp-gateway/Appl/GenData/src/Ram_Ip_PBcfg.o
 .debug_info    0x003cf3a3     0x1aed obj/external/ap-cp-gateway/Appl/GenData/src/Siul2_Port_Ip_PBcfg.o
 .debug_info    0x003d0e90      0x1ce obj/external/ap-cp-gateway/Appl/GenData/vBrs_Lcfg.o
 .debug_info    0x003d105e      0x811 obj/external/ap-cp-gateway/Appl/GenData/vLinkGen_Lcfg.o
 .debug_info    0x003d186f      0x13c obj/external/ap-cp-gateway/Appl/Source/ARMBrsHwIntTb_CortexM.o
 .debug_info    0x003d19ab      0x275 obj/external/ap-cp-gateway/Appl/Source/ARMBrsHw_CortexM.o
 .debug_info    0x003d1c20      0x790 obj/external/ap-cp-gateway/Appl/Source/ARMStartup_CortexM.o
 .debug_info    0x003d23b0      0x221 obj/external/ap-cp-gateway/Appl/Source/BrsHw.o
 .debug_info    0x003d25d1     0x1280 obj/external/ap-cp-gateway/Appl/Source/BrsMain.o
 .debug_info    0x003d3851      0x9fb obj/external/ap-cp-gateway/Appl/Source/BrsMainStartup.o
 .debug_info    0x003d424c      0x1a0 obj/external/ap-cp-gateway/Appl/Source/BrsMain_Callout_Stubs.o
 .debug_info    0x003d43ec     0x100d obj/external/ap-cp-gateway/Appl/Source/BswInit.o
 .debug_info    0x003d53f9     0xa109 obj/external/ap-cp-gateway/Appl/Source/BswM_Callout_Stubs.o
 .debug_info    0x003df502     0x35e4 obj/external/ap-cp-gateway/Appl/Source/Dcm_Callout_Stubs.o
 .debug_info    0x003e2ae6     0xd86a obj/external/ap-cp-gateway/Appl/Source/EcuM_Callout_Stubs.o
 .debug_info    0x003f0350      0x60f obj/external/ap-cp-gateway/Appl/Source/Os_Callout_Stubs.o
 .debug_info    0x003f095f     0x114c obj/external/ap-cp-gateway/Appl/Source/XcpAppl.o
 .debug_info    0x003f1aab     0x10bb obj/external/ap-cp-gateway/Appl/Source/ipc-shm/Cdd_Ipc.o
 .debug_info    0x003f2b66      0xd98 obj/external/ap-cp-gateway/Appl/Source/ipc-shm/Cdd_Ipc_Lcfg.o
 .debug_info    0x003f38fe      0xba9 obj/external/ap-cp-gateway/Appl/Source/ipc-shm/common/ipc-queue.o
 .debug_info    0x003f44a7     0x27fa obj/external/ap-cp-gateway/Appl/Source/ipc-shm/common/ipc-shm.o
 .debug_info    0x003f6ca1     0x1e17 obj/external/ap-cp-gateway/Appl/Source/ipc-shm/hw/s32gen1/ipc-hw-s32gen1.o
 .debug_info    0x003f8ab8     0x1306 obj/external/ap-cp-gateway/Appl/Source/ipc-shm/os/autosar/ipc-os-autosar.o

.debug_abbrev   0x00000000    0x2c85b
 .debug_abbrev  0x00000000       0x14 obj/external/Components/Os/Implementation/Os_Hal_Compiler_TiInt.o
 .debug_abbrev  0x00000014       0x14 obj/external/Components/Os/Implementation/Os_Hal_ContextAsm.o
 .debug_abbrev  0x00000028       0x14 obj/external/ap-cp-gateway/Appl/GenData/Os_Hal_EntryAsm_Lcfg.o
 .debug_abbrev  0x0000003c      0x4e1 obj/external/Components/BswM/Implementation/BswM.o
 .debug_abbrev  0x0000051d      0x3d5 obj/external/Components/CanIf/Implementation/CanIf.o
 .debug_abbrev  0x000008f2      0x395 obj/external/Components/CanNm/Implementation/CanNm.o
 .debug_abbrev  0x00000c87      0x310 obj/external/Components/CanSM/Implementation/CanSM.o
 .debug_abbrev  0x00000f97      0x3ee obj/external/Components/CanTp/Implementation/CanTp.o
 .debug_abbrev  0x00001385      0x2d9 obj/external/Components/CanXcp/Implementation/CanXcp.o
 .debug_abbrev  0x0000165e      0x466 obj/external/Components/Can_30_Flexcan4/Implementation/Can_30_Flexcan4.o
 .debug_abbrev  0x00001ac4       0xc5 obj/external/Components/Can_30_Flexcan4/Implementation/Can_30_Flexcan4_Irq.o
 .debug_abbrev  0x00001b89      0x27e obj/external/Components/Com/Implementation/Com.o
 .debug_abbrev  0x00001e07      0x23b obj/external/Components/Com/Implementation/Com_Buffers.o
 .debug_abbrev  0x00002042       0xe0 obj/external/Components/Com/Implementation/Com_CprQueue.o
 .debug_abbrev  0x00002122       0xe0 obj/external/Components/Com/Implementation/Com_CprQueueDescrGw.o
 .debug_abbrev  0x00002202       0xe0 obj/external/Components/Com/Implementation/Com_CprQueueSigGw.o
 .debug_abbrev  0x000022e2       0xe0 obj/external/Components/Com/Implementation/Com_DescriptionGateway.o
 .debug_abbrev  0x000023c2      0x212 obj/external/Components/Com/Implementation/Com_Deserializer.o
 .debug_abbrev  0x000025d4      0x29f obj/external/Components/Com/Implementation/Com_IPduGroupHdlr.o
 .debug_abbrev  0x00002873      0x23b obj/external/Components/Com/Implementation/Com_LLIf.o
 .debug_abbrev  0x00002aae      0x21c obj/external/Components/Com/Implementation/Com_LMgt.o
 .debug_abbrev  0x00002cca      0x172 obj/external/Components/Com/Implementation/Com_MainFunctions.o
 .debug_abbrev  0x00002e3c       0xe0 obj/external/Components/Com/Implementation/Com_Notifications.o
 .debug_abbrev  0x00002f1c       0xe0 obj/external/Components/Com/Implementation/Com_RxInv.o
 .debug_abbrev  0x00002ffc      0x2f0 obj/external/Components/Com/Implementation/Com_RxProcessing.o
 .debug_abbrev  0x000032ec      0x1c4 obj/external/Components/Com/Implementation/Com_Serializer.o
 .debug_abbrev  0x000034b0       0xe0 obj/external/Components/Com/Implementation/Com_SignalFilterHdlr.o
 .debug_abbrev  0x00003590       0xe0 obj/external/Components/Com/Implementation/Com_SignalGateway.o
 .debug_abbrev  0x00003670      0x229 obj/external/Components/Com/Implementation/Com_SignalIf.o
 .debug_abbrev  0x00003899       0xe0 obj/external/Components/Com/Implementation/Com_Timer.o
 .debug_abbrev  0x00003979      0x244 obj/external/Components/Com/Implementation/Com_TxModeHdlr.o
 .debug_abbrev  0x00003bbd      0x2df obj/external/Components/ComM/Implementation/ComM.o
 .debug_abbrev  0x00003e9c      0x116 obj/external/Components/Crc/Implementation/Crc.o
 .debug_abbrev  0x00003fb2      0x614 obj/external/Components/Dcm/Implementation/Dcm.o
 .debug_abbrev  0x000045c6       0x1b obj/external/Components/Dcm/Implementation/Dcm_AuthMgr.o
 .debug_abbrev  0x000045e1      0x247 obj/external/Components/Dcm/Implementation/Dcm_CfgWrap.o
 .debug_abbrev  0x00004828      0x2ab obj/external/Components/Dcm/Implementation/Dcm_Debug.o
 .debug_abbrev  0x00004ad3      0x35a obj/external/Components/Dcm/Implementation/Dcm_DemIf.o
 .debug_abbrev  0x00004e2d       0x1b obj/external/Components/Dcm/Implementation/Dcm_Diag.o
 .debug_abbrev  0x00004e48      0x4df obj/external/Components/Dcm/Implementation/Dcm_DidMgr.o
 .debug_abbrev  0x00005327      0x27d obj/external/Components/Dcm/Implementation/Dcm_Ext.o
 .debug_abbrev  0x000055a4       0x1b obj/external/Components/Dcm/Implementation/Dcm_FblMgr.o
 .debug_abbrev  0x000055bf      0x455 obj/external/Components/Dcm/Implementation/Dcm_MemMgr.o
 .debug_abbrev  0x00005a14      0x3cd obj/external/Components/Dcm/Implementation/Dcm_Mode.o
 .debug_abbrev  0x00005de1      0x247 obj/external/Components/Dcm/Implementation/Dcm_Net.o
 .debug_abbrev  0x00006028       0x1b obj/external/Components/Dcm/Implementation/Dcm_ObdDtcMgr.o
 .debug_abbrev  0x00006043      0x321 obj/external/Components/Dcm/Implementation/Dcm_ObdIdMgr.o
 .debug_abbrev  0x00006364      0x247 obj/external/Components/Dcm/Implementation/Dcm_PagedBuffer.o
 .debug_abbrev  0x000065ab      0x431 obj/external/Components/Dcm/Implementation/Dcm_Repeater.o
 .debug_abbrev  0x000069dc      0x479 obj/external/Components/Dcm/Implementation/Dcm_RidMgr.o
 .debug_abbrev  0x00006e55      0x3ed obj/external/Components/Dcm/Implementation/Dcm_RsrcMgr.o
 .debug_abbrev  0x00007242      0x4a3 obj/external/Components/Dcm/Implementation/Dcm_State.o
 .debug_abbrev  0x000076e5       0x1b obj/external/Components/Dcm/Implementation/Dcm_Svc01.o
 .debug_abbrev  0x00007700       0x1b obj/external/Components/Dcm/Implementation/Dcm_Svc02.o
 .debug_abbrev  0x0000771b       0x1b obj/external/Components/Dcm/Implementation/Dcm_Svc03.o
 .debug_abbrev  0x00007736       0x1b obj/external/Components/Dcm/Implementation/Dcm_Svc04.o
 .debug_abbrev  0x00007751       0x1b obj/external/Components/Dcm/Implementation/Dcm_Svc06.o
 .debug_abbrev  0x0000776c       0x1b obj/external/Components/Dcm/Implementation/Dcm_Svc07.o
 .debug_abbrev  0x00007787       0x1b obj/external/Components/Dcm/Implementation/Dcm_Svc08.o
 .debug_abbrev  0x000077a2       0x1b obj/external/Components/Dcm/Implementation/Dcm_Svc09.o
 .debug_abbrev  0x000077bd       0x1b obj/external/Components/Dcm/Implementation/Dcm_Svc0A.o
 .debug_abbrev  0x000077d8      0x414 obj/external/Components/Dcm/Implementation/Dcm_Svc11.o
 .debug_abbrev  0x00007bec      0x452 obj/external/Components/Dcm/Implementation/Dcm_Svc14.o
 .debug_abbrev  0x0000803e      0x4c5 obj/external/Components/Dcm/Implementation/Dcm_Svc19.o
 .debug_abbrev  0x00008503      0x442 obj/external/Components/Dcm/Implementation/Dcm_Svc19Uti.o
 .debug_abbrev  0x00008945      0x431 obj/external/Components/Dcm/Implementation/Dcm_Svc22.o
 .debug_abbrev  0x00008d76      0x44a obj/external/Components/Dcm/Implementation/Dcm_Svc23.o
 .debug_abbrev  0x000091c0       0x1b obj/external/Components/Dcm/Implementation/Dcm_Svc24.o
 .debug_abbrev  0x000091db      0x4a5 obj/external/Components/Dcm/Implementation/Dcm_Svc27.o
 .debug_abbrev  0x00009680      0x482 obj/external/Components/Dcm/Implementation/Dcm_Svc28.o
 .debug_abbrev  0x00009b02       0x1b obj/external/Components/Dcm/Implementation/Dcm_Svc29.o
 .debug_abbrev  0x00009b1d      0x41a obj/external/Components/Dcm/Implementation/Dcm_Svc2A.o
 .debug_abbrev  0x00009f37      0x4e3 obj/external/Components/Dcm/Implementation/Dcm_Svc2ASchd.o
 .debug_abbrev  0x0000a41a      0x44e obj/external/Components/Dcm/Implementation/Dcm_Svc2E.o
 .debug_abbrev  0x0000a868      0x43e obj/external/Components/Dcm/Implementation/Dcm_Svc2F.o
 .debug_abbrev  0x0000aca6      0x46c obj/external/Components/Dcm/Implementation/Dcm_Svc31.o
 .debug_abbrev  0x0000b112       0x1b obj/external/Components/Dcm/Implementation/Dcm_Svc34.o
 .debug_abbrev  0x0000b12d       0x1b obj/external/Components/Dcm/Implementation/Dcm_Svc36.o
 .debug_abbrev  0x0000b148       0x1b obj/external/Components/Dcm/Implementation/Dcm_Svc37.o
 .debug_abbrev  0x0000b163      0x438 obj/external/Components/Dcm/Implementation/Dcm_Svc3D.o
 .debug_abbrev  0x0000b59b      0x2e6 obj/external/Components/Dcm/Implementation/Dcm_Svc3E.o
 .debug_abbrev  0x0000b881      0x498 obj/external/Components/Dcm/Implementation/Dcm_Svc85.o
 .debug_abbrev  0x0000bd19      0x41e obj/external/Components/Dcm/Implementation/Dcm_Tmr.o
 .debug_abbrev  0x0000c137      0x466 obj/external/Components/Dcm/Implementation/Dcm_Tsk.o
 .debug_abbrev  0x0000c59d      0x42e obj/external/Components/Dcm/Implementation/Dcm_Uti.o
 .debug_abbrev  0x0000c9cb      0x265 obj/external/Components/Dcm/Implementation/Dcm_VarMgr.o
 .debug_abbrev  0x0000cc30      0x739 obj/external/Components/Dem/Implementation/Dem.o
 .debug_abbrev  0x0000d369      0x188 obj/external/Components/Det/Implementation/Det.o
 .debug_abbrev  0x0000d4f1      0x4ad obj/external/Components/EcuM/Implementation/EcuM.o
 .debug_abbrev  0x0000d99e      0x519 obj/external/Components/Fee/Implementation/Fee.o
 .debug_abbrev  0x0000deb7      0x2ea obj/external/Components/Fee/Implementation/Fee_ChunkInfo.o
 .debug_abbrev  0x0000e1a1      0x246 obj/external/Components/Fee/Implementation/Fee_LookUpTable.o
 .debug_abbrev  0x0000e3e7      0x35d obj/external/Components/Fee/Implementation/Fee_Partition.o
 .debug_abbrev  0x0000e744      0x59e obj/external/Components/Fee/Implementation/Fee_Processing.o
 .debug_abbrev  0x0000ece2      0x390 obj/external/Components/Fee/Implementation/Fee_Sector.o
 .debug_abbrev  0x0000f072      0x216 obj/external/Components/IpduM/Implementation/IpduM.o
 .debug_abbrev  0x0000f288      0x311 obj/external/Components/IpduM/Implementation/IpduM_Container.o
 .debug_abbrev  0x0000f599       0xc2 obj/external/Components/IpduM/Implementation/IpduM_Mux.o
 .debug_abbrev  0x0000f65b      0x2b0 obj/external/Components/MemIf/Implementation/MemIf.o
 .debug_abbrev  0x0000f90b      0x278 obj/external/Components/Nm/Implementation/Nm.o
 .debug_abbrev  0x0000fb83      0x319 obj/external/Components/NvM/Implementation/NvM.o
 .debug_abbrev  0x0000fe9c      0x352 obj/external/Components/NvM/Implementation/NvM_Act.o
 .debug_abbrev  0x000101ee      0x290 obj/external/Components/NvM/Implementation/NvM_Crc.o
 .debug_abbrev  0x0001047e      0x29e obj/external/Components/NvM/Implementation/NvM_DataIntegrity.o
 .debug_abbrev  0x0001071c      0x246 obj/external/Components/NvM/Implementation/NvM_JobProc.o
 .debug_abbrev  0x00010962      0x15f obj/external/Components/NvM/Implementation/NvM_Mac.o
 .debug_abbrev  0x00010ac1      0x245 obj/external/Components/NvM/Implementation/NvM_MemIfAbstraction.o
 .debug_abbrev  0x00010d06       0x74 obj/external/Components/NvM/Implementation/NvM_MemIfMemoryCore.o
 .debug_abbrev  0x00010d7a      0x286 obj/external/Components/NvM/Implementation/NvM_Qry.o
 .debug_abbrev  0x00011000      0x344 obj/external/Components/NvM/Implementation/NvM_Queue.o
 .debug_abbrev  0x00011344      0x2f9 obj/external/Components/Os/Implementation/Os_AccessCheck.o
 .debug_abbrev  0x0001163d      0x471 obj/external/Components/Os/Implementation/Os_Alarm.o
 .debug_abbrev  0x00011aae      0x528 obj/external/Components/Os/Implementation/Os_Application.o
 .debug_abbrev  0x00011fd6      0x37d obj/external/Components/Os/Implementation/Os_Barrier.o
 .debug_abbrev  0x00012353      0x1ae obj/external/Components/Os/Implementation/Os_Bit.o
 .debug_abbrev  0x00012501      0x1ae obj/external/Components/Os/Implementation/Os_BitArray.o
 .debug_abbrev  0x000126af      0x5db obj/external/Components/Os/Implementation/Os_Core.o
 .debug_abbrev  0x00012c8a      0x526 obj/external/Components/Os/Implementation/Os_Counter.o
 .debug_abbrev  0x000131b0      0x1ae obj/external/Components/Os/Implementation/Os_Deque.o
 .debug_abbrev  0x0001335e      0x4a2 obj/external/Components/Os/Implementation/Os_Error.o
 .debug_abbrev  0x00013800      0x4b5 obj/external/Components/Os/Implementation/Os_Event.o
 .debug_abbrev  0x00013cb5      0x1ae obj/external/Components/Os/Implementation/Os_Fifo.o
 .debug_abbrev  0x00013e63      0x1ae obj/external/Components/Os/Implementation/Os_Fifo08.o
 .debug_abbrev  0x00014011      0x1ae obj/external/Components/Os/Implementation/Os_Fifo16.o
 .debug_abbrev  0x000141bf      0x1ae obj/external/Components/Os/Implementation/Os_Fifo32.o
 .debug_abbrev  0x0001436d      0x1ae obj/external/Components/Os/Implementation/Os_FifoRef.o
 .debug_abbrev  0x0001451b       0x1b obj/external/Components/Os/Implementation/Os_Hal_Compiler_Arm.o
 .debug_abbrev  0x00014536       0x1b obj/external/Components/Os/Implementation/Os_Hal_Compiler_Iar.o
 .debug_abbrev  0x00014551      0x306 obj/external/Components/Os/Implementation/Os_Hal_Context.o
 .debug_abbrev  0x00014857      0x2ec obj/external/Components/Os/Implementation/Os_Hal_Core.o
 .debug_abbrev  0x00014b43      0x1ae obj/external/Components/Os/Implementation/Os_Hal_Entry.o
 .debug_abbrev  0x00014cf1      0x581 obj/external/Components/Os/Implementation/Os_Hook.o
 .debug_abbrev  0x00015272      0x417 obj/external/Components/Os/Implementation/Os_Interrupt.o
 .debug_abbrev  0x00015689      0x376 obj/external/Components/Os/Implementation/Os_Ioc.o
 .debug_abbrev  0x000159ff      0x590 obj/external/Components/Os/Implementation/Os_Isr.o
 .debug_abbrev  0x00015f8f      0x1ae obj/external/Components/Os/Implementation/Os_Job.o
 .debug_abbrev  0x0001613d      0x1ae obj/external/Components/Os/Implementation/Os_Lock.o
 .debug_abbrev  0x000162eb      0x37d obj/external/Components/Os/Implementation/Os_MemoryProtection.o
 .debug_abbrev  0x00016668      0x389 obj/external/Components/Os/Implementation/Os_Peripheral.o
 .debug_abbrev  0x000169f1      0x39d obj/external/Components/Os/Implementation/Os_PriorityQueue.o
 .debug_abbrev  0x00016d8e      0x4d4 obj/external/Components/Os/Implementation/Os_Resource.o
 .debug_abbrev  0x00017262      0x3d9 obj/external/Components/Os/Implementation/Os_ScheduleTable.o
 .debug_abbrev  0x0001763b      0x418 obj/external/Components/Os/Implementation/Os_Scheduler.o
 .debug_abbrev  0x00017a53      0x3de obj/external/Components/Os/Implementation/Os_ServiceFunction.o
 .debug_abbrev  0x00017e31      0x391 obj/external/Components/Os/Implementation/Os_Spinlock.o
 .debug_abbrev  0x000181c2      0x3b7 obj/external/Components/Os/Implementation/Os_Stack.o
 .debug_abbrev  0x00018579      0x5b2 obj/external/Components/Os/Implementation/Os_Task.o
 .debug_abbrev  0x00018b2b      0x474 obj/external/Components/Os/Implementation/Os_Thread.o
 .debug_abbrev  0x00018f9f      0x3fe obj/external/Components/Os/Implementation/Os_Timer.o
 .debug_abbrev  0x0001939d      0x379 obj/external/Components/Os/Implementation/Os_TimingProtection.o
 .debug_abbrev  0x00019716      0x1ae obj/external/Components/Os/Implementation/Os_Trace.o
 .debug_abbrev  0x000198c4      0x4cd obj/external/Components/Os/Implementation/Os_Trap.o
 .debug_abbrev  0x00019d91      0x4c1 obj/external/Components/Os/Implementation/Os_XSignal.o
 .debug_abbrev  0x0001a252      0x38c obj/external/Components/PduR/Implementation/PduR.o
 .debug_abbrev  0x0001a5de      0x36f obj/external/Components/PduR/Implementation/PduR_Bm.o
 .debug_abbrev  0x0001a94d      0x396 obj/external/Components/PduR/Implementation/PduR_Fm.o
 .debug_abbrev  0x0001ace3      0x1d1 obj/external/Components/PduR/Implementation/PduR_IFQ.o
 .debug_abbrev  0x0001aeb4      0x297 obj/external/Components/PduR/Implementation/PduR_Lock.o
 .debug_abbrev  0x0001b14b      0x1d1 obj/external/Components/PduR/Implementation/PduR_McQ.o
 .debug_abbrev  0x0001b31c      0x3cc obj/external/Components/PduR/Implementation/PduR_RmIf.o
 .debug_abbrev  0x0001b6e8      0x33b obj/external/Components/PduR/Implementation/PduR_RmTp.o
 .debug_abbrev  0x0001ba23      0x1d1 obj/external/Components/PduR/Implementation/PduR_RmTp_TxInst.o
 .debug_abbrev  0x0001bbf4      0x1d1 obj/external/Components/PduR/Implementation/PduR_Sm.o
 .debug_abbrev  0x0001bdc5      0x2e6 obj/external/Components/VStdLib/Implementation/vstdlib.o
 .debug_abbrev  0x0001c0ab      0x418 obj/external/Components/Xcp/Implementation/Xcp.o
 .debug_abbrev  0x0001c4c3       0x26 obj/external/ThirdParty/Mcal_S32x/Supply/SW32G_RTD_4.4_3.0.4/eclipse/plugins/Base_TS_T40D11M30I4R0/src/OsIf_Interrupts.o
 .debug_abbrev  0x0001c4e9      0x165 obj/external/ThirdParty/Mcal_S32x/Supply/SW32G_RTD_4.4_3.0.4/eclipse/plugins/Base_TS_T40D11M30I4R0/src/OsIf_Timer.o
 .debug_abbrev  0x0001c64e       0x26 obj/external/ThirdParty/Mcal_S32x/Supply/SW32G_RTD_4.4_3.0.4/eclipse/plugins/Base_TS_T40D11M30I4R0/src/OsIf_Timer_System.o
 .debug_abbrev  0x0001c674       0x26 obj/external/ThirdParty/Mcal_S32x/Supply/SW32G_RTD_4.4_3.0.4/eclipse/plugins/Base_TS_T40D11M30I4R0/src/OsIf_Timer_System_Internal_Systick.o
 .debug_abbrev  0x0001c69a      0x147 obj/external/ThirdParty/Mcal_S32x/Supply/SW32G_RTD_4.4_3.0.4/eclipse/plugins/Dio_TS_T40D11M30I4R0/src/Dio.o
 .debug_abbrev  0x0001c7e1      0x1d6 obj/external/ThirdParty/Mcal_S32x/Supply/SW32G_RTD_4.4_3.0.4/eclipse/plugins/Dio_TS_T40D11M30I4R0/src/Dio_Ipw.o
 .debug_abbrev  0x0001c9b7      0x2c7 obj/external/ThirdParty/Mcal_S32x/Supply/SW32G_RTD_4.4_3.0.4/eclipse/plugins/Dio_TS_T40D11M30I4R0/src/Siul2_Dio_Ip.o
 .debug_abbrev  0x0001cc7e      0x309 obj/external/ThirdParty/Mcal_S32x/Supply/SW32G_RTD_4.4_3.0.4/eclipse/plugins/Fls_TS_T40D11M30I4R0/src/Fls.o
 .debug_abbrev  0x0001cf87      0x29f obj/external/ThirdParty/Mcal_S32x/Supply/SW32G_RTD_4.4_3.0.4/eclipse/plugins/Fls_TS_T40D11M30I4R0/src/Fls_IPW.o
 .debug_abbrev  0x0001d226      0x3dc obj/external/ThirdParty/Mcal_S32x/Supply/SW32G_RTD_4.4_3.0.4/eclipse/plugins/Fls_TS_T40D11M30I4R0/src/Qspi_Ip.o
 .debug_abbrev  0x0001d602      0x3c5 obj/external/ThirdParty/Mcal_S32x/Supply/SW32G_RTD_4.4_3.0.4/eclipse/plugins/Fls_TS_T40D11M30I4R0/src/Qspi_Ip_Controller.o
 .debug_abbrev  0x0001d9c7      0x3ae obj/external/ThirdParty/Mcal_S32x/Supply/SW32G_RTD_4.4_3.0.4/eclipse/plugins/Fls_TS_T40D11M30I4R0/src/Qspi_Ip_Sfdp.o
 .debug_abbrev  0x0001dd75       0xe1 obj/external/ThirdParty/Mcal_S32x/Supply/SW32G_RTD_4.4_3.0.4/eclipse/plugins/Mcl_TS_T40D11M30I4R0/src/CDD_Mcl.o
 .debug_abbrev  0x0001de56       0x26 obj/external/ThirdParty/Mcal_S32x/Supply/SW32G_RTD_4.4_3.0.4/eclipse/plugins/Mcl_TS_T40D11M30I4R0/src/Dma_Ip.o
 .debug_abbrev  0x0001de7c       0x26 obj/external/ThirdParty/Mcal_S32x/Supply/SW32G_RTD_4.4_3.0.4/eclipse/plugins/Mcl_TS_T40D11M30I4R0/src/Dma_Ip_Driver_State.o
 .debug_abbrev  0x0001dea2       0x26 obj/external/ThirdParty/Mcal_S32x/Supply/SW32G_RTD_4.4_3.0.4/eclipse/plugins/Mcl_TS_T40D11M30I4R0/src/Dma_Ip_Hw_Access.o
 .debug_abbrev  0x0001dec8       0x26 obj/external/ThirdParty/Mcal_S32x/Supply/SW32G_RTD_4.4_3.0.4/eclipse/plugins/Mcl_TS_T40D11M30I4R0/src/Dma_Ip_Irq.o
 .debug_abbrev  0x0001deee       0x26 obj/external/ThirdParty/Mcal_S32x/Supply/SW32G_RTD_4.4_3.0.4/eclipse/plugins/Mcl_TS_T40D11M30I4R0/src/Dma_Ip_Multicore.o
 .debug_abbrev  0x0001df14       0x26 obj/external/ThirdParty/Mcal_S32x/Supply/SW32G_RTD_4.4_3.0.4/eclipse/plugins/Mcl_TS_T40D11M30I4R0/src/Ftm_Mcl_Ip.o
 .debug_abbrev  0x0001df3a      0x31f obj/external/ThirdParty/Mcal_S32x/Supply/SW32G_RTD_4.4_3.0.4/eclipse/plugins/Mcu_TS_T40D11M30I4R0/src/Clock_Ip.o
 .debug_abbrev  0x0001e259      0x19c obj/external/ThirdParty/Mcal_S32x/Supply/SW32G_RTD_4.4_3.0.4/eclipse/plugins/Mcu_TS_T40D11M30I4R0/src/Clock_Ip_Data.o
 .debug_abbrev  0x0001e3f5      0x164 obj/external/ThirdParty/Mcal_S32x/Supply/SW32G_RTD_4.4_3.0.4/eclipse/plugins/Mcu_TS_T40D11M30I4R0/src/Clock_Ip_Data1.o
 .debug_abbrev  0x0001e559      0x164 obj/external/ThirdParty/Mcal_S32x/Supply/SW32G_RTD_4.4_3.0.4/eclipse/plugins/Mcu_TS_T40D11M30I4R0/src/Clock_Ip_Data2.o
 .debug_abbrev  0x0001e6bd      0x212 obj/external/ThirdParty/Mcal_S32x/Supply/SW32G_RTD_4.4_3.0.4/eclipse/plugins/Mcu_TS_T40D11M30I4R0/src/Clock_Ip_Divider.o
 .debug_abbrev  0x0001e8cf      0x1a0 obj/external/ThirdParty/Mcal_S32x/Supply/SW32G_RTD_4.4_3.0.4/eclipse/plugins/Mcu_TS_T40D11M30I4R0/src/Clock_Ip_DividerTrigger.o
 .debug_abbrev  0x0001ea6f      0x212 obj/external/ThirdParty/Mcal_S32x/Supply/SW32G_RTD_4.4_3.0.4/eclipse/plugins/Mcu_TS_T40D11M30I4R0/src/Clock_Ip_ExtOsc.o
 .debug_abbrev  0x0001ec81      0x22e obj/external/ThirdParty/Mcal_S32x/Supply/SW32G_RTD_4.4_3.0.4/eclipse/plugins/Mcu_TS_T40D11M30I4R0/src/Clock_Ip_FracDiv.o
 .debug_abbrev  0x0001eeaf      0x164 obj/external/ThirdParty/Mcal_S32x/Supply/SW32G_RTD_4.4_3.0.4/eclipse/plugins/Mcu_TS_T40D11M30I4R0/src/Clock_Ip_Frequency.o
 .debug_abbrev  0x0001f013      0x164 obj/external/ThirdParty/Mcal_S32x/Supply/SW32G_RTD_4.4_3.0.4/eclipse/plugins/Mcu_TS_T40D11M30I4R0/src/Clock_Ip_Frequency1.o
 .debug_abbrev  0x0001f177      0x164 obj/external/ThirdParty/Mcal_S32x/Supply/SW32G_RTD_4.4_3.0.4/eclipse/plugins/Mcu_TS_T40D11M30I4R0/src/Clock_Ip_Frequency2.o
 .debug_abbrev  0x0001f2db      0x21d obj/external/ThirdParty/Mcal_S32x/Supply/SW32G_RTD_4.4_3.0.4/eclipse/plugins/Mcu_TS_T40D11M30I4R0/src/Clock_Ip_Gate.o
 .debug_abbrev  0x0001f4f8      0x1ba obj/external/ThirdParty/Mcal_S32x/Supply/SW32G_RTD_4.4_3.0.4/eclipse/plugins/Mcu_TS_T40D11M30I4R0/src/Clock_Ip_IntOsc.o
 .debug_abbrev  0x0001f6b2      0x1a2 obj/external/ThirdParty/Mcal_S32x/Supply/SW32G_RTD_4.4_3.0.4/eclipse/plugins/Mcu_TS_T40D11M30I4R0/src/Clock_Ip_Irq.o
 .debug_abbrev  0x0001f854      0x32f obj/external/ThirdParty/Mcal_S32x/Supply/SW32G_RTD_4.4_3.0.4/eclipse/plugins/Mcu_TS_T40D11M30I4R0/src/Clock_Ip_Monitor.o
 .debug_abbrev  0x0001fb83      0x2ae obj/external/ThirdParty/Mcal_S32x/Supply/SW32G_RTD_4.4_3.0.4/eclipse/plugins/Mcu_TS_T40D11M30I4R0/src/Clock_Ip_Pll.o
 .debug_abbrev  0x0001fe31      0x219 obj/external/ThirdParty/Mcal_S32x/Supply/SW32G_RTD_4.4_3.0.4/eclipse/plugins/Mcu_TS_T40D11M30I4R0/src/Clock_Ip_ProgFreqSwitch.o
 .debug_abbrev  0x0002004a      0x2b7 obj/external/ThirdParty/Mcal_S32x/Supply/SW32G_RTD_4.4_3.0.4/eclipse/plugins/Mcu_TS_T40D11M30I4R0/src/Clock_Ip_Selector.o
 .debug_abbrev  0x00020301      0x290 obj/external/ThirdParty/Mcal_S32x/Supply/SW32G_RTD_4.4_3.0.4/eclipse/plugins/Mcu_TS_T40D11M30I4R0/src/Clock_Ip_Specific.o
 .debug_abbrev  0x00020591      0x164 obj/external/ThirdParty/Mcal_S32x/Supply/SW32G_RTD_4.4_3.0.4/eclipse/plugins/Mcu_TS_T40D11M30I4R0/src/Clock_Ip_Specific1.o
 .debug_abbrev  0x000206f5      0x164 obj/external/ThirdParty/Mcal_S32x/Supply/SW32G_RTD_4.4_3.0.4/eclipse/plugins/Mcu_TS_T40D11M30I4R0/src/Clock_Ip_Specific2.o
 .debug_abbrev  0x00020859      0x1b3 obj/external/ThirdParty/Mcal_S32x/Supply/SW32G_RTD_4.4_3.0.4/eclipse/plugins/Mcu_TS_T40D11M30I4R0/src/Mcu.o
 .debug_abbrev  0x00020a0c      0x10d obj/external/ThirdParty/Mcal_S32x/Supply/SW32G_RTD_4.4_3.0.4/eclipse/plugins/Mcu_TS_T40D11M30I4R0/src/Mcu_Dem_Wrapper.o
 .debug_abbrev  0x00020b19      0x1c6 obj/external/ThirdParty/Mcal_S32x/Supply/SW32G_RTD_4.4_3.0.4/eclipse/plugins/Mcu_TS_T40D11M30I4R0/src/Mcu_Ipw.o
 .debug_abbrev  0x00020cdf      0x1d4 obj/external/ThirdParty/Mcal_S32x/Supply/SW32G_RTD_4.4_3.0.4/eclipse/plugins/Mcu_TS_T40D11M30I4R0/src/Power_Ip.o
 .debug_abbrev  0x00020eb3       0xda obj/external/ThirdParty/Mcal_S32x/Supply/SW32G_RTD_4.4_3.0.4/eclipse/plugins/Mcu_TS_T40D11M30I4R0/src/Power_Ip_CortexA.o
 .debug_abbrev  0x00020f8d      0x183 obj/external/ThirdParty/Mcal_S32x/Supply/SW32G_RTD_4.4_3.0.4/eclipse/plugins/Mcu_TS_T40D11M30I4R0/src/Power_Ip_CortexM7.o
 .debug_abbrev  0x00021110      0x284 obj/external/ThirdParty/Mcal_S32x/Supply/SW32G_RTD_4.4_3.0.4/eclipse/plugins/Mcu_TS_T40D11M30I4R0/src/Power_Ip_MC_ME.o
 .debug_abbrev  0x00021394      0x2a4 obj/external/ThirdParty/Mcal_S32x/Supply/SW32G_RTD_4.4_3.0.4/eclipse/plugins/Mcu_TS_T40D11M30I4R0/src/Power_Ip_MC_RGM.o
 .debug_abbrev  0x00021638       0xda obj/external/ThirdParty/Mcal_S32x/Supply/SW32G_RTD_4.4_3.0.4/eclipse/plugins/Mcu_TS_T40D11M30I4R0/src/Power_Ip_MC_RGM_Irq.o
 .debug_abbrev  0x00021712       0xdf obj/external/ThirdParty/Mcal_S32x/Supply/SW32G_RTD_4.4_3.0.4/eclipse/plugins/Mcu_TS_T40D11M30I4R0/src/Power_Ip_MSCM.o
 .debug_abbrev  0x000217f1      0x131 obj/external/ThirdParty/Mcal_S32x/Supply/SW32G_RTD_4.4_3.0.4/eclipse/plugins/Mcu_TS_T40D11M30I4R0/src/Power_Ip_PMC.o
 .debug_abbrev  0x00021922      0x1a0 obj/external/ThirdParty/Mcal_S32x/Supply/SW32G_RTD_4.4_3.0.4/eclipse/plugins/Mcu_TS_T40D11M30I4R0/src/Power_Ip_Private.o
 .debug_abbrev  0x00021ac2       0xf5 obj/external/ThirdParty/Mcal_S32x/Supply/SW32G_RTD_4.4_3.0.4/eclipse/plugins/Mcu_TS_T40D11M30I4R0/src/Ram_Ip.o
 .debug_abbrev  0x00021bb7      0x2b1 obj/external/ThirdParty/Mcal_S32x/Supply/SW32G_RTD_4.4_3.0.4/eclipse/plugins/Port_TS_T40D11M30I4R0/src/Port.o
 .debug_abbrev  0x00021e68      0x319 obj/external/ThirdParty/Mcal_S32x/Supply/SW32G_RTD_4.4_3.0.4/eclipse/plugins/Port_TS_T40D11M30I4R0/src/Port_Ipw.o
 .debug_abbrev  0x00022181      0x2e7 obj/external/ThirdParty/Mcal_S32x/Supply/SW32G_RTD_4.4_3.0.4/eclipse/plugins/Port_TS_T40D11M30I4R0/src/Siul2_Port_Ip.o
 .debug_abbrev  0x00022468      0x491 obj/external/ap-cp-gateway/Appl/GenData/BswM_Lcfg.o
 .debug_abbrev  0x000228f9      0x1cf obj/external/ap-cp-gateway/Appl/GenData/CanIf_Lcfg.o
 .debug_abbrev  0x00022ac8      0x11a obj/external/ap-cp-gateway/Appl/GenData/CanIf_PBcfg.o
 .debug_abbrev  0x00022be2      0x19e obj/external/ap-cp-gateway/Appl/GenData/CanNm_Cfg.o
 .debug_abbrev  0x00022d80       0xa7 obj/external/ap-cp-gateway/Appl/GenData/CanNm_Lcfg.o
 .debug_abbrev  0x00022e27       0xa7 obj/external/ap-cp-gateway/Appl/GenData/CanNm_PBcfg.o
 .debug_abbrev  0x00022ece      0x13a obj/external/ap-cp-gateway/Appl/GenData/CanSM_Lcfg.o
 .debug_abbrev  0x00023008      0x15f obj/external/ap-cp-gateway/Appl/GenData/CanTp_Lcfg.o
 .debug_abbrev  0x00023167      0x11a obj/external/ap-cp-gateway/Appl/GenData/CanTp_PBcfg.o
 .debug_abbrev  0x00023281      0x13c obj/external/ap-cp-gateway/Appl/GenData/CanXcp_Lcfg.o
 .debug_abbrev  0x000233bd       0xb2 obj/external/ap-cp-gateway/Appl/GenData/Can_30_Flexcan4_Lcfg.o
 .debug_abbrev  0x0002346f       0x87 obj/external/ap-cp-gateway/Appl/GenData/Can_30_Flexcan4_PBcfg.o
 .debug_abbrev  0x000234f6      0x1b8 obj/external/ap-cp-gateway/Appl/GenData/ComM_Lcfg.o
 .debug_abbrev  0x000236ae      0x14f obj/external/ap-cp-gateway/Appl/GenData/Com_Lcfg.o
 .debug_abbrev  0x000237fd       0x1b obj/external/ap-cp-gateway/Appl/GenData/Com_PBcfg.o
 .debug_abbrev  0x00023818      0x3f9 obj/external/ap-cp-gateway/Appl/GenData/Dcm_Lcfg.o
 .debug_abbrev  0x00023c11      0x254 obj/external/ap-cp-gateway/Appl/GenData/Dcm_PBcfg.o
 .debug_abbrev  0x00023e65      0x1c8 obj/external/ap-cp-gateway/Appl/GenData/Dem_Lcfg.o
 .debug_abbrev  0x0002402d      0x176 obj/external/ap-cp-gateway/Appl/GenData/Dem_PBcfg.o
 .debug_abbrev  0x000241a3       0x8f obj/external/ap-cp-gateway/Appl/GenData/Det_Cfg.o
 .debug_abbrev  0x00024232      0x191 obj/external/ap-cp-gateway/Appl/GenData/EcuM_Cfg.o
 .debug_abbrev  0x000243c3       0x1b obj/external/ap-cp-gateway/Appl/GenData/EcuM_Init_Cfg.o
 .debug_abbrev  0x000243de       0x1b obj/external/ap-cp-gateway/Appl/GenData/EcuM_Init_PBcfg.o
 .debug_abbrev  0x000243f9       0x1b obj/external/ap-cp-gateway/Appl/GenData/EcuM_PBcfg.o
 .debug_abbrev  0x00024414      0x2b1 obj/external/ap-cp-gateway/Appl/GenData/Fee_Lcfg.o
 .debug_abbrev  0x000246c5      0x143 obj/external/ap-cp-gateway/Appl/GenData/IpduM_Lcfg.o
 .debug_abbrev  0x00024808       0x1b obj/external/ap-cp-gateway/Appl/GenData/IpduM_PBcfg.o
 .debug_abbrev  0x00024823      0x155 obj/external/ap-cp-gateway/Appl/GenData/MemIf_Cfg.o
 .debug_abbrev  0x00024978      0x125 obj/external/ap-cp-gateway/Appl/GenData/Nm_Cfg.o
 .debug_abbrev  0x00024a9d       0xcb obj/external/ap-cp-gateway/Appl/GenData/Nm_Lcfg.o
 .debug_abbrev  0x00024b68      0x278 obj/external/ap-cp-gateway/Appl/GenData/NvM_Cfg.o
 .debug_abbrev  0x00024de0      0x1bd obj/external/ap-cp-gateway/Appl/GenData/Os_AccessCheck_Lcfg.o
 .debug_abbrev  0x00024f9d      0x1ce obj/external/ap-cp-gateway/Appl/GenData/Os_Alarm_Lcfg.o
 .debug_abbrev  0x0002516b      0x1ce obj/external/ap-cp-gateway/Appl/GenData/Os_Application_Lcfg.o
 .debug_abbrev  0x00025339      0x1ce obj/external/ap-cp-gateway/Appl/GenData/Os_Barrier_Lcfg.o
 .debug_abbrev  0x00025507      0x1f3 obj/external/ap-cp-gateway/Appl/GenData/Os_Core_Lcfg.o
 .debug_abbrev  0x000256fa      0x1ce obj/external/ap-cp-gateway/Appl/GenData/Os_Counter_Lcfg.o
 .debug_abbrev  0x000258c8      0x1d3 obj/external/ap-cp-gateway/Appl/GenData/Os_Error_Lcfg.o
 .debug_abbrev  0x00025a9b      0x1d9 obj/external/ap-cp-gateway/Appl/GenData/Os_Hal_Context_Lcfg.o
 .debug_abbrev  0x00025c74      0x1e0 obj/external/ap-cp-gateway/Appl/GenData/Os_Hal_Core_Lcfg.o
 .debug_abbrev  0x00025e54      0x1c0 obj/external/ap-cp-gateway/Appl/GenData/Os_Hal_Entry_Lcfg.o
 .debug_abbrev  0x00026014      0x1bd obj/external/ap-cp-gateway/Appl/GenData/Os_Hal_Interrupt_Lcfg.o
 .debug_abbrev  0x000261d1      0x1c2 obj/external/ap-cp-gateway/Appl/GenData/Os_Hal_Kernel_Lcfg.o
 .debug_abbrev  0x00026393      0x1ae obj/external/ap-cp-gateway/Appl/GenData/Os_Hal_MemoryProtection_Lcfg.o
 .debug_abbrev  0x00026541      0x1bd obj/external/ap-cp-gateway/Appl/GenData/Os_Hal_Timer_Lcfg.o
 .debug_abbrev  0x000266fe      0x1ce obj/external/ap-cp-gateway/Appl/GenData/Os_Hook_Lcfg.o
 .debug_abbrev  0x000268cc      0x1ae obj/external/ap-cp-gateway/Appl/GenData/Os_Ioc_Lcfg.o
 .debug_abbrev  0x00026a7a      0x1dd obj/external/ap-cp-gateway/Appl/GenData/Os_Isr_Lcfg.o
 .debug_abbrev  0x00026c57      0x1ae obj/external/ap-cp-gateway/Appl/GenData/Os_MemoryProtection_Lcfg.o
 .debug_abbrev  0x00026e05      0x1bd obj/external/ap-cp-gateway/Appl/GenData/Os_Peripheral_Lcfg.o
 .debug_abbrev  0x00026fc2      0x1ce obj/external/ap-cp-gateway/Appl/GenData/Os_Resource_Lcfg.o
 .debug_abbrev  0x00027190      0x1bd obj/external/ap-cp-gateway/Appl/GenData/Os_ScheduleTable_Lcfg.o
 .debug_abbrev  0x0002734d      0x1ce obj/external/ap-cp-gateway/Appl/GenData/Os_Scheduler_Lcfg.o
 .debug_abbrev  0x0002751b      0x1bb obj/external/ap-cp-gateway/Appl/GenData/Os_ServiceFunction_Lcfg.o
 .debug_abbrev  0x000276d6      0x1bd obj/external/ap-cp-gateway/Appl/GenData/Os_Spinlock_Lcfg.o
 .debug_abbrev  0x00027893      0x1bd obj/external/ap-cp-gateway/Appl/GenData/Os_Stack_Lcfg.o
 .debug_abbrev  0x00027a50      0x1dd obj/external/ap-cp-gateway/Appl/GenData/Os_Task_Lcfg.o
 .debug_abbrev  0x00027c2d      0x1ae obj/external/ap-cp-gateway/Appl/GenData/Os_TimingProtection_Lcfg.o
 .debug_abbrev  0x00027ddb      0x1ae obj/external/ap-cp-gateway/Appl/GenData/Os_Trace_Lcfg.o
 .debug_abbrev  0x00027f89      0x1bd obj/external/ap-cp-gateway/Appl/GenData/Os_XSignal_Lcfg.o
 .debug_abbrev  0x00028146      0x2b9 obj/external/ap-cp-gateway/Appl/GenData/PduR_Lcfg.o
 .debug_abbrev  0x000283ff      0x1ac obj/external/ap-cp-gateway/Appl/GenData/PduR_PBcfg.o
 .debug_abbrev  0x000285ab      0x27e obj/external/ap-cp-gateway/Appl/GenData/Rte.o
 .debug_abbrev  0x00028829      0x165 obj/external/ap-cp-gateway/Appl/GenData/Xcp_Lcfg.o
 .debug_abbrev  0x0002898e       0x87 obj/external/ap-cp-gateway/Appl/GenData/src/CDD_Mcl_Cfg.o
 .debug_abbrev  0x00028a15       0x96 obj/external/ap-cp-gateway/Appl/GenData/src/CDD_Mcl_PBcfg.o
 .debug_abbrev  0x00028aab      0x164 obj/external/ap-cp-gateway/Appl/GenData/src/Clock_Ip_Cfg.o
 .debug_abbrev  0x00028c0f      0x173 obj/external/ap-cp-gateway/Appl/GenData/src/Clock_Ip_PBcfg.o
 .debug_abbrev  0x00028d82       0xca obj/external/ap-cp-gateway/Appl/GenData/src/Dio_Cfg.o
 .debug_abbrev  0x00028e4c       0x26 obj/external/ap-cp-gateway/Appl/GenData/src/Dma_Ip_Cfg.o
 .debug_abbrev  0x00028e72       0x26 obj/external/ap-cp-gateway/Appl/GenData/src/Dma_Ip_PBcfg.o
 .debug_abbrev  0x00028e98       0xf6 obj/external/ap-cp-gateway/Appl/GenData/src/Fls_Cfg.o
 .debug_abbrev  0x00028f8e      0x116 obj/external/ap-cp-gateway/Appl/GenData/src/Fls_PBcfg.o
 .debug_abbrev  0x000290a4      0x10d obj/external/ap-cp-gateway/Appl/GenData/src/Mcu_Cfg.o
 .debug_abbrev  0x000291b1      0x11c obj/external/ap-cp-gateway/Appl/GenData/src/Mcu_PBcfg.o
 .debug_abbrev  0x000292cd       0x26 obj/external/ap-cp-gateway/Appl/GenData/src/OsIf_Cfg.o
 .debug_abbrev  0x000292f3      0x194 obj/external/ap-cp-gateway/Appl/GenData/src/Port_Cfg.o
 .debug_abbrev  0x00029487      0x1a7 obj/external/ap-cp-gateway/Appl/GenData/src/Port_PBcfg.o
 .debug_abbrev  0x0002962e       0xda obj/external/ap-cp-gateway/Appl/GenData/src/Power_Ip_Cfg.o
 .debug_abbrev  0x00029708      0x11e obj/external/ap-cp-gateway/Appl/GenData/src/Power_Ip_PBcfg.o
 .debug_abbrev  0x00029826      0x110 obj/external/ap-cp-gateway/Appl/GenData/src/Qspi_Ip_PBcfg.o
 .debug_abbrev  0x00029936       0x8f obj/external/ap-cp-gateway/Appl/GenData/src/Ram_Ip_Cfg.o
 .debug_abbrev  0x000299c5       0x8f obj/external/ap-cp-gateway/Appl/GenData/src/Ram_Ip_PBcfg.o
 .debug_abbrev  0x00029a54      0x13f obj/external/ap-cp-gateway/Appl/GenData/src/Siul2_Port_Ip_PBcfg.o
 .debug_abbrev  0x00029b93       0xc5 obj/external/ap-cp-gateway/Appl/GenData/vBrs_Lcfg.o
 .debug_abbrev  0x00029c58       0xb3 obj/external/ap-cp-gateway/Appl/GenData/vLinkGen_Lcfg.o
 .debug_abbrev  0x00029d0b       0xc3 obj/external/ap-cp-gateway/Appl/Source/ARMBrsHwIntTb_CortexM.o
 .debug_abbrev  0x00029dce      0x119 obj/external/ap-cp-gateway/Appl/Source/ARMBrsHw_CortexM.o
 .debug_abbrev  0x00029ee7       0xbf obj/external/ap-cp-gateway/Appl/Source/ARMStartup_CortexM.o
 .debug_abbrev  0x00029fa6       0xfa obj/external/ap-cp-gateway/Appl/Source/BrsHw.o
 .debug_abbrev  0x0002a0a0      0x22d obj/external/ap-cp-gateway/Appl/Source/BrsMain.o
 .debug_abbrev  0x0002a2cd      0x1bb obj/external/ap-cp-gateway/Appl/Source/BrsMainStartup.o
 .debug_abbrev  0x0002a488       0xa9 obj/external/ap-cp-gateway/Appl/Source/BrsMain_Callout_Stubs.o
 .debug_abbrev  0x0002a531      0x1d5 obj/external/ap-cp-gateway/Appl/Source/BswInit.o
 .debug_abbrev  0x0002a706      0x3cb obj/external/ap-cp-gateway/Appl/Source/BswM_Callout_Stubs.o
 .debug_abbrev  0x0002aad1      0x2dd obj/external/ap-cp-gateway/Appl/Source/Dcm_Callout_Stubs.o
 .debug_abbrev  0x0002adae      0x4bc obj/external/ap-cp-gateway/Appl/Source/EcuM_Callout_Stubs.o
 .debug_abbrev  0x0002b26a       0xf4 obj/external/ap-cp-gateway/Appl/Source/Os_Callout_Stubs.o
 .debug_abbrev  0x0002b35e      0x302 obj/external/ap-cp-gateway/Appl/Source/XcpAppl.o
 .debug_abbrev  0x0002b660      0x2e3 obj/external/ap-cp-gateway/Appl/Source/ipc-shm/Cdd_Ipc.o
 .debug_abbrev  0x0002b943      0x207 obj/external/ap-cp-gateway/Appl/Source/ipc-shm/Cdd_Ipc_Lcfg.o
 .debug_abbrev  0x0002bb4a      0x276 obj/external/ap-cp-gateway/Appl/Source/ipc-shm/common/ipc-queue.o
 .debug_abbrev  0x0002bdc0      0x488 obj/external/ap-cp-gateway/Appl/Source/ipc-shm/common/ipc-shm.o
 .debug_abbrev  0x0002c248      0x2c7 obj/external/ap-cp-gateway/Appl/Source/ipc-shm/hw/s32gen1/ipc-hw-s32gen1.o
 .debug_abbrev  0x0002c50f      0x34c obj/external/ap-cp-gateway/Appl/Source/ipc-shm/os/autosar/ipc-os-autosar.o

.debug_aranges  0x00000000     0x3528
 .debug_aranges
                0x00000000       0x20 obj/external/Components/Os/Implementation/Os_Hal_Compiler_TiInt.o
 .debug_aranges
                0x00000020       0x20 obj/external/Components/Os/Implementation/Os_Hal_ContextAsm.o
 .debug_aranges
                0x00000040       0x20 obj/external/ap-cp-gateway/Appl/GenData/Os_Hal_EntryAsm_Lcfg.o
 .debug_aranges
                0x00000060       0x20 obj/external/Components/BswM/Implementation/BswM.o
 .debug_aranges
                0x00000080       0x20 obj/external/Components/CanIf/Implementation/CanIf.o
 .debug_aranges
                0x000000a0       0x20 obj/external/Components/CanNm/Implementation/CanNm.o
 .debug_aranges
                0x000000c0       0x20 obj/external/Components/CanSM/Implementation/CanSM.o
 .debug_aranges
                0x000000e0       0x20 obj/external/Components/CanTp/Implementation/CanTp.o
 .debug_aranges
                0x00000100       0x20 obj/external/Components/CanXcp/Implementation/CanXcp.o
 .debug_aranges
                0x00000120       0x20 obj/external/Components/Can_30_Flexcan4/Implementation/Can_30_Flexcan4.o
 .debug_aranges
                0x00000140       0x28 obj/external/Components/Can_30_Flexcan4/Implementation/Can_30_Flexcan4_Irq.o
 .debug_aranges
                0x00000168       0x20 obj/external/Components/Com/Implementation/Com.o
 .debug_aranges
                0x00000188       0x20 obj/external/Components/Com/Implementation/Com_Buffers.o
 .debug_aranges
                0x000001a8       0x18 obj/external/Components/Com/Implementation/Com_CprQueue.o
 .debug_aranges
                0x000001c0       0x18 obj/external/Components/Com/Implementation/Com_CprQueueDescrGw.o
 .debug_aranges
                0x000001d8       0x18 obj/external/Components/Com/Implementation/Com_CprQueueSigGw.o
 .debug_aranges
                0x000001f0       0x18 obj/external/Components/Com/Implementation/Com_DescriptionGateway.o
 .debug_aranges
                0x00000208       0x20 obj/external/Components/Com/Implementation/Com_Deserializer.o
 .debug_aranges
                0x00000228       0x20 obj/external/Components/Com/Implementation/Com_IPduGroupHdlr.o
 .debug_aranges
                0x00000248       0x20 obj/external/Components/Com/Implementation/Com_LLIf.o
 .debug_aranges
                0x00000268       0x20 obj/external/Components/Com/Implementation/Com_LMgt.o
 .debug_aranges
                0x00000288       0x20 obj/external/Components/Com/Implementation/Com_MainFunctions.o
 .debug_aranges
                0x000002a8       0x18 obj/external/Components/Com/Implementation/Com_Notifications.o
 .debug_aranges
                0x000002c0       0x18 obj/external/Components/Com/Implementation/Com_RxInv.o
 .debug_aranges
                0x000002d8       0x20 obj/external/Components/Com/Implementation/Com_RxProcessing.o
 .debug_aranges
                0x000002f8       0x20 obj/external/Components/Com/Implementation/Com_Serializer.o
 .debug_aranges
                0x00000318       0x18 obj/external/Components/Com/Implementation/Com_SignalFilterHdlr.o
 .debug_aranges
                0x00000330       0x18 obj/external/Components/Com/Implementation/Com_SignalGateway.o
 .debug_aranges
                0x00000348       0x20 obj/external/Components/Com/Implementation/Com_SignalIf.o
 .debug_aranges
                0x00000368       0x18 obj/external/Components/Com/Implementation/Com_Timer.o
 .debug_aranges
                0x00000380       0x20 obj/external/Components/Com/Implementation/Com_TxModeHdlr.o
 .debug_aranges
                0x000003a0       0x20 obj/external/Components/ComM/Implementation/ComM.o
 .debug_aranges
                0x000003c0       0x20 obj/external/Components/Crc/Implementation/Crc.o
 .debug_aranges
                0x000003e0       0x20 obj/external/Components/Dcm/Implementation/Dcm.o
 .debug_aranges
                0x00000400       0x18 obj/external/Components/Dcm/Implementation/Dcm_AuthMgr.o
 .debug_aranges
                0x00000418       0x18 obj/external/Components/Dcm/Implementation/Dcm_CfgWrap.o
 .debug_aranges
                0x00000430       0x20 obj/external/Components/Dcm/Implementation/Dcm_Debug.o
 .debug_aranges
                0x00000450       0x20 obj/external/Components/Dcm/Implementation/Dcm_DemIf.o
 .debug_aranges
                0x00000470       0x18 obj/external/Components/Dcm/Implementation/Dcm_Diag.o
 .debug_aranges
                0x00000488       0x20 obj/external/Components/Dcm/Implementation/Dcm_DidMgr.o
 .debug_aranges
                0x000004a8       0x18 obj/external/Components/Dcm/Implementation/Dcm_Ext.o
 .debug_aranges
                0x000004c0       0x18 obj/external/Components/Dcm/Implementation/Dcm_FblMgr.o
 .debug_aranges
                0x000004d8       0x20 obj/external/Components/Dcm/Implementation/Dcm_MemMgr.o
 .debug_aranges
                0x000004f8       0x20 obj/external/Components/Dcm/Implementation/Dcm_Mode.o
 .debug_aranges
                0x00000518       0x18 obj/external/Components/Dcm/Implementation/Dcm_Net.o
 .debug_aranges
                0x00000530       0x18 obj/external/Components/Dcm/Implementation/Dcm_ObdDtcMgr.o
 .debug_aranges
                0x00000548       0x20 obj/external/Components/Dcm/Implementation/Dcm_ObdIdMgr.o
 .debug_aranges
                0x00000568       0x18 obj/external/Components/Dcm/Implementation/Dcm_PagedBuffer.o
 .debug_aranges
                0x00000580       0x20 obj/external/Components/Dcm/Implementation/Dcm_Repeater.o
 .debug_aranges
                0x000005a0       0x20 obj/external/Components/Dcm/Implementation/Dcm_RidMgr.o
 .debug_aranges
                0x000005c0       0x20 obj/external/Components/Dcm/Implementation/Dcm_RsrcMgr.o
 .debug_aranges
                0x000005e0       0x20 obj/external/Components/Dcm/Implementation/Dcm_State.o
 .debug_aranges
                0x00000600       0x18 obj/external/Components/Dcm/Implementation/Dcm_Svc01.o
 .debug_aranges
                0x00000618       0x18 obj/external/Components/Dcm/Implementation/Dcm_Svc02.o
 .debug_aranges
                0x00000630       0x18 obj/external/Components/Dcm/Implementation/Dcm_Svc03.o
 .debug_aranges
                0x00000648       0x18 obj/external/Components/Dcm/Implementation/Dcm_Svc04.o
 .debug_aranges
                0x00000660       0x18 obj/external/Components/Dcm/Implementation/Dcm_Svc06.o
 .debug_aranges
                0x00000678       0x18 obj/external/Components/Dcm/Implementation/Dcm_Svc07.o
 .debug_aranges
                0x00000690       0x18 obj/external/Components/Dcm/Implementation/Dcm_Svc08.o
 .debug_aranges
                0x000006a8       0x18 obj/external/Components/Dcm/Implementation/Dcm_Svc09.o
 .debug_aranges
                0x000006c0       0x18 obj/external/Components/Dcm/Implementation/Dcm_Svc0A.o
 .debug_aranges
                0x000006d8       0x20 obj/external/Components/Dcm/Implementation/Dcm_Svc11.o
 .debug_aranges
                0x000006f8       0x20 obj/external/Components/Dcm/Implementation/Dcm_Svc14.o
 .debug_aranges
                0x00000718       0x20 obj/external/Components/Dcm/Implementation/Dcm_Svc19.o
 .debug_aranges
                0x00000738       0x20 obj/external/Components/Dcm/Implementation/Dcm_Svc19Uti.o
 .debug_aranges
                0x00000758       0x20 obj/external/Components/Dcm/Implementation/Dcm_Svc22.o
 .debug_aranges
                0x00000778       0x20 obj/external/Components/Dcm/Implementation/Dcm_Svc23.o
 .debug_aranges
                0x00000798       0x18 obj/external/Components/Dcm/Implementation/Dcm_Svc24.o
 .debug_aranges
                0x000007b0       0x20 obj/external/Components/Dcm/Implementation/Dcm_Svc27.o
 .debug_aranges
                0x000007d0       0x20 obj/external/Components/Dcm/Implementation/Dcm_Svc28.o
 .debug_aranges
                0x000007f0       0x18 obj/external/Components/Dcm/Implementation/Dcm_Svc29.o
 .debug_aranges
                0x00000808       0x20 obj/external/Components/Dcm/Implementation/Dcm_Svc2A.o
 .debug_aranges
                0x00000828       0x20 obj/external/Components/Dcm/Implementation/Dcm_Svc2ASchd.o
 .debug_aranges
                0x00000848       0x20 obj/external/Components/Dcm/Implementation/Dcm_Svc2E.o
 .debug_aranges
                0x00000868       0x20 obj/external/Components/Dcm/Implementation/Dcm_Svc2F.o
 .debug_aranges
                0x00000888       0x20 obj/external/Components/Dcm/Implementation/Dcm_Svc31.o
 .debug_aranges
                0x000008a8       0x18 obj/external/Components/Dcm/Implementation/Dcm_Svc34.o
 .debug_aranges
                0x000008c0       0x18 obj/external/Components/Dcm/Implementation/Dcm_Svc36.o
 .debug_aranges
                0x000008d8       0x18 obj/external/Components/Dcm/Implementation/Dcm_Svc37.o
 .debug_aranges
                0x000008f0       0x20 obj/external/Components/Dcm/Implementation/Dcm_Svc3D.o
 .debug_aranges
                0x00000910       0x20 obj/external/Components/Dcm/Implementation/Dcm_Svc3E.o
 .debug_aranges
                0x00000930       0x20 obj/external/Components/Dcm/Implementation/Dcm_Svc85.o
 .debug_aranges
                0x00000950       0x20 obj/external/Components/Dcm/Implementation/Dcm_Tmr.o
 .debug_aranges
                0x00000970       0x20 obj/external/Components/Dcm/Implementation/Dcm_Tsk.o
 .debug_aranges
                0x00000990       0x20 obj/external/Components/Dcm/Implementation/Dcm_Uti.o
 .debug_aranges
                0x000009b0       0x20 obj/external/Components/Dcm/Implementation/Dcm_VarMgr.o
 .debug_aranges
                0x000009d0       0x20 obj/external/Components/Dem/Implementation/Dem.o
 .debug_aranges
                0x000009f0       0x20 obj/external/Components/Det/Implementation/Det.o
 .debug_aranges
                0x00000a10       0x20 obj/external/Components/EcuM/Implementation/EcuM.o
 .debug_aranges
                0x00000a30       0x20 obj/external/Components/Fee/Implementation/Fee.o
 .debug_aranges
                0x00000a50       0x20 obj/external/Components/Fee/Implementation/Fee_ChunkInfo.o
 .debug_aranges
                0x00000a70       0x18 obj/external/Components/Fee/Implementation/Fee_LookUpTable.o
 .debug_aranges
                0x00000a88       0x20 obj/external/Components/Fee/Implementation/Fee_Partition.o
 .debug_aranges
                0x00000aa8       0x20 obj/external/Components/Fee/Implementation/Fee_Processing.o
 .debug_aranges
                0x00000ac8       0x20 obj/external/Components/Fee/Implementation/Fee_Sector.o
 .debug_aranges
                0x00000ae8       0x20 obj/external/Components/IpduM/Implementation/IpduM.o
 .debug_aranges
                0x00000b08       0x20 obj/external/Components/IpduM/Implementation/IpduM_Container.o
 .debug_aranges
                0x00000b28       0x18 obj/external/Components/IpduM/Implementation/IpduM_Mux.o
 .debug_aranges
                0x00000b40       0x20 obj/external/Components/MemIf/Implementation/MemIf.o
 .debug_aranges
                0x00000b60       0x20 obj/external/Components/Nm/Implementation/Nm.o
 .debug_aranges
                0x00000b80       0x20 obj/external/Components/NvM/Implementation/NvM.o
 .debug_aranges
                0x00000ba0       0x20 obj/external/Components/NvM/Implementation/NvM_Act.o
 .debug_aranges
                0x00000bc0       0x20 obj/external/Components/NvM/Implementation/NvM_Crc.o
 .debug_aranges
                0x00000be0       0x20 obj/external/Components/NvM/Implementation/NvM_DataIntegrity.o
 .debug_aranges
                0x00000c00       0x20 obj/external/Components/NvM/Implementation/NvM_JobProc.o
 .debug_aranges
                0x00000c20       0x18 obj/external/Components/NvM/Implementation/NvM_Mac.o
 .debug_aranges
                0x00000c38       0x20 obj/external/Components/NvM/Implementation/NvM_MemIfAbstraction.o
 .debug_aranges
                0x00000c58       0x18 obj/external/Components/NvM/Implementation/NvM_MemIfMemoryCore.o
 .debug_aranges
                0x00000c70       0x20 obj/external/Components/NvM/Implementation/NvM_Qry.o
 .debug_aranges
                0x00000c90       0x20 obj/external/Components/NvM/Implementation/NvM_Queue.o
 .debug_aranges
                0x00000cb0       0x28 obj/external/Components/Os/Implementation/Os_AccessCheck.o
 .debug_aranges
                0x00000cd8       0x90 obj/external/Components/Os/Implementation/Os_Alarm.o
 .debug_aranges
                0x00000d68       0x90 obj/external/Components/Os/Implementation/Os_Application.o
 .debug_aranges
                0x00000df8       0x48 obj/external/Components/Os/Implementation/Os_Barrier.o
 .debug_aranges
                0x00000e40       0x18 obj/external/Components/Os/Implementation/Os_Bit.o
 .debug_aranges
                0x00000e58       0x18 obj/external/Components/Os/Implementation/Os_BitArray.o
 .debug_aranges
                0x00000e70      0x128 obj/external/Components/Os/Implementation/Os_Core.o
 .debug_aranges
                0x00000f98       0x90 obj/external/Components/Os/Implementation/Os_Counter.o
 .debug_aranges
                0x00001028       0x18 obj/external/Components/Os/Implementation/Os_Deque.o
 .debug_aranges
                0x00001040      0x160 obj/external/Components/Os/Implementation/Os_Error.o
 .debug_aranges
                0x000011a0       0x50 obj/external/Components/Os/Implementation/Os_Event.o
 .debug_aranges
                0x000011f0       0x18 obj/external/Components/Os/Implementation/Os_Fifo.o
 .debug_aranges
                0x00001208       0x18 obj/external/Components/Os/Implementation/Os_Fifo08.o
 .debug_aranges
                0x00001220       0x18 obj/external/Components/Os/Implementation/Os_Fifo16.o
 .debug_aranges
                0x00001238       0x18 obj/external/Components/Os/Implementation/Os_Fifo32.o
 .debug_aranges
                0x00001250       0x18 obj/external/Components/Os/Implementation/Os_FifoRef.o
 .debug_aranges
                0x00001268       0x18 obj/external/Components/Os/Implementation/Os_Hal_Compiler_Arm.o
 .debug_aranges
                0x00001280       0x18 obj/external/Components/Os/Implementation/Os_Hal_Compiler_Iar.o
 .debug_aranges
                0x00001298       0x30 obj/external/Components/Os/Implementation/Os_Hal_Context.o
 .debug_aranges
                0x000012c8       0x30 obj/external/Components/Os/Implementation/Os_Hal_Core.o
 .debug_aranges
                0x000012f8       0x18 obj/external/Components/Os/Implementation/Os_Hal_Entry.o
 .debug_aranges
                0x00001310       0xa8 obj/external/Components/Os/Implementation/Os_Hook.o
 .debug_aranges
                0x000013b8       0x70 obj/external/Components/Os/Implementation/Os_Interrupt.o
 .debug_aranges
                0x00001428       0xd0 obj/external/Components/Os/Implementation/Os_Ioc.o
 .debug_aranges
                0x000014f8       0x88 obj/external/Components/Os/Implementation/Os_Isr.o
 .debug_aranges
                0x00001580       0x18 obj/external/Components/Os/Implementation/Os_Job.o
 .debug_aranges
                0x00001598       0x18 obj/external/Components/Os/Implementation/Os_Lock.o
 .debug_aranges
                0x000015b0       0x20 obj/external/Components/Os/Implementation/Os_MemoryProtection.o
 .debug_aranges
                0x000015d0       0x60 obj/external/Components/Os/Implementation/Os_Peripheral.o
 .debug_aranges
                0x00001630       0x38 obj/external/Components/Os/Implementation/Os_PriorityQueue.o
 .debug_aranges
                0x00001668       0x38 obj/external/Components/Os/Implementation/Os_Resource.o
 .debug_aranges
                0x000016a0       0x98 obj/external/Components/Os/Implementation/Os_ScheduleTable.o
 .debug_aranges
                0x00001738       0x70 obj/external/Components/Os/Implementation/Os_Scheduler.o
 .debug_aranges
                0x000017a8       0x58 obj/external/Components/Os/Implementation/Os_ServiceFunction.o
 .debug_aranges
                0x00001800       0x50 obj/external/Components/Os/Implementation/Os_Spinlock.o
 .debug_aranges
                0x00001850       0xa0 obj/external/Components/Os/Implementation/Os_Stack.o
 .debug_aranges
                0x000018f0       0xb0 obj/external/Components/Os/Implementation/Os_Task.o
 .debug_aranges
                0x000019a0       0x20 obj/external/Components/Os/Implementation/Os_Thread.o
 .debug_aranges
                0x000019c0       0x40 obj/external/Components/Os/Implementation/Os_Timer.o
 .debug_aranges
                0x00001a00       0x48 obj/external/Components/Os/Implementation/Os_TimingProtection.o
 .debug_aranges
                0x00001a48       0x18 obj/external/Components/Os/Implementation/Os_Trace.o
 .debug_aranges
                0x00001a60      0x708 obj/external/Components/Os/Implementation/Os_Trap.o
 .debug_aranges
                0x00002168      0x110 obj/external/Components/Os/Implementation/Os_XSignal.o
 .debug_aranges
                0x00002278       0x20 obj/external/Components/PduR/Implementation/PduR.o
 .debug_aranges
                0x00002298       0x20 obj/external/Components/PduR/Implementation/PduR_Bm.o
 .debug_aranges
                0x000022b8       0x20 obj/external/Components/PduR/Implementation/PduR_Fm.o
 .debug_aranges
                0x000022d8       0x18 obj/external/Components/PduR/Implementation/PduR_IFQ.o
 .debug_aranges
                0x000022f0       0x20 obj/external/Components/PduR/Implementation/PduR_Lock.o
 .debug_aranges
                0x00002310       0x18 obj/external/Components/PduR/Implementation/PduR_McQ.o
 .debug_aranges
                0x00002328       0x20 obj/external/Components/PduR/Implementation/PduR_RmIf.o
 .debug_aranges
                0x00002348       0x20 obj/external/Components/PduR/Implementation/PduR_RmTp.o
 .debug_aranges
                0x00002368       0x18 obj/external/Components/PduR/Implementation/PduR_RmTp_TxInst.o
 .debug_aranges
                0x00002380       0x18 obj/external/Components/PduR/Implementation/PduR_Sm.o
 .debug_aranges
                0x00002398       0x20 obj/external/Components/VStdLib/Implementation/vstdlib.o
 .debug_aranges
                0x000023b8       0x20 obj/external/Components/Xcp/Implementation/Xcp.o
 .debug_aranges
                0x000023d8       0x18 obj/external/ThirdParty/Mcal_S32x/Supply/SW32G_RTD_4.4_3.0.4/eclipse/plugins/Base_TS_T40D11M30I4R0/src/OsIf_Interrupts.o
 .debug_aranges
                0x000023f0       0x20 obj/external/ThirdParty/Mcal_S32x/Supply/SW32G_RTD_4.4_3.0.4/eclipse/plugins/Base_TS_T40D11M30I4R0/src/OsIf_Timer.o
 .debug_aranges
                0x00002410       0x18 obj/external/ThirdParty/Mcal_S32x/Supply/SW32G_RTD_4.4_3.0.4/eclipse/plugins/Base_TS_T40D11M30I4R0/src/OsIf_Timer_System.o
 .debug_aranges
                0x00002428       0x18 obj/external/ThirdParty/Mcal_S32x/Supply/SW32G_RTD_4.4_3.0.4/eclipse/plugins/Base_TS_T40D11M30I4R0/src/OsIf_Timer_System_Internal_Systick.o
 .debug_aranges
                0x00002440       0x20 obj/external/ThirdParty/Mcal_S32x/Supply/SW32G_RTD_4.4_3.0.4/eclipse/plugins/Dio_TS_T40D11M30I4R0/src/Dio.o
 .debug_aranges
                0x00002460       0x20 obj/external/ThirdParty/Mcal_S32x/Supply/SW32G_RTD_4.4_3.0.4/eclipse/plugins/Dio_TS_T40D11M30I4R0/src/Dio_Ipw.o
 .debug_aranges
                0x00002480       0x20 obj/external/ThirdParty/Mcal_S32x/Supply/SW32G_RTD_4.4_3.0.4/eclipse/plugins/Dio_TS_T40D11M30I4R0/src/Siul2_Dio_Ip.o
 .debug_aranges
                0x000024a0       0x20 obj/external/ThirdParty/Mcal_S32x/Supply/SW32G_RTD_4.4_3.0.4/eclipse/plugins/Fls_TS_T40D11M30I4R0/src/Fls.o
 .debug_aranges
                0x000024c0       0x20 obj/external/ThirdParty/Mcal_S32x/Supply/SW32G_RTD_4.4_3.0.4/eclipse/plugins/Fls_TS_T40D11M30I4R0/src/Fls_IPW.o
 .debug_aranges
                0x000024e0       0x20 obj/external/ThirdParty/Mcal_S32x/Supply/SW32G_RTD_4.4_3.0.4/eclipse/plugins/Fls_TS_T40D11M30I4R0/src/Qspi_Ip.o
 .debug_aranges
                0x00002500       0x20 obj/external/ThirdParty/Mcal_S32x/Supply/SW32G_RTD_4.4_3.0.4/eclipse/plugins/Fls_TS_T40D11M30I4R0/src/Qspi_Ip_Controller.o
 .debug_aranges
                0x00002520       0x20 obj/external/ThirdParty/Mcal_S32x/Supply/SW32G_RTD_4.4_3.0.4/eclipse/plugins/Fls_TS_T40D11M30I4R0/src/Qspi_Ip_Sfdp.o
 .debug_aranges
                0x00002540       0x20 obj/external/ThirdParty/Mcal_S32x/Supply/SW32G_RTD_4.4_3.0.4/eclipse/plugins/Mcl_TS_T40D11M30I4R0/src/CDD_Mcl.o
 .debug_aranges
                0x00002560       0x18 obj/external/ThirdParty/Mcal_S32x/Supply/SW32G_RTD_4.4_3.0.4/eclipse/plugins/Mcl_TS_T40D11M30I4R0/src/Dma_Ip.o
 .debug_aranges
                0x00002578       0x18 obj/external/ThirdParty/Mcal_S32x/Supply/SW32G_RTD_4.4_3.0.4/eclipse/plugins/Mcl_TS_T40D11M30I4R0/src/Dma_Ip_Driver_State.o
 .debug_aranges
                0x00002590       0x18 obj/external/ThirdParty/Mcal_S32x/Supply/SW32G_RTD_4.4_3.0.4/eclipse/plugins/Mcl_TS_T40D11M30I4R0/src/Dma_Ip_Hw_Access.o
 .debug_aranges
                0x000025a8       0x18 obj/external/ThirdParty/Mcal_S32x/Supply/SW32G_RTD_4.4_3.0.4/eclipse/plugins/Mcl_TS_T40D11M30I4R0/src/Dma_Ip_Irq.o
 .debug_aranges
                0x000025c0       0x18 obj/external/ThirdParty/Mcal_S32x/Supply/SW32G_RTD_4.4_3.0.4/eclipse/plugins/Mcl_TS_T40D11M30I4R0/src/Dma_Ip_Multicore.o
 .debug_aranges
                0x000025d8       0x18 obj/external/ThirdParty/Mcal_S32x/Supply/SW32G_RTD_4.4_3.0.4/eclipse/plugins/Mcl_TS_T40D11M30I4R0/src/Ftm_Mcl_Ip.o
 .debug_aranges
                0x000025f0       0x20 obj/external/ThirdParty/Mcal_S32x/Supply/SW32G_RTD_4.4_3.0.4/eclipse/plugins/Mcu_TS_T40D11M30I4R0/src/Clock_Ip.o
 .debug_aranges
                0x00002610       0x18 obj/external/ThirdParty/Mcal_S32x/Supply/SW32G_RTD_4.4_3.0.4/eclipse/plugins/Mcu_TS_T40D11M30I4R0/src/Clock_Ip_Data.o
 .debug_aranges
                0x00002628       0x18 obj/external/ThirdParty/Mcal_S32x/Supply/SW32G_RTD_4.4_3.0.4/eclipse/plugins/Mcu_TS_T40D11M30I4R0/src/Clock_Ip_Data1.o
 .debug_aranges
                0x00002640       0x18 obj/external/ThirdParty/Mcal_S32x/Supply/SW32G_RTD_4.4_3.0.4/eclipse/plugins/Mcu_TS_T40D11M30I4R0/src/Clock_Ip_Data2.o
 .debug_aranges
                0x00002658       0x20 obj/external/ThirdParty/Mcal_S32x/Supply/SW32G_RTD_4.4_3.0.4/eclipse/plugins/Mcu_TS_T40D11M30I4R0/src/Clock_Ip_Divider.o
 .debug_aranges
                0x00002678       0x20 obj/external/ThirdParty/Mcal_S32x/Supply/SW32G_RTD_4.4_3.0.4/eclipse/plugins/Mcu_TS_T40D11M30I4R0/src/Clock_Ip_DividerTrigger.o
 .debug_aranges
                0x00002698       0x20 obj/external/ThirdParty/Mcal_S32x/Supply/SW32G_RTD_4.4_3.0.4/eclipse/plugins/Mcu_TS_T40D11M30I4R0/src/Clock_Ip_ExtOsc.o
 .debug_aranges
                0x000026b8       0x20 obj/external/ThirdParty/Mcal_S32x/Supply/SW32G_RTD_4.4_3.0.4/eclipse/plugins/Mcu_TS_T40D11M30I4R0/src/Clock_Ip_FracDiv.o
 .debug_aranges
                0x000026d8       0x18 obj/external/ThirdParty/Mcal_S32x/Supply/SW32G_RTD_4.4_3.0.4/eclipse/plugins/Mcu_TS_T40D11M30I4R0/src/Clock_Ip_Frequency.o
 .debug_aranges
                0x000026f0       0x18 obj/external/ThirdParty/Mcal_S32x/Supply/SW32G_RTD_4.4_3.0.4/eclipse/plugins/Mcu_TS_T40D11M30I4R0/src/Clock_Ip_Frequency1.o
 .debug_aranges
                0x00002708       0x18 obj/external/ThirdParty/Mcal_S32x/Supply/SW32G_RTD_4.4_3.0.4/eclipse/plugins/Mcu_TS_T40D11M30I4R0/src/Clock_Ip_Frequency2.o
 .debug_aranges
                0x00002720       0x20 obj/external/ThirdParty/Mcal_S32x/Supply/SW32G_RTD_4.4_3.0.4/eclipse/plugins/Mcu_TS_T40D11M30I4R0/src/Clock_Ip_Gate.o
 .debug_aranges
                0x00002740       0x20 obj/external/ThirdParty/Mcal_S32x/Supply/SW32G_RTD_4.4_3.0.4/eclipse/plugins/Mcu_TS_T40D11M30I4R0/src/Clock_Ip_IntOsc.o
 .debug_aranges
                0x00002760       0x20 obj/external/ThirdParty/Mcal_S32x/Supply/SW32G_RTD_4.4_3.0.4/eclipse/plugins/Mcu_TS_T40D11M30I4R0/src/Clock_Ip_Irq.o
 .debug_aranges
                0x00002780       0x20 obj/external/ThirdParty/Mcal_S32x/Supply/SW32G_RTD_4.4_3.0.4/eclipse/plugins/Mcu_TS_T40D11M30I4R0/src/Clock_Ip_Monitor.o
 .debug_aranges
                0x000027a0       0x20 obj/external/ThirdParty/Mcal_S32x/Supply/SW32G_RTD_4.4_3.0.4/eclipse/plugins/Mcu_TS_T40D11M30I4R0/src/Clock_Ip_Pll.o
 .debug_aranges
                0x000027c0       0x20 obj/external/ThirdParty/Mcal_S32x/Supply/SW32G_RTD_4.4_3.0.4/eclipse/plugins/Mcu_TS_T40D11M30I4R0/src/Clock_Ip_ProgFreqSwitch.o
 .debug_aranges
                0x000027e0       0x20 obj/external/ThirdParty/Mcal_S32x/Supply/SW32G_RTD_4.4_3.0.4/eclipse/plugins/Mcu_TS_T40D11M30I4R0/src/Clock_Ip_Selector.o
 .debug_aranges
                0x00002800       0x20 obj/external/ThirdParty/Mcal_S32x/Supply/SW32G_RTD_4.4_3.0.4/eclipse/plugins/Mcu_TS_T40D11M30I4R0/src/Clock_Ip_Specific.o
 .debug_aranges
                0x00002820       0x18 obj/external/ThirdParty/Mcal_S32x/Supply/SW32G_RTD_4.4_3.0.4/eclipse/plugins/Mcu_TS_T40D11M30I4R0/src/Clock_Ip_Specific1.o
 .debug_aranges
                0x00002838       0x18 obj/external/ThirdParty/Mcal_S32x/Supply/SW32G_RTD_4.4_3.0.4/eclipse/plugins/Mcu_TS_T40D11M30I4R0/src/Clock_Ip_Specific2.o
 .debug_aranges
                0x00002850       0x20 obj/external/ThirdParty/Mcal_S32x/Supply/SW32G_RTD_4.4_3.0.4/eclipse/plugins/Mcu_TS_T40D11M30I4R0/src/Mcu.o
 .debug_aranges
                0x00002870       0x18 obj/external/ThirdParty/Mcal_S32x/Supply/SW32G_RTD_4.4_3.0.4/eclipse/plugins/Mcu_TS_T40D11M30I4R0/src/Mcu_Dem_Wrapper.o
 .debug_aranges
                0x00002888       0x20 obj/external/ThirdParty/Mcal_S32x/Supply/SW32G_RTD_4.4_3.0.4/eclipse/plugins/Mcu_TS_T40D11M30I4R0/src/Mcu_Ipw.o
 .debug_aranges
                0x000028a8       0x20 obj/external/ThirdParty/Mcal_S32x/Supply/SW32G_RTD_4.4_3.0.4/eclipse/plugins/Mcu_TS_T40D11M30I4R0/src/Power_Ip.o
 .debug_aranges
                0x000028c8       0x18 obj/external/ThirdParty/Mcal_S32x/Supply/SW32G_RTD_4.4_3.0.4/eclipse/plugins/Mcu_TS_T40D11M30I4R0/src/Power_Ip_CortexA.o
 .debug_aranges
                0x000028e0       0x20 obj/external/ThirdParty/Mcal_S32x/Supply/SW32G_RTD_4.4_3.0.4/eclipse/plugins/Mcu_TS_T40D11M30I4R0/src/Power_Ip_CortexM7.o
 .debug_aranges
                0x00002900       0x20 obj/external/ThirdParty/Mcal_S32x/Supply/SW32G_RTD_4.4_3.0.4/eclipse/plugins/Mcu_TS_T40D11M30I4R0/src/Power_Ip_MC_ME.o
 .debug_aranges
                0x00002920       0x20 obj/external/ThirdParty/Mcal_S32x/Supply/SW32G_RTD_4.4_3.0.4/eclipse/plugins/Mcu_TS_T40D11M30I4R0/src/Power_Ip_MC_RGM.o
 .debug_aranges
                0x00002940       0x18 obj/external/ThirdParty/Mcal_S32x/Supply/SW32G_RTD_4.4_3.0.4/eclipse/plugins/Mcu_TS_T40D11M30I4R0/src/Power_Ip_MC_RGM_Irq.o
 .debug_aranges
                0x00002958       0x20 obj/external/ThirdParty/Mcal_S32x/Supply/SW32G_RTD_4.4_3.0.4/eclipse/plugins/Mcu_TS_T40D11M30I4R0/src/Power_Ip_MSCM.o
 .debug_aranges
                0x00002978       0x20 obj/external/ThirdParty/Mcal_S32x/Supply/SW32G_RTD_4.4_3.0.4/eclipse/plugins/Mcu_TS_T40D11M30I4R0/src/Power_Ip_PMC.o
 .debug_aranges
                0x00002998       0x20 obj/external/ThirdParty/Mcal_S32x/Supply/SW32G_RTD_4.4_3.0.4/eclipse/plugins/Mcu_TS_T40D11M30I4R0/src/Power_Ip_Private.o
 .debug_aranges
                0x000029b8       0x20 obj/external/ThirdParty/Mcal_S32x/Supply/SW32G_RTD_4.4_3.0.4/eclipse/plugins/Mcu_TS_T40D11M30I4R0/src/Ram_Ip.o
 .debug_aranges
                0x000029d8       0x20 obj/external/ThirdParty/Mcal_S32x/Supply/SW32G_RTD_4.4_3.0.4/eclipse/plugins/Port_TS_T40D11M30I4R0/src/Port.o
 .debug_aranges
                0x000029f8       0x20 obj/external/ThirdParty/Mcal_S32x/Supply/SW32G_RTD_4.4_3.0.4/eclipse/plugins/Port_TS_T40D11M30I4R0/src/Port_Ipw.o
 .debug_aranges
                0x00002a18       0x20 obj/external/ThirdParty/Mcal_S32x/Supply/SW32G_RTD_4.4_3.0.4/eclipse/plugins/Port_TS_T40D11M30I4R0/src/Siul2_Port_Ip.o
 .debug_aranges
                0x00002a38       0x20 obj/external/ap-cp-gateway/Appl/GenData/BswM_Lcfg.o
 .debug_aranges
                0x00002a58       0x18 obj/external/ap-cp-gateway/Appl/GenData/CanIf_Lcfg.o
 .debug_aranges
                0x00002a70       0x18 obj/external/ap-cp-gateway/Appl/GenData/CanIf_PBcfg.o
 .debug_aranges
                0x00002a88       0x18 obj/external/ap-cp-gateway/Appl/GenData/CanNm_Cfg.o
 .debug_aranges
                0x00002aa0       0x18 obj/external/ap-cp-gateway/Appl/GenData/CanNm_Lcfg.o
 .debug_aranges
                0x00002ab8       0x18 obj/external/ap-cp-gateway/Appl/GenData/CanNm_PBcfg.o
 .debug_aranges
                0x00002ad0       0x18 obj/external/ap-cp-gateway/Appl/GenData/CanSM_Lcfg.o
 .debug_aranges
                0x00002ae8       0x18 obj/external/ap-cp-gateway/Appl/GenData/CanTp_Lcfg.o
 .debug_aranges
                0x00002b00       0x18 obj/external/ap-cp-gateway/Appl/GenData/CanTp_PBcfg.o
 .debug_aranges
                0x00002b18       0x18 obj/external/ap-cp-gateway/Appl/GenData/CanXcp_Lcfg.o
 .debug_aranges
                0x00002b30       0x18 obj/external/ap-cp-gateway/Appl/GenData/Can_30_Flexcan4_Lcfg.o
 .debug_aranges
                0x00002b48       0x18 obj/external/ap-cp-gateway/Appl/GenData/Can_30_Flexcan4_PBcfg.o
 .debug_aranges
                0x00002b60       0x20 obj/external/ap-cp-gateway/Appl/GenData/ComM_Lcfg.o
 .debug_aranges
                0x00002b80       0x20 obj/external/ap-cp-gateway/Appl/GenData/Com_Lcfg.o
 .debug_aranges
                0x00002ba0       0x18 obj/external/ap-cp-gateway/Appl/GenData/Com_PBcfg.o
 .debug_aranges
                0x00002bb8       0x20 obj/external/ap-cp-gateway/Appl/GenData/Dcm_Lcfg.o
 .debug_aranges
                0x00002bd8       0x18 obj/external/ap-cp-gateway/Appl/GenData/Dcm_PBcfg.o
 .debug_aranges
                0x00002bf0       0x18 obj/external/ap-cp-gateway/Appl/GenData/Dem_Lcfg.o
 .debug_aranges
                0x00002c08       0x18 obj/external/ap-cp-gateway/Appl/GenData/Dem_PBcfg.o
 .debug_aranges
                0x00002c20       0x18 obj/external/ap-cp-gateway/Appl/GenData/Det_Cfg.o
 .debug_aranges
                0x00002c38       0x18 obj/external/ap-cp-gateway/Appl/GenData/EcuM_Cfg.o
 .debug_aranges
                0x00002c50       0x18 obj/external/ap-cp-gateway/Appl/GenData/EcuM_Init_Cfg.o
 .debug_aranges
                0x00002c68       0x18 obj/external/ap-cp-gateway/Appl/GenData/EcuM_Init_PBcfg.o
 .debug_aranges
                0x00002c80       0x18 obj/external/ap-cp-gateway/Appl/GenData/EcuM_PBcfg.o
 .debug_aranges
                0x00002c98       0x20 obj/external/ap-cp-gateway/Appl/GenData/Fee_Lcfg.o
 .debug_aranges
                0x00002cb8       0x20 obj/external/ap-cp-gateway/Appl/GenData/IpduM_Lcfg.o
 .debug_aranges
                0x00002cd8       0x18 obj/external/ap-cp-gateway/Appl/GenData/IpduM_PBcfg.o
 .debug_aranges
                0x00002cf0       0x20 obj/external/ap-cp-gateway/Appl/GenData/MemIf_Cfg.o
 .debug_aranges
                0x00002d10       0x18 obj/external/ap-cp-gateway/Appl/GenData/Nm_Cfg.o
 .debug_aranges
                0x00002d28       0x18 obj/external/ap-cp-gateway/Appl/GenData/Nm_Lcfg.o
 .debug_aranges
                0x00002d40       0x20 obj/external/ap-cp-gateway/Appl/GenData/NvM_Cfg.o
 .debug_aranges
                0x00002d60       0x18 obj/external/ap-cp-gateway/Appl/GenData/Os_AccessCheck_Lcfg.o
 .debug_aranges
                0x00002d78       0x18 obj/external/ap-cp-gateway/Appl/GenData/Os_Alarm_Lcfg.o
 .debug_aranges
                0x00002d90       0x18 obj/external/ap-cp-gateway/Appl/GenData/Os_Application_Lcfg.o
 .debug_aranges
                0x00002da8       0x18 obj/external/ap-cp-gateway/Appl/GenData/Os_Barrier_Lcfg.o
 .debug_aranges
                0x00002dc0       0x18 obj/external/ap-cp-gateway/Appl/GenData/Os_Core_Lcfg.o
 .debug_aranges
                0x00002dd8       0x18 obj/external/ap-cp-gateway/Appl/GenData/Os_Counter_Lcfg.o
 .debug_aranges
                0x00002df0       0x18 obj/external/ap-cp-gateway/Appl/GenData/Os_Error_Lcfg.o
 .debug_aranges
                0x00002e08       0x18 obj/external/ap-cp-gateway/Appl/GenData/Os_Hal_Context_Lcfg.o
 .debug_aranges
                0x00002e20       0x18 obj/external/ap-cp-gateway/Appl/GenData/Os_Hal_Core_Lcfg.o
 .debug_aranges
                0x00002e38       0x18 obj/external/ap-cp-gateway/Appl/GenData/Os_Hal_Entry_Lcfg.o
 .debug_aranges
                0x00002e50       0x18 obj/external/ap-cp-gateway/Appl/GenData/Os_Hal_Interrupt_Lcfg.o
 .debug_aranges
                0x00002e68       0x18 obj/external/ap-cp-gateway/Appl/GenData/Os_Hal_Kernel_Lcfg.o
 .debug_aranges
                0x00002e80       0x18 obj/external/ap-cp-gateway/Appl/GenData/Os_Hal_MemoryProtection_Lcfg.o
 .debug_aranges
                0x00002e98       0x18 obj/external/ap-cp-gateway/Appl/GenData/Os_Hal_Timer_Lcfg.o
 .debug_aranges
                0x00002eb0       0x18 obj/external/ap-cp-gateway/Appl/GenData/Os_Hook_Lcfg.o
 .debug_aranges
                0x00002ec8       0x18 obj/external/ap-cp-gateway/Appl/GenData/Os_Ioc_Lcfg.o
 .debug_aranges
                0x00002ee0       0x18 obj/external/ap-cp-gateway/Appl/GenData/Os_Isr_Lcfg.o
 .debug_aranges
                0x00002ef8       0x18 obj/external/ap-cp-gateway/Appl/GenData/Os_MemoryProtection_Lcfg.o
 .debug_aranges
                0x00002f10       0x18 obj/external/ap-cp-gateway/Appl/GenData/Os_Peripheral_Lcfg.o
 .debug_aranges
                0x00002f28       0x18 obj/external/ap-cp-gateway/Appl/GenData/Os_Resource_Lcfg.o
 .debug_aranges
                0x00002f40       0x18 obj/external/ap-cp-gateway/Appl/GenData/Os_ScheduleTable_Lcfg.o
 .debug_aranges
                0x00002f58       0x18 obj/external/ap-cp-gateway/Appl/GenData/Os_Scheduler_Lcfg.o
 .debug_aranges
                0x00002f70       0x18 obj/external/ap-cp-gateway/Appl/GenData/Os_ServiceFunction_Lcfg.o
 .debug_aranges
                0x00002f88       0x18 obj/external/ap-cp-gateway/Appl/GenData/Os_Spinlock_Lcfg.o
 .debug_aranges
                0x00002fa0       0x18 obj/external/ap-cp-gateway/Appl/GenData/Os_Stack_Lcfg.o
 .debug_aranges
                0x00002fb8       0x18 obj/external/ap-cp-gateway/Appl/GenData/Os_Task_Lcfg.o
 .debug_aranges
                0x00002fd0       0x18 obj/external/ap-cp-gateway/Appl/GenData/Os_TimingProtection_Lcfg.o
 .debug_aranges
                0x00002fe8       0x18 obj/external/ap-cp-gateway/Appl/GenData/Os_Trace_Lcfg.o
 .debug_aranges
                0x00003000       0x18 obj/external/ap-cp-gateway/Appl/GenData/Os_XSignal_Lcfg.o
 .debug_aranges
                0x00003018       0x20 obj/external/ap-cp-gateway/Appl/GenData/PduR_Lcfg.o
 .debug_aranges
                0x00003038       0x18 obj/external/ap-cp-gateway/Appl/GenData/PduR_PBcfg.o
 .debug_aranges
                0x00003050       0x28 obj/external/ap-cp-gateway/Appl/GenData/Rte.o
 .debug_aranges
                0x00003078       0x18 obj/external/ap-cp-gateway/Appl/GenData/Xcp_Lcfg.o
 .debug_aranges
                0x00003090       0x18 obj/external/ap-cp-gateway/Appl/GenData/src/CDD_Mcl_Cfg.o
 .debug_aranges
                0x000030a8       0x18 obj/external/ap-cp-gateway/Appl/GenData/src/CDD_Mcl_PBcfg.o
 .debug_aranges
                0x000030c0       0x18 obj/external/ap-cp-gateway/Appl/GenData/src/Clock_Ip_Cfg.o
 .debug_aranges
                0x000030d8       0x18 obj/external/ap-cp-gateway/Appl/GenData/src/Clock_Ip_PBcfg.o
 .debug_aranges
                0x000030f0       0x18 obj/external/ap-cp-gateway/Appl/GenData/src/Dio_Cfg.o
 .debug_aranges
                0x00003108       0x18 obj/external/ap-cp-gateway/Appl/GenData/src/Dma_Ip_Cfg.o
 .debug_aranges
                0x00003120       0x18 obj/external/ap-cp-gateway/Appl/GenData/src/Dma_Ip_PBcfg.o
 .debug_aranges
                0x00003138       0x18 obj/external/ap-cp-gateway/Appl/GenData/src/Fls_Cfg.o
 .debug_aranges
                0x00003150       0x18 obj/external/ap-cp-gateway/Appl/GenData/src/Fls_PBcfg.o
 .debug_aranges
                0x00003168       0x18 obj/external/ap-cp-gateway/Appl/GenData/src/Mcu_Cfg.o
 .debug_aranges
                0x00003180       0x18 obj/external/ap-cp-gateway/Appl/GenData/src/Mcu_PBcfg.o
 .debug_aranges
                0x00003198       0x18 obj/external/ap-cp-gateway/Appl/GenData/src/OsIf_Cfg.o
 .debug_aranges
                0x000031b0       0x18 obj/external/ap-cp-gateway/Appl/GenData/src/Port_Cfg.o
 .debug_aranges
                0x000031c8       0x18 obj/external/ap-cp-gateway/Appl/GenData/src/Port_PBcfg.o
 .debug_aranges
                0x000031e0       0x18 obj/external/ap-cp-gateway/Appl/GenData/src/Power_Ip_Cfg.o
 .debug_aranges
                0x000031f8       0x18 obj/external/ap-cp-gateway/Appl/GenData/src/Power_Ip_PBcfg.o
 .debug_aranges
                0x00003210       0x18 obj/external/ap-cp-gateway/Appl/GenData/src/Qspi_Ip_PBcfg.o
 .debug_aranges
                0x00003228       0x18 obj/external/ap-cp-gateway/Appl/GenData/src/Ram_Ip_Cfg.o
 .debug_aranges
                0x00003240       0x18 obj/external/ap-cp-gateway/Appl/GenData/src/Ram_Ip_PBcfg.o
 .debug_aranges
                0x00003258       0x18 obj/external/ap-cp-gateway/Appl/GenData/src/Siul2_Port_Ip_PBcfg.o
 .debug_aranges
                0x00003270       0x18 obj/external/ap-cp-gateway/Appl/GenData/vBrs_Lcfg.o
 .debug_aranges
                0x00003288       0x18 obj/external/ap-cp-gateway/Appl/GenData/vLinkGen_Lcfg.o
 .debug_aranges
                0x000032a0       0x20 obj/external/ap-cp-gateway/Appl/Source/ARMBrsHwIntTb_CortexM.o
 .debug_aranges
                0x000032c0       0x20 obj/external/ap-cp-gateway/Appl/Source/ARMBrsHw_CortexM.o
 .debug_aranges
                0x000032e0       0x18 obj/external/ap-cp-gateway/Appl/Source/ARMStartup_CortexM.o
 .debug_aranges
                0x000032f8       0x28 obj/external/ap-cp-gateway/Appl/Source/BrsHw.o
 .debug_aranges
                0x00003320       0x30 obj/external/ap-cp-gateway/Appl/Source/BrsMain.o
 .debug_aranges
                0x00003350       0x30 obj/external/ap-cp-gateway/Appl/Source/BrsMainStartup.o
 .debug_aranges
                0x00003380       0x20 obj/external/ap-cp-gateway/Appl/Source/BrsMain_Callout_Stubs.o
 .debug_aranges
                0x000033a0       0x20 obj/external/ap-cp-gateway/Appl/Source/BswInit.o
 .debug_aranges
                0x000033c0       0x20 obj/external/ap-cp-gateway/Appl/Source/BswM_Callout_Stubs.o
 .debug_aranges
                0x000033e0       0x20 obj/external/ap-cp-gateway/Appl/Source/Dcm_Callout_Stubs.o
 .debug_aranges
                0x00003400       0x20 obj/external/ap-cp-gateway/Appl/Source/EcuM_Callout_Stubs.o
 .debug_aranges
                0x00003420       0x20 obj/external/ap-cp-gateway/Appl/Source/Os_Callout_Stubs.o
 .debug_aranges
                0x00003440       0x20 obj/external/ap-cp-gateway/Appl/Source/XcpAppl.o
 .debug_aranges
                0x00003460       0x20 obj/external/ap-cp-gateway/Appl/Source/ipc-shm/Cdd_Ipc.o
 .debug_aranges
                0x00003480       0x18 obj/external/ap-cp-gateway/Appl/Source/ipc-shm/Cdd_Ipc_Lcfg.o
 .debug_aranges
                0x00003498       0x20 obj/external/ap-cp-gateway/Appl/Source/ipc-shm/common/ipc-queue.o
 .debug_aranges
                0x000034b8       0x20 obj/external/ap-cp-gateway/Appl/Source/ipc-shm/common/ipc-shm.o
 .debug_aranges
                0x000034d8       0x20 obj/external/ap-cp-gateway/Appl/Source/ipc-shm/hw/s32gen1/ipc-hw-s32gen1.o
 .debug_aranges
                0x000034f8       0x30 obj/external/ap-cp-gateway/Appl/Source/ipc-shm/os/autosar/ipc-os-autosar.o

.debug_str      0x00000000    0x6f8d5
 .debug_str     0x00000000       0xa7 obj/external/Components/Os/Implementation/Os_Hal_Compiler_TiInt.o
 .debug_str     0x000000a7       0x56 obj/external/Components/Os/Implementation/Os_Hal_ContextAsm.o
                                 0xb4 (size before relaxing)
 .debug_str     0x000000fd       0x46 obj/external/ap-cp-gateway/Appl/GenData/Os_Hal_EntryAsm_Lcfg.o
                                 0xa4 (size before relaxing)
 .debug_str     0x00000143     0xfb8d obj/external/Components/BswM/Implementation/BswM.o
                              0x10e84 (size before relaxing)
 .debug_str     0x0000fcd0      0x8f2 obj/external/Components/CanIf/Implementation/CanIf.o
                               0x407d (size before relaxing)
 .debug_str     0x000105c2      0x4a7 obj/external/Components/CanNm/Implementation/CanNm.o
                               0x54d2 (size before relaxing)
 .debug_str     0x00010a69      0x61c obj/external/Components/CanSM/Implementation/CanSM.o
                               0x4662 (size before relaxing)
 .debug_str     0x00011085      0x927 obj/external/Components/CanTp/Implementation/CanTp.o
                               0x4763 (size before relaxing)
 .debug_str     0x000119ac      0x20e obj/external/Components/CanXcp/Implementation/CanXcp.o
                               0x3d7a (size before relaxing)
 .debug_str     0x00011bba     0x163f obj/external/Components/Can_30_Flexcan4/Implementation/Can_30_Flexcan4.o
                               0x4fc3 (size before relaxing)
 .debug_str     0x000131f9       0x97 obj/external/Components/Can_30_Flexcan4/Implementation/Can_30_Flexcan4_Irq.o
                               0x2095 (size before relaxing)
 .debug_str     0x00013290      0xa10 obj/external/Components/Com/Implementation/Com.o
                               0x353f (size before relaxing)
 .debug_str     0x00013ca0      0x38b obj/external/Components/Com/Implementation/Com_Buffers.o
                               0x2e6c (size before relaxing)
 .debug_str     0x0001402b       0x3f obj/external/Components/Com/Implementation/Com_CprQueue.o
                               0x2a7c (size before relaxing)
 .debug_str     0x0001406a       0x46 obj/external/Components/Com/Implementation/Com_CprQueueDescrGw.o
                               0x2a83 (size before relaxing)
 .debug_str     0x000140b0       0x44 obj/external/Components/Com/Implementation/Com_CprQueueSigGw.o
                               0x2a81 (size before relaxing)
 .debug_str     0x000140f4       0x49 obj/external/Components/Com/Implementation/Com_DescriptionGateway.o
                               0x2a86 (size before relaxing)
 .debug_str     0x0001413d      0x1c0 obj/external/Components/Com/Implementation/Com_Deserializer.o
                               0x2c55 (size before relaxing)
 .debug_str     0x000142fd      0x571 obj/external/Components/Com/Implementation/Com_IPduGroupHdlr.o
                               0x3195 (size before relaxing)
 .debug_str     0x0001486e       0xfe obj/external/Components/Com/Implementation/Com_LLIf.o
                               0x2c8a (size before relaxing)
 .debug_str     0x0001496c       0xfa obj/external/Components/Com/Implementation/Com_LMgt.o
                               0x2c63 (size before relaxing)
 .debug_str     0x00014a66      0x23f obj/external/Components/Com/Implementation/Com_MainFunctions.o
                               0x2c9f (size before relaxing)
 .debug_str     0x00014ca5       0x44 obj/external/Components/Com/Implementation/Com_Notifications.o
                               0x2a81 (size before relaxing)
 .debug_str     0x00014ce9       0x3c obj/external/Components/Com/Implementation/Com_RxInv.o
                               0x2a79 (size before relaxing)
 .debug_str     0x00014d25      0x490 obj/external/Components/Com/Implementation/Com_RxProcessing.o
                               0x31fa (size before relaxing)
 .debug_str     0x000151b5      0x1f6 obj/external/Components/Com/Implementation/Com_Serializer.o
                               0x2c7e (size before relaxing)
 .debug_str     0x000153ab       0x47 obj/external/Components/Com/Implementation/Com_SignalFilterHdlr.o
                               0x2a84 (size before relaxing)
 .debug_str     0x000153f2       0x44 obj/external/Components/Com/Implementation/Com_SignalGateway.o
                               0x2a81 (size before relaxing)
 .debug_str     0x00015436      0x187 obj/external/Components/Com/Implementation/Com_SignalIf.o
                               0x2e35 (size before relaxing)
 .debug_str     0x000155bd       0x3c obj/external/Components/Com/Implementation/Com_Timer.o
                               0x2a79 (size before relaxing)
 .debug_str     0x000155f9      0x399 obj/external/Components/Com/Implementation/Com_TxModeHdlr.o
                               0x2fe0 (size before relaxing)
 .debug_str     0x00015992      0x7b7 obj/external/Components/ComM/Implementation/ComM.o
                               0x160c (size before relaxing)
 .debug_str     0x00016149      0x20c obj/external/Components/Crc/Implementation/Crc.o
                                0x413 (size before relaxing)
 .debug_str     0x00016355     0x3cbf obj/external/Components/Dcm/Implementation/Dcm.o
                               0x8e2f (size before relaxing)
 .debug_str     0x0001a014       0x3e obj/external/Components/Dcm/Implementation/Dcm_AuthMgr.o
                                0x21e (size before relaxing)
 .debug_str     0x0001a052       0x3e obj/external/Components/Dcm/Implementation/Dcm_CfgWrap.o
                               0x46b9 (size before relaxing)
 .debug_str     0x0001a090       0x63 obj/external/Components/Dcm/Implementation/Dcm_Debug.o
                               0x4763 (size before relaxing)
 .debug_str     0x0001a0f3       0xc5 obj/external/Components/Dcm/Implementation/Dcm_DemIf.o
                               0x484f (size before relaxing)
 .debug_str     0x0001a1b8       0x3b obj/external/Components/Dcm/Implementation/Dcm_Diag.o
                                0x21b (size before relaxing)
 .debug_str     0x0001a1f3      0xd98 obj/external/Components/Dcm/Implementation/Dcm_DidMgr.o
                               0x66e5 (size before relaxing)
 .debug_str     0x0001af8b       0x3a obj/external/Components/Dcm/Implementation/Dcm_Ext.o
                               0x5604 (size before relaxing)
 .debug_str     0x0001afc5       0x3d obj/external/Components/Dcm/Implementation/Dcm_FblMgr.o
                                0x21d (size before relaxing)
 .debug_str     0x0001b002      0x1c9 obj/external/Components/Dcm/Implementation/Dcm_MemMgr.o
                               0x5964 (size before relaxing)
 .debug_str     0x0001b1cb      0x38a obj/external/Components/Dcm/Implementation/Dcm_Mode.o
                               0x5a1c (size before relaxing)
 .debug_str     0x0001b555       0x3a obj/external/Components/Dcm/Implementation/Dcm_Net.o
                               0x467a (size before relaxing)
 .debug_str     0x0001b58f       0x40 obj/external/Components/Dcm/Implementation/Dcm_ObdDtcMgr.o
                                0x220 (size before relaxing)
 .debug_str     0x0001b5cf      0x141 obj/external/Components/Dcm/Implementation/Dcm_ObdIdMgr.o
                               0x57ab (size before relaxing)
 .debug_str     0x0001b710       0x42 obj/external/Components/Dcm/Implementation/Dcm_PagedBuffer.o
                               0x4682 (size before relaxing)
 .debug_str     0x0001b752       0xef obj/external/Components/Dcm/Implementation/Dcm_Repeater.o
                               0x57fd (size before relaxing)
 .debug_str     0x0001b841      0x2b9 obj/external/Components/Dcm/Implementation/Dcm_RidMgr.o
                               0x5a39 (size before relaxing)
 .debug_str     0x0001bafa      0x1e1 obj/external/Components/Dcm/Implementation/Dcm_RsrcMgr.o
                               0x49b2 (size before relaxing)
 .debug_str     0x0001bcdb      0x32e obj/external/Components/Dcm/Implementation/Dcm_State.o
                               0x5b28 (size before relaxing)
 .debug_str     0x0001c009       0x3c obj/external/Components/Dcm/Implementation/Dcm_Svc01.o
                                0x21c (size before relaxing)
 .debug_str     0x0001c045       0x3c obj/external/Components/Dcm/Implementation/Dcm_Svc02.o
                                0x21c (size before relaxing)
 .debug_str     0x0001c081       0x3c obj/external/Components/Dcm/Implementation/Dcm_Svc03.o
                                0x21c (size before relaxing)
 .debug_str     0x0001c0bd       0x3c obj/external/Components/Dcm/Implementation/Dcm_Svc04.o
                                0x21c (size before relaxing)
 .debug_str     0x0001c0f9       0x3c obj/external/Components/Dcm/Implementation/Dcm_Svc06.o
                                0x21c (size before relaxing)
 .debug_str     0x0001c135       0x3c obj/external/Components/Dcm/Implementation/Dcm_Svc07.o
                                0x21c (size before relaxing)
 .debug_str     0x0001c171       0x3c obj/external/Components/Dcm/Implementation/Dcm_Svc08.o
                                0x21c (size before relaxing)
 .debug_str     0x0001c1ad       0x3c obj/external/Components/Dcm/Implementation/Dcm_Svc09.o
                                0x21c (size before relaxing)
 .debug_str     0x0001c1e9       0x3c obj/external/Components/Dcm/Implementation/Dcm_Svc0A.o
                                0x21c (size before relaxing)
 .debug_str     0x0001c225      0x16e obj/external/Components/Dcm/Implementation/Dcm_Svc11.o
                               0x58db (size before relaxing)
 .debug_str     0x0001c393      0x166 obj/external/Components/Dcm/Implementation/Dcm_Svc14.o
                               0x5827 (size before relaxing)
 .debug_str     0x0001c4f9      0x696 obj/external/Components/Dcm/Implementation/Dcm_Svc19.o
                               0x5ea1 (size before relaxing)
 .debug_str     0x0001cb8f      0x71e obj/external/Components/Dcm/Implementation/Dcm_Svc19Uti.o
                               0x6351 (size before relaxing)
 .debug_str     0x0001d2ad      0x151 obj/external/Components/Dcm/Implementation/Dcm_Svc22.o
                               0x5a45 (size before relaxing)
 .debug_str     0x0001d3fe       0xdc obj/external/Components/Dcm/Implementation/Dcm_Svc23.o
                               0x5992 (size before relaxing)
 .debug_str     0x0001d4da       0x3c obj/external/Components/Dcm/Implementation/Dcm_Svc24.o
                                0x21c (size before relaxing)
 .debug_str     0x0001d516      0x34f obj/external/Components/Dcm/Implementation/Dcm_Svc27.o
                               0x5c26 (size before relaxing)
 .debug_str     0x0001d865      0x19e obj/external/Components/Dcm/Implementation/Dcm_Svc28.o
                               0x59fd (size before relaxing)
 .debug_str     0x0001da03       0x3c obj/external/Components/Dcm/Implementation/Dcm_Svc29.o
                                0x21c (size before relaxing)
 .debug_str     0x0001da3f      0x24e obj/external/Components/Dcm/Implementation/Dcm_Svc2A.o
                               0x5bed (size before relaxing)
 .debug_str     0x0001dc8d      0x37c obj/external/Components/Dcm/Implementation/Dcm_Svc2ASchd.o
                               0x5e44 (size before relaxing)
 .debug_str     0x0001e009       0xcf obj/external/Components/Dcm/Implementation/Dcm_Svc2E.o
                               0x58b3 (size before relaxing)
 .debug_str     0x0001e0d8      0x35e obj/external/Components/Dcm/Implementation/Dcm_Svc2F.o
                               0x5d4e (size before relaxing)
 .debug_str     0x0001e436      0x1c0 obj/external/Components/Dcm/Implementation/Dcm_Svc31.o
                               0x5a14 (size before relaxing)
 .debug_str     0x0001e5f6       0x3c obj/external/Components/Dcm/Implementation/Dcm_Svc34.o
                                0x21c (size before relaxing)
 .debug_str     0x0001e632       0x3c obj/external/Components/Dcm/Implementation/Dcm_Svc36.o
                                0x21c (size before relaxing)
 .debug_str     0x0001e66e       0x3c obj/external/Components/Dcm/Implementation/Dcm_Svc37.o
                                0x21c (size before relaxing)
 .debug_str     0x0001e6aa       0xdd obj/external/Components/Dcm/Implementation/Dcm_Svc3D.o
                               0x5962 (size before relaxing)
 .debug_str     0x0001e787       0x53 obj/external/Components/Dcm/Implementation/Dcm_Svc3E.o
                               0x566b (size before relaxing)
 .debug_str     0x0001e7da      0x15e obj/external/Components/Dcm/Implementation/Dcm_Svc85.o
                               0x5991 (size before relaxing)
 .debug_str     0x0001e938      0x326 obj/external/Components/Dcm/Implementation/Dcm_Tmr.o
                               0x5b29 (size before relaxing)
 .debug_str     0x0001ec5e      0x359 obj/external/Components/Dcm/Implementation/Dcm_Tsk.o
                               0x5b8d (size before relaxing)
 .debug_str     0x0001efb7      0x23d obj/external/Components/Dcm/Implementation/Dcm_Uti.o
                               0x4bf9 (size before relaxing)
 .debug_str     0x0001f1f4       0x7f obj/external/Components/Dcm/Implementation/Dcm_VarMgr.o
                               0x46fa (size before relaxing)
 .debug_str     0x0001f273    0x1654d obj/external/Components/Dem/Implementation/Dem.o
                              0x19cc9 (size before relaxing)
 .debug_str     0x000357c0       0xf6 obj/external/Components/Det/Implementation/Det.o
                                0x376 (size before relaxing)
 .debug_str     0x000358b6     0x1c27 obj/external/Components/EcuM/Implementation/EcuM.o
                               0x6c6d (size before relaxing)
 .debug_str     0x000374dd     0x3026 obj/external/Components/Fee/Implementation/Fee.o
                               0x3440 (size before relaxing)
 .debug_str     0x0003a503      0xa3c obj/external/Components/Fee/Implementation/Fee_ChunkInfo.o
                                0xe22 (size before relaxing)
 .debug_str     0x0003af3f       0x42 obj/external/Components/Fee/Implementation/Fee_LookUpTable.o
                               0x2de4 (size before relaxing)
 .debug_str     0x0003af81      0x5e5 obj/external/Components/Fee/Implementation/Fee_Partition.o
                               0x1b60 (size before relaxing)
 .debug_str     0x0003b566     0x2b1b obj/external/Components/Fee/Implementation/Fee_Processing.o
                               0x65d8 (size before relaxing)
 .debug_str     0x0003e081      0x129 obj/external/Components/Fee/Implementation/Fee_Sector.o
                               0x19a4 (size before relaxing)
 .debug_str     0x0003e1aa      0x372 obj/external/Components/IpduM/Implementation/IpduM.o
                               0x16a3 (size before relaxing)
 .debug_str     0x0003e51c      0xf53 obj/external/Components/IpduM/Implementation/IpduM_Container.o
                               0x242f (size before relaxing)
 .debug_str     0x0003f46f       0x3e obj/external/Components/IpduM/Implementation/IpduM_Mux.o
                               0x12b6 (size before relaxing)
 .debug_str     0x0003f4ad      0x214 obj/external/Components/MemIf/Implementation/MemIf.o
                                0x5f1 (size before relaxing)
 .debug_str     0x0003f6c1       0x95 obj/external/Components/Nm/Implementation/Nm.o
                                0xfb4 (size before relaxing)
 .debug_str     0x0003f756     0x204e obj/external/Components/NvM/Implementation/NvM.o
                               0x2630 (size before relaxing)
 .debug_str     0x000417a4      0xa07 obj/external/Components/NvM/Implementation/NvM_Act.o
                               0x2c5a (size before relaxing)
 .debug_str     0x000421ab      0x2d1 obj/external/Components/NvM/Implementation/NvM_Crc.o
                               0x24a2 (size before relaxing)
 .debug_str     0x0004247c      0x11e obj/external/Components/NvM/Implementation/NvM_DataIntegrity.o
                               0x23ca (size before relaxing)
 .debug_str     0x0004259a      0x1db obj/external/Components/NvM/Implementation/NvM_JobProc.o
                               0x23a1 (size before relaxing)
 .debug_str     0x00042775       0x3a obj/external/Components/NvM/Implementation/NvM_Mac.o
                               0x1d0b (size before relaxing)
 .debug_str     0x000427af       0x69 obj/external/Components/NvM/Implementation/NvM_MemIfAbstraction.o
                                0xd7d (size before relaxing)
 .debug_str     0x00042818       0x46 obj/external/Components/NvM/Implementation/NvM_MemIfMemoryCore.o
                                0x299 (size before relaxing)
 .debug_str     0x0004285e      0x475 obj/external/Components/NvM/Implementation/NvM_Qry.o
                               0x26ae (size before relaxing)
 .debug_str     0x00042cd3      0x19a obj/external/Components/NvM/Implementation/NvM_Queue.o
                               0x23ae (size before relaxing)
 .debug_str     0x00042e6d     0x6097 obj/external/Components/Os/Implementation/Os_AccessCheck.o
                               0x6df7 (size before relaxing)
 .debug_str     0x00048f04      0xeb8 obj/external/Components/Os/Implementation/Os_Alarm.o
                               0x7b70 (size before relaxing)
 .debug_str     0x00049dbc     0x150e obj/external/Components/Os/Implementation/Os_Application.o
                               0x88a6 (size before relaxing)
 .debug_str     0x0004b2ca      0x288 obj/external/Components/Os/Implementation/Os_Barrier.o
                               0x7019 (size before relaxing)
 .debug_str     0x0004b552       0x38 obj/external/Components/Os/Implementation/Os_Bit.o
                               0x6bcc (size before relaxing)
 .debug_str     0x0004b58a       0x3d obj/external/Components/Os/Implementation/Os_BitArray.o
                               0x6bd1 (size before relaxing)
 .debug_str     0x0004b5c7     0x1471 obj/external/Components/Os/Implementation/Os_Core.o
                               0x8fe4 (size before relaxing)
 .debug_str     0x0004ca38      0x6af obj/external/Components/Os/Implementation/Os_Counter.o
                               0x8658 (size before relaxing)
 .debug_str     0x0004d0e7       0x3a obj/external/Components/Os/Implementation/Os_Deque.o
                               0x6bce (size before relaxing)
 .debug_str     0x0004d121      0x94c obj/external/Components/Os/Implementation/Os_Error.o
                               0x7cbf (size before relaxing)
 .debug_str     0x0004da6d      0x494 obj/external/Components/Os/Implementation/Os_Event.o
                               0x8416 (size before relaxing)
 .debug_str     0x0004df01       0x39 obj/external/Components/Os/Implementation/Os_Fifo.o
                               0x6bcd (size before relaxing)
 .debug_str     0x0004df3a       0x3b obj/external/Components/Os/Implementation/Os_Fifo08.o
                               0x6bcf (size before relaxing)
 .debug_str     0x0004df75       0x3b obj/external/Components/Os/Implementation/Os_Fifo16.o
                               0x6bcf (size before relaxing)
 .debug_str     0x0004dfb0       0x3b obj/external/Components/Os/Implementation/Os_Fifo32.o
                               0x6bcf (size before relaxing)
 .debug_str     0x0004dfeb       0x3c obj/external/Components/Os/Implementation/Os_FifoRef.o
                               0x6bd0 (size before relaxing)
 .debug_str     0x0004e027       0x45 obj/external/Components/Os/Implementation/Os_Hal_Compiler_Arm.o
                                0x225 (size before relaxing)
 .debug_str     0x0004e06c       0x45 obj/external/Components/Os/Implementation/Os_Hal_Compiler_Iar.o
                                0x225 (size before relaxing)
 .debug_str     0x0004e0b1       0xd6 obj/external/Components/Os/Implementation/Os_Hal_Context.o
                               0x6d86 (size before relaxing)
 .debug_str     0x0004e187       0xd5 obj/external/Components/Os/Implementation/Os_Hal_Core.o
                               0x6d20 (size before relaxing)
 .debug_str     0x0004e25c       0x3e obj/external/Components/Os/Implementation/Os_Hal_Entry.o
                               0x6bd2 (size before relaxing)
 .debug_str     0x0004e29a      0x7fe obj/external/Components/Os/Implementation/Os_Hook.o
                               0x8844 (size before relaxing)
 .debug_str     0x0004ea98      0x6eb obj/external/Components/Os/Implementation/Os_Interrupt.o
                               0x7e5c (size before relaxing)
 .debug_str     0x0004f183     0x1440 obj/external/Components/Os/Implementation/Os_Ioc.o
                               0x8680 (size before relaxing)
 .debug_str     0x000505c3      0x5f5 obj/external/Components/Os/Implementation/Os_Isr.o
                               0x8dcd (size before relaxing)
 .debug_str     0x00050bb8       0x38 obj/external/Components/Os/Implementation/Os_Job.o
                               0x6bcc (size before relaxing)
 .debug_str     0x00050bf0       0x39 obj/external/Components/Os/Implementation/Os_Lock.o
                               0x6bcd (size before relaxing)
 .debug_str     0x00050c29       0x51 obj/external/Components/Os/Implementation/Os_MemoryProtection.o
                               0x6f44 (size before relaxing)
 .debug_str     0x00050c7a      0x256 obj/external/Components/Os/Implementation/Os_Peripheral.o
                               0x7032 (size before relaxing)
 .debug_str     0x00050ed0      0x1ee obj/external/Components/Os/Implementation/Os_PriorityQueue.o
                               0x6ef9 (size before relaxing)
 .debug_str     0x000510be      0x65c obj/external/Components/Os/Implementation/Os_Resource.o
                               0x86df (size before relaxing)
 .debug_str     0x0005171a      0xbf6 obj/external/Components/Os/Implementation/Os_ScheduleTable.o
                               0x8022 (size before relaxing)
 .debug_str     0x00052310      0x4e6 obj/external/Components/Os/Implementation/Os_Scheduler.o
                               0x73d3 (size before relaxing)
 .debug_str     0x000527f6      0x53c obj/external/Components/Os/Implementation/Os_ServiceFunction.o
                               0x7f73 (size before relaxing)
 .debug_str     0x00052d32      0x2d7 obj/external/Components/Os/Implementation/Os_Spinlock.o
                               0x8498 (size before relaxing)
 .debug_str     0x00053009      0x622 obj/external/Components/Os/Implementation/Os_Stack.o
                               0x7688 (size before relaxing)
 .debug_str     0x0005362b      0x3a7 obj/external/Components/Os/Implementation/Os_Task.o
                               0x8b29 (size before relaxing)
 .debug_str     0x000539d2       0x78 obj/external/Components/Os/Implementation/Os_Thread.o
                               0x7ba8 (size before relaxing)
 .debug_str     0x00053a4a      0x20a obj/external/Components/Os/Implementation/Os_Timer.o
                               0x7521 (size before relaxing)
 .debug_str     0x00053c54      0x118 obj/external/Components/Os/Implementation/Os_TimingProtection.o
                               0x757f (size before relaxing)
 .debug_str     0x00053d6c       0x3a obj/external/Components/Os/Implementation/Os_Trace.o
                               0x6bce (size before relaxing)
 .debug_str     0x00053da6     0x5c0e obj/external/Components/Os/Implementation/Os_Trap.o
                               0xf50f (size before relaxing)
 .debug_str     0x000599b4      0x9f7 obj/external/Components/Os/Implementation/Os_XSignal.o
                               0x8177 (size before relaxing)
 .debug_str     0x0005a3ab      0x4a3 obj/external/Components/PduR/Implementation/PduR.o
                               0x8357 (size before relaxing)
 .debug_str     0x0005a84e      0x948 obj/external/Components/PduR/Implementation/PduR_Bm.o
                               0x8803 (size before relaxing)
 .debug_str     0x0005b196      0x45d obj/external/Components/PduR/Implementation/PduR_Fm.o
                               0x84ae (size before relaxing)
 .debug_str     0x0005b5f3       0x3c obj/external/Components/PduR/Implementation/PduR_IFQ.o
                               0x7e74 (size before relaxing)
 .debug_str     0x0005b62f      0x15d obj/external/Components/PduR/Implementation/PduR_Lock.o
                               0x7fa8 (size before relaxing)
 .debug_str     0x0005b78c       0x3c obj/external/Components/PduR/Implementation/PduR_McQ.o
                               0x7e74 (size before relaxing)
 .debug_str     0x0005b7c8      0x2b2 obj/external/Components/PduR/Implementation/PduR_RmIf.o
                               0x832c (size before relaxing)
 .debug_str     0x0005ba7a       0x83 obj/external/Components/PduR/Implementation/PduR_RmTp.o
                               0x80a6 (size before relaxing)
 .debug_str     0x0005bafd       0x44 obj/external/Components/PduR/Implementation/PduR_RmTp_TxInst.o
                               0x7e7c (size before relaxing)
 .debug_str     0x0005bb41       0x3b obj/external/Components/PduR/Implementation/PduR_Sm.o
                               0x7e73 (size before relaxing)
 .debug_str     0x0005bb7c      0xb2c obj/external/Components/VStdLib/Implementation/vstdlib.o
                                0xdcb (size before relaxing)
 .debug_str     0x0005c6a8      0x6e3 obj/external/Components/Xcp/Implementation/Xcp.o
                                0xedf (size before relaxing)
 .debug_str     0x0005cd8b       0x7e obj/external/ThirdParty/Mcal_S32x/Supply/SW32G_RTD_4.4_3.0.4/eclipse/plugins/Base_TS_T40D11M30I4R0/src/OsIf_Interrupts.o
                                0x25e (size before relaxing)
 .debug_str     0x0005ce09      0x18d obj/external/ThirdParty/Mcal_S32x/Supply/SW32G_RTD_4.4_3.0.4/eclipse/plugins/Base_TS_T40D11M30I4R0/src/OsIf_Timer.o
                                0x386 (size before relaxing)
 .debug_str     0x0005cf96       0x80 obj/external/ThirdParty/Mcal_S32x/Supply/SW32G_RTD_4.4_3.0.4/eclipse/plugins/Base_TS_T40D11M30I4R0/src/OsIf_Timer_System.o
                                0x260 (size before relaxing)
 .debug_str     0x0005d016       0x91 obj/external/ThirdParty/Mcal_S32x/Supply/SW32G_RTD_4.4_3.0.4/eclipse/plugins/Base_TS_T40D11M30I4R0/src/OsIf_Timer_System_Internal_Systick.o
                                0x271 (size before relaxing)
 .debug_str     0x0005d0a7      0x30a obj/external/ThirdParty/Mcal_S32x/Supply/SW32G_RTD_4.4_3.0.4/eclipse/plugins/Dio_TS_T40D11M30I4R0/src/Dio.o
                                0x531 (size before relaxing)
 .debug_str     0x0005d3b1      0x18e obj/external/ThirdParty/Mcal_S32x/Supply/SW32G_RTD_4.4_3.0.4/eclipse/plugins/Dio_TS_T40D11M30I4R0/src/Dio_Ipw.o
                                0x575 (size before relaxing)
 .debug_str     0x0005d53f      0xc57 obj/external/ThirdParty/Mcal_S32x/Supply/SW32G_RTD_4.4_3.0.4/eclipse/plugins/Dio_TS_T40D11M30I4R0/src/Siul2_Dio_Ip.o
                                0xfcd (size before relaxing)
 .debug_str     0x0005e196      0x7b9 obj/external/ThirdParty/Mcal_S32x/Supply/SW32G_RTD_4.4_3.0.4/eclipse/plugins/Fls_TS_T40D11M30I4R0/src/Fls.o
                               0x1b80 (size before relaxing)
 .debug_str     0x0005e94f      0x3ce obj/external/ThirdParty/Mcal_S32x/Supply/SW32G_RTD_4.4_3.0.4/eclipse/plugins/Fls_TS_T40D11M30I4R0/src/Fls_IPW.o
                               0x1734 (size before relaxing)
 .debug_str     0x0005ed1d      0x6ee obj/external/ThirdParty/Mcal_S32x/Supply/SW32G_RTD_4.4_3.0.4/eclipse/plugins/Fls_TS_T40D11M30I4R0/src/Qspi_Ip.o
                               0x15a0 (size before relaxing)
 .debug_str     0x0005f40b      0xb6d obj/external/ThirdParty/Mcal_S32x/Supply/SW32G_RTD_4.4_3.0.4/eclipse/plugins/Fls_TS_T40D11M30I4R0/src/Qspi_Ip_Controller.o
                               0x1c32 (size before relaxing)
 .debug_str     0x0005ff78     0x11e8 obj/external/ThirdParty/Mcal_S32x/Supply/SW32G_RTD_4.4_3.0.4/eclipse/plugins/Fls_TS_T40D11M30I4R0/src/Qspi_Ip_Sfdp.o
                               0x219a (size before relaxing)
 .debug_str     0x00061160       0xf4 obj/external/ThirdParty/Mcal_S32x/Supply/SW32G_RTD_4.4_3.0.4/eclipse/plugins/Mcl_TS_T40D11M30I4R0/src/CDD_Mcl.o
                                0x2f6 (size before relaxing)
 .debug_str     0x00061254       0x74 obj/external/ThirdParty/Mcal_S32x/Supply/SW32G_RTD_4.4_3.0.4/eclipse/plugins/Mcl_TS_T40D11M30I4R0/src/Dma_Ip.o
                                0x254 (size before relaxing)
 .debug_str     0x000612c8       0x81 obj/external/ThirdParty/Mcal_S32x/Supply/SW32G_RTD_4.4_3.0.4/eclipse/plugins/Mcl_TS_T40D11M30I4R0/src/Dma_Ip_Driver_State.o
                                0x261 (size before relaxing)
 .debug_str     0x00061349       0x7e obj/external/ThirdParty/Mcal_S32x/Supply/SW32G_RTD_4.4_3.0.4/eclipse/plugins/Mcl_TS_T40D11M30I4R0/src/Dma_Ip_Hw_Access.o
                                0x25e (size before relaxing)
 .debug_str     0x000613c7       0x78 obj/external/ThirdParty/Mcal_S32x/Supply/SW32G_RTD_4.4_3.0.4/eclipse/plugins/Mcl_TS_T40D11M30I4R0/src/Dma_Ip_Irq.o
                                0x258 (size before relaxing)
 .debug_str     0x0006143f       0x7e obj/external/ThirdParty/Mcal_S32x/Supply/SW32G_RTD_4.4_3.0.4/eclipse/plugins/Mcl_TS_T40D11M30I4R0/src/Dma_Ip_Multicore.o
                                0x25e (size before relaxing)
 .debug_str     0x000614bd       0x78 obj/external/ThirdParty/Mcal_S32x/Supply/SW32G_RTD_4.4_3.0.4/eclipse/plugins/Mcl_TS_T40D11M30I4R0/src/Ftm_Mcl_Ip.o
                                0x258 (size before relaxing)
 .debug_str     0x00061535     0x11c5 obj/external/ThirdParty/Mcal_S32x/Supply/SW32G_RTD_4.4_3.0.4/eclipse/plugins/Mcu_TS_T40D11M30I4R0/src/Clock_Ip.o
                               0x2427 (size before relaxing)
 .debug_str     0x000626fa      0x791 obj/external/ThirdParty/Mcal_S32x/Supply/SW32G_RTD_4.4_3.0.4/eclipse/plugins/Mcu_TS_T40D11M30I4R0/src/Clock_Ip_Data.o
                               0x2617 (size before relaxing)
 .debug_str     0x00062e8b       0x7c obj/external/ThirdParty/Mcal_S32x/Supply/SW32G_RTD_4.4_3.0.4/eclipse/plugins/Mcu_TS_T40D11M30I4R0/src/Clock_Ip_Data1.o
                               0x1e34 (size before relaxing)
 .debug_str     0x00062f07       0x7c obj/external/ThirdParty/Mcal_S32x/Supply/SW32G_RTD_4.4_3.0.4/eclipse/plugins/Mcu_TS_T40D11M30I4R0/src/Clock_Ip_Data2.o
                               0x1e34 (size before relaxing)
 .debug_str     0x00062f83      0x168 obj/external/ThirdParty/Mcal_S32x/Supply/SW32G_RTD_4.4_3.0.4/eclipse/plugins/Mcu_TS_T40D11M30I4R0/src/Clock_Ip_Divider.o
                               0x20ce (size before relaxing)
 .debug_str     0x000630eb       0xab obj/external/ThirdParty/Mcal_S32x/Supply/SW32G_RTD_4.4_3.0.4/eclipse/plugins/Mcu_TS_T40D11M30I4R0/src/Clock_Ip_DividerTrigger.o
                               0x1e75 (size before relaxing)
 .debug_str     0x00063196      0x19f obj/external/ThirdParty/Mcal_S32x/Supply/SW32G_RTD_4.4_3.0.4/eclipse/plugins/Mcu_TS_T40D11M30I4R0/src/Clock_Ip_ExtOsc.o
                               0x2118 (size before relaxing)
 .debug_str     0x00063335      0x134 obj/external/ThirdParty/Mcal_S32x/Supply/SW32G_RTD_4.4_3.0.4/eclipse/plugins/Mcu_TS_T40D11M30I4R0/src/Clock_Ip_FracDiv.o
                               0x20c9 (size before relaxing)
 .debug_str     0x00063469       0x80 obj/external/ThirdParty/Mcal_S32x/Supply/SW32G_RTD_4.4_3.0.4/eclipse/plugins/Mcu_TS_T40D11M30I4R0/src/Clock_Ip_Frequency.o
                               0x1e38 (size before relaxing)
 .debug_str     0x000634e9       0x81 obj/external/ThirdParty/Mcal_S32x/Supply/SW32G_RTD_4.4_3.0.4/eclipse/plugins/Mcu_TS_T40D11M30I4R0/src/Clock_Ip_Frequency1.o
                               0x1e39 (size before relaxing)
 .debug_str     0x0006356a       0x81 obj/external/ThirdParty/Mcal_S32x/Supply/SW32G_RTD_4.4_3.0.4/eclipse/plugins/Mcu_TS_T40D11M30I4R0/src/Clock_Ip_Frequency2.o
                               0x1e39 (size before relaxing)
 .debug_str     0x000635eb      0x16d obj/external/ThirdParty/Mcal_S32x/Supply/SW32G_RTD_4.4_3.0.4/eclipse/plugins/Mcu_TS_T40D11M30I4R0/src/Clock_Ip_Gate.o
                               0x20f1 (size before relaxing)
 .debug_str     0x00063758       0xc7 obj/external/ThirdParty/Mcal_S32x/Supply/SW32G_RTD_4.4_3.0.4/eclipse/plugins/Mcu_TS_T40D11M30I4R0/src/Clock_Ip_IntOsc.o
                               0x1e91 (size before relaxing)
 .debug_str     0x0006381f       0xb8 obj/external/ThirdParty/Mcal_S32x/Supply/SW32G_RTD_4.4_3.0.4/eclipse/plugins/Mcu_TS_T40D11M30I4R0/src/Clock_Ip_Irq.o
                               0x1e70 (size before relaxing)
 .debug_str     0x000638d7      0x319 obj/external/ThirdParty/Mcal_S32x/Supply/SW32G_RTD_4.4_3.0.4/eclipse/plugins/Mcu_TS_T40D11M30I4R0/src/Clock_Ip_Monitor.o
                               0x26e8 (size before relaxing)
 .debug_str     0x00063bf0      0x285 obj/external/ThirdParty/Mcal_S32x/Supply/SW32G_RTD_4.4_3.0.4/eclipse/plugins/Mcu_TS_T40D11M30I4R0/src/Clock_Ip_Pll.o
                               0x20cb (size before relaxing)
 .debug_str     0x00063e75      0x14d obj/external/ThirdParty/Mcal_S32x/Supply/SW32G_RTD_4.4_3.0.4/eclipse/plugins/Mcu_TS_T40D11M30I4R0/src/Clock_Ip_ProgFreqSwitch.o
                               0x1f4c (size before relaxing)
 .debug_str     0x00063fc2      0x350 obj/external/ThirdParty/Mcal_S32x/Supply/SW32G_RTD_4.4_3.0.4/eclipse/plugins/Mcu_TS_T40D11M30I4R0/src/Clock_Ip_Selector.o
                               0x2301 (size before relaxing)
 .debug_str     0x00064312      0x1ee obj/external/ThirdParty/Mcal_S32x/Supply/SW32G_RTD_4.4_3.0.4/eclipse/plugins/Mcu_TS_T40D11M30I4R0/src/Clock_Ip_Specific.o
                               0x2481 (size before relaxing)
 .debug_str     0x00064500       0x80 obj/external/ThirdParty/Mcal_S32x/Supply/SW32G_RTD_4.4_3.0.4/eclipse/plugins/Mcu_TS_T40D11M30I4R0/src/Clock_Ip_Specific1.o
                               0x1e38 (size before relaxing)
 .debug_str     0x00064580       0x80 obj/external/ThirdParty/Mcal_S32x/Supply/SW32G_RTD_4.4_3.0.4/eclipse/plugins/Mcu_TS_T40D11M30I4R0/src/Clock_Ip_Specific2.o
                               0x1e38 (size before relaxing)
 .debug_str     0x00064600      0x586 obj/external/ThirdParty/Mcal_S32x/Supply/SW32G_RTD_4.4_3.0.4/eclipse/plugins/Mcu_TS_T40D11M30I4R0/src/Mcu.o
                               0x1df6 (size before relaxing)
 .debug_str     0x00064b86       0x7d obj/external/ThirdParty/Mcal_S32x/Supply/SW32G_RTD_4.4_3.0.4/eclipse/plugins/Mcu_TS_T40D11M30I4R0/src/Mcu_Dem_Wrapper.o
                               0x1764 (size before relaxing)
 .debug_str     0x00064c03      0x145 obj/external/ThirdParty/Mcal_S32x/Supply/SW32G_RTD_4.4_3.0.4/eclipse/plugins/Mcu_TS_T40D11M30I4R0/src/Mcu_Ipw.o
                               0x1f56 (size before relaxing)
 .debug_str     0x00064d48      0x3e0 obj/external/ThirdParty/Mcal_S32x/Supply/SW32G_RTD_4.4_3.0.4/eclipse/plugins/Mcu_TS_T40D11M30I4R0/src/Power_Ip.o
                                0xdf2 (size before relaxing)
 .debug_str     0x00065128       0x7e obj/external/ThirdParty/Mcal_S32x/Supply/SW32G_RTD_4.4_3.0.4/eclipse/plugins/Mcu_TS_T40D11M30I4R0/src/Power_Ip_CortexA.o
                                0x771 (size before relaxing)
 .debug_str     0x000651a6      0x209 obj/external/ThirdParty/Mcal_S32x/Supply/SW32G_RTD_4.4_3.0.4/eclipse/plugins/Mcu_TS_T40D11M30I4R0/src/Power_Ip_CortexM7.o
                                0xaa9 (size before relaxing)
 .debug_str     0x000653af      0x355 obj/external/ThirdParty/Mcal_S32x/Supply/SW32G_RTD_4.4_3.0.4/eclipse/plugins/Mcu_TS_T40D11M30I4R0/src/Power_Ip_MC_ME.o
                                0xd05 (size before relaxing)
 .debug_str     0x00065704      0x3c7 obj/external/ThirdParty/Mcal_S32x/Supply/SW32G_RTD_4.4_3.0.4/eclipse/plugins/Mcu_TS_T40D11M30I4R0/src/Power_Ip_MC_RGM.o
                                0xfe3 (size before relaxing)
 .debug_str     0x00065acb       0x81 obj/external/ThirdParty/Mcal_S32x/Supply/SW32G_RTD_4.4_3.0.4/eclipse/plugins/Mcu_TS_T40D11M30I4R0/src/Power_Ip_MC_RGM_Irq.o
                                0x774 (size before relaxing)
 .debug_str     0x00065b4c      0x523 obj/external/ThirdParty/Mcal_S32x/Supply/SW32G_RTD_4.4_3.0.4/eclipse/plugins/Mcu_TS_T40D11M30I4R0/src/Power_Ip_MSCM.o
                                0x861 (size before relaxing)
 .debug_str     0x0006606f       0xc3 obj/external/ThirdParty/Mcal_S32x/Supply/SW32G_RTD_4.4_3.0.4/eclipse/plugins/Mcu_TS_T40D11M30I4R0/src/Power_Ip_PMC.o
                                0x8b0 (size before relaxing)
 .debug_str     0x00066132       0xa6 obj/external/ThirdParty/Mcal_S32x/Supply/SW32G_RTD_4.4_3.0.4/eclipse/plugins/Mcu_TS_T40D11M30I4R0/src/Power_Ip_Private.o
                                0x93a (size before relaxing)
 .debug_str     0x000661d8      0x116 obj/external/ThirdParty/Mcal_S32x/Supply/SW32G_RTD_4.4_3.0.4/eclipse/plugins/Mcu_TS_T40D11M30I4R0/src/Ram_Ip.o
                                0x3c2 (size before relaxing)
 .debug_str     0x000662ee      0x9c7 obj/external/ThirdParty/Mcal_S32x/Supply/SW32G_RTD_4.4_3.0.4/eclipse/plugins/Port_TS_T40D11M30I4R0/src/Port.o
                               0x1811 (size before relaxing)
 .debug_str     0x00066cb5      0x2f1 obj/external/ThirdParty/Mcal_S32x/Supply/SW32G_RTD_4.4_3.0.4/eclipse/plugins/Port_TS_T40D11M30I4R0/src/Port_Ipw.o
                               0x19c4 (size before relaxing)
 .debug_str     0x00066fa6      0x443 obj/external/ThirdParty/Mcal_S32x/Supply/SW32G_RTD_4.4_3.0.4/eclipse/plugins/Port_TS_T40D11M30I4R0/src/Siul2_Port_Ip.o
                               0x17c6 (size before relaxing)
 .debug_str     0x000673e9      0x8aa obj/external/ap-cp-gateway/Appl/GenData/BswM_Lcfg.o
                              0x11406 (size before relaxing)
 .debug_str     0x00067c93       0x3a obj/external/ap-cp-gateway/Appl/GenData/CanIf_Lcfg.o
                               0x53d6 (size before relaxing)
 .debug_str     0x00067ccd       0x3b obj/external/ap-cp-gateway/Appl/GenData/CanIf_PBcfg.o
                               0x368d (size before relaxing)
 .debug_str     0x00067d08       0x39 obj/external/ap-cp-gateway/Appl/GenData/CanNm_Cfg.o
                               0x4f1e (size before relaxing)
 .debug_str     0x00067d41       0x3a obj/external/ap-cp-gateway/Appl/GenData/CanNm_Lcfg.o
                               0x15f7 (size before relaxing)
 .debug_str     0x00067d7b       0x3b obj/external/ap-cp-gateway/Appl/GenData/CanNm_PBcfg.o
                               0x15f8 (size before relaxing)
 .debug_str     0x00067db6       0x3a obj/external/ap-cp-gateway/Appl/GenData/CanSM_Lcfg.o
                               0x38b0 (size before relaxing)
 .debug_str     0x00067df0       0x3a obj/external/ap-cp-gateway/Appl/GenData/CanTp_Lcfg.o
                               0x3cfd (size before relaxing)
 .debug_str     0x00067e2a       0x3b obj/external/ap-cp-gateway/Appl/GenData/CanTp_PBcfg.o
                               0x36c5 (size before relaxing)
 .debug_str     0x00067e65       0x3b obj/external/ap-cp-gateway/Appl/GenData/CanXcp_Lcfg.o
                               0x37a0 (size before relaxing)
 .debug_str     0x00067ea0       0x3c obj/external/ap-cp-gateway/Appl/GenData/CanXcp_PBcfg.o
                                0x18b (size before relaxing)
 .debug_str     0x00067edc       0x44 obj/external/ap-cp-gateway/Appl/GenData/Can_30_Flexcan4_Lcfg.o
                               0x1ff9 (size before relaxing)
 .debug_str     0x00067f20       0x45 obj/external/ap-cp-gateway/Appl/GenData/Can_30_Flexcan4_PBcfg.o
                               0x1fef (size before relaxing)
 .debug_str     0x00067f65       0x4d obj/external/ap-cp-gateway/Appl/GenData/ComM_Lcfg.o
                               0x3f4e (size before relaxing)
 .debug_str     0x00067fb2       0x82 obj/external/ap-cp-gateway/Appl/GenData/Com_Lcfg.o
                               0x2b4e (size before relaxing)
 .debug_str     0x00068034       0x39 obj/external/ap-cp-gateway/Appl/GenData/Com_PBcfg.o
                                0x219 (size before relaxing)
 .debug_str     0x0006806d      0x29d obj/external/ap-cp-gateway/Appl/GenData/Dcm_Lcfg.o
                               0x5fcc (size before relaxing)
 .debug_str     0x0006830a       0x39 obj/external/ap-cp-gateway/Appl/GenData/Dcm_PBcfg.o
                               0x4ca4 (size before relaxing)
 .debug_str     0x00068343       0x38 obj/external/ap-cp-gateway/Appl/GenData/Dem_Lcfg.o
                               0x26c9 (size before relaxing)
 .debug_str     0x0006837b       0x39 obj/external/ap-cp-gateway/Appl/GenData/Dem_PBcfg.o
                               0x2659 (size before relaxing)
 .debug_str     0x000683b4       0x37 obj/external/ap-cp-gateway/Appl/GenData/Det_Cfg.o
                                0x25b (size before relaxing)
 .debug_str     0x000683eb       0x38 obj/external/ap-cp-gateway/Appl/GenData/EcuM_Cfg.o
                               0x207c (size before relaxing)
 .debug_str     0x00068423       0x3d obj/external/ap-cp-gateway/Appl/GenData/EcuM_Init_Cfg.o
                                0x21d (size before relaxing)
 .debug_str     0x00068460       0x3f obj/external/ap-cp-gateway/Appl/GenData/EcuM_Init_PBcfg.o
                                0x21f (size before relaxing)
 .debug_str     0x0006849f       0x3a obj/external/ap-cp-gateway/Appl/GenData/EcuM_PBcfg.o
                                0x21a (size before relaxing)
 .debug_str     0x000684d9       0x80 obj/external/ap-cp-gateway/Appl/GenData/Fee_Lcfg.o
                               0x312b (size before relaxing)
 .debug_str     0x00068559       0x64 obj/external/ap-cp-gateway/Appl/GenData/IpduM_Lcfg.o
                               0x1325 (size before relaxing)
 .debug_str     0x000685bd       0x3b obj/external/ap-cp-gateway/Appl/GenData/IpduM_PBcfg.o
                                0x21b (size before relaxing)
 .debug_str     0x000685f8       0x50 obj/external/ap-cp-gateway/Appl/GenData/MemIf_Cfg.o
                                0x4f3 (size before relaxing)
 .debug_str     0x00068648       0x36 obj/external/ap-cp-gateway/Appl/GenData/Nm_Cfg.o
                               0x2100 (size before relaxing)
 .debug_str     0x0006867e       0x37 obj/external/ap-cp-gateway/Appl/GenData/Nm_Lcfg.o
                                0x702 (size before relaxing)
 .debug_str     0x000686b5      0x148 obj/external/ap-cp-gateway/Appl/GenData/NvM_Cfg.o
                               0x317c (size before relaxing)
 .debug_str     0x000687fd       0x43 obj/external/ap-cp-gateway/Appl/GenData/Os_AccessCheck_Lcfg.o
                               0x6c97 (size before relaxing)
 .debug_str     0x00068840       0xe7 obj/external/ap-cp-gateway/Appl/GenData/Os_Alarm_Lcfg.o
                               0x6d83 (size before relaxing)
 .debug_str     0x00068927      0x1dc obj/external/ap-cp-gateway/Appl/GenData/Os_Application_Lcfg.o
                               0x6e30 (size before relaxing)
 .debug_str     0x00068b03       0x74 obj/external/ap-cp-gateway/Appl/GenData/Os_Barrier_Lcfg.o
                               0x6cc8 (size before relaxing)
 .debug_str     0x00068b77      0x226 obj/external/ap-cp-gateway/Appl/GenData/Os_Core_Lcfg.o
                               0x6f3a (size before relaxing)
 .debug_str     0x00068d9d       0xd3 obj/external/ap-cp-gateway/Appl/GenData/Os_Counter_Lcfg.o
                               0x6d27 (size before relaxing)
 .debug_str     0x00068e70       0x53 obj/external/ap-cp-gateway/Appl/GenData/Os_Error_Lcfg.o
                               0x6d29 (size before relaxing)
 .debug_str     0x00068ec3       0x43 obj/external/ap-cp-gateway/Appl/GenData/Os_Hal_Context_Lcfg.o
                               0x70b9 (size before relaxing)
 .debug_str     0x00068f06      0x11b obj/external/ap-cp-gateway/Appl/GenData/Os_Hal_Core_Lcfg.o
                               0x7240 (size before relaxing)
 .debug_str     0x00069021       0x41 obj/external/ap-cp-gateway/Appl/GenData/Os_Hal_Entry_Lcfg.o
                               0x6dfd (size before relaxing)
 .debug_str     0x00069062       0x45 obj/external/ap-cp-gateway/Appl/GenData/Os_Hal_Interrupt_Lcfg.o
                               0x6c99 (size before relaxing)
 .debug_str     0x000690a7       0x42 obj/external/ap-cp-gateway/Appl/GenData/Os_Hal_Kernel_Lcfg.o
                               0x7167 (size before relaxing)
 .debug_str     0x000690e9       0x4c obj/external/ap-cp-gateway/Appl/GenData/Os_Hal_MemoryProtection_Lcfg.o
                               0x6be0 (size before relaxing)
 .debug_str     0x00069135       0x41 obj/external/ap-cp-gateway/Appl/GenData/Os_Hal_Timer_Lcfg.o
                               0x6cb5 (size before relaxing)
 .debug_str     0x00069176       0x84 obj/external/ap-cp-gateway/Appl/GenData/Os_Hook_Lcfg.o
                               0x716c (size before relaxing)
 .debug_str     0x000691fa       0x3b obj/external/ap-cp-gateway/Appl/GenData/Os_Ioc_Lcfg.o
                               0x6bcf (size before relaxing)
 .debug_str     0x00069235      0x101 obj/external/ap-cp-gateway/Appl/GenData/Os_Isr_Lcfg.o
                               0x719a (size before relaxing)
 .debug_str     0x00069336       0x48 obj/external/ap-cp-gateway/Appl/GenData/Os_MemoryProtection_Lcfg.o
                               0x6bdc (size before relaxing)
 .debug_str     0x0006937e       0x42 obj/external/ap-cp-gateway/Appl/GenData/Os_Peripheral_Lcfg.o
                               0x6c96 (size before relaxing)
 .debug_str     0x000693c0       0x63 obj/external/ap-cp-gateway/Appl/GenData/Os_Resource_Lcfg.o
                               0x6cec (size before relaxing)
 .debug_str     0x00069423       0x45 obj/external/ap-cp-gateway/Appl/GenData/Os_ScheduleTable_Lcfg.o
                               0x6c99 (size before relaxing)
 .debug_str     0x00069468      0x205 obj/external/ap-cp-gateway/Appl/GenData/Os_Scheduler_Lcfg.o
                               0x6e59 (size before relaxing)
 .debug_str     0x0006966d       0x47 obj/external/ap-cp-gateway/Appl/GenData/Os_ServiceFunction_Lcfg.o
                               0x70bd (size before relaxing)
 .debug_str     0x000696b4       0x40 obj/external/ap-cp-gateway/Appl/GenData/Os_Spinlock_Lcfg.o
                               0x6c94 (size before relaxing)
 .debug_str     0x000696f4       0x3d obj/external/ap-cp-gateway/Appl/GenData/Os_Stack_Lcfg.o
                               0x6c91 (size before relaxing)
 .debug_str     0x00069731       0xeb obj/external/ap-cp-gateway/Appl/GenData/Os_Task_Lcfg.o
                               0x71df (size before relaxing)
 .debug_str     0x0006981c       0x48 obj/external/ap-cp-gateway/Appl/GenData/Os_TimingProtection_Lcfg.o
                               0x6bdc (size before relaxing)
 .debug_str     0x00069864       0x3d obj/external/ap-cp-gateway/Appl/GenData/Os_Trace_Lcfg.o
                               0x6bd1 (size before relaxing)
 .debug_str     0x000698a1       0x3f obj/external/ap-cp-gateway/Appl/GenData/Os_XSignal_Lcfg.o
                               0x6c93 (size before relaxing)
 .debug_str     0x000698e0      0x109 obj/external/ap-cp-gateway/Appl/GenData/PduR_Lcfg.o
                               0x81e2 (size before relaxing)
 .debug_str     0x000699e9       0x3a obj/external/ap-cp-gateway/Appl/GenData/PduR_PBcfg.o
                               0x6131 (size before relaxing)
 .debug_str     0x00069a23     0x1eaf obj/external/ap-cp-gateway/Appl/GenData/Rte.o
                               0x2b94 (size before relaxing)
 .debug_str     0x0006b8d2       0x4c obj/external/ap-cp-gateway/Appl/GenData/Xcp_Lcfg.o
                                0x67b (size before relaxing)
 .debug_str     0x0006b91e       0x3f obj/external/ap-cp-gateway/Appl/GenData/src/CDD_Mcl_Cfg.o
                                0x283 (size before relaxing)
 .debug_str     0x0006b95d       0x41 obj/external/ap-cp-gateway/Appl/GenData/src/CDD_Mcl_PBcfg.o
                                0x297 (size before relaxing)
 .debug_str     0x0006b99e       0x40 obj/external/ap-cp-gateway/Appl/GenData/src/Clock_Ip_Cfg.o
                               0x1df8 (size before relaxing)
 .debug_str     0x0006b9de       0x42 obj/external/ap-cp-gateway/Appl/GenData/src/Clock_Ip_PBcfg.o
                               0x1e05 (size before relaxing)
 .debug_str     0x0006ba20       0x3b obj/external/ap-cp-gateway/Appl/GenData/src/Dio_Cfg.o
                                0x3a4 (size before relaxing)
 .debug_str     0x0006ba5b       0x3e obj/external/ap-cp-gateway/Appl/GenData/src/Dma_Ip_Cfg.o
                                0x21e (size before relaxing)
 .debug_str     0x0006ba99       0x40 obj/external/ap-cp-gateway/Appl/GenData/src/Dma_Ip_PBcfg.o
                                0x220 (size before relaxing)
 .debug_str     0x0006bad9       0x3b obj/external/ap-cp-gateway/Appl/GenData/src/Fls_Cfg.o
                               0x11a9 (size before relaxing)
 .debug_str     0x0006bb14      0x166 obj/external/ap-cp-gateway/Appl/GenData/src/Fls_PBcfg.o
                               0x12df (size before relaxing)
 .debug_str     0x0006bc7a       0x3b obj/external/ap-cp-gateway/Appl/GenData/src/Mcu_Cfg.o
                               0x185a (size before relaxing)
 .debug_str     0x0006bcb5       0x3d obj/external/ap-cp-gateway/Appl/GenData/src/Mcu_PBcfg.o
                               0x1867 (size before relaxing)
 .debug_str     0x0006bcf2       0x3c obj/external/ap-cp-gateway/Appl/GenData/src/OsIf_Cfg.o
                                0x21c (size before relaxing)
 .debug_str     0x0006bd2e      0x144 obj/external/ap-cp-gateway/Appl/GenData/src/Port_Cfg.o
                               0x1709 (size before relaxing)
 .debug_str     0x0006be72       0xb3 obj/external/ap-cp-gateway/Appl/GenData/src/Port_PBcfg.o
                               0x16a9 (size before relaxing)
 .debug_str     0x0006bf25       0x40 obj/external/ap-cp-gateway/Appl/GenData/src/Power_Ip_Cfg.o
                                0x733 (size before relaxing)
 .debug_str     0x0006bf65      0x20d obj/external/ap-cp-gateway/Appl/GenData/src/Power_Ip_PBcfg.o
                                0x909 (size before relaxing)
 .debug_str     0x0006c172       0x78 obj/external/ap-cp-gateway/Appl/GenData/src/Qspi_Ip_PBcfg.o
                                0xf50 (size before relaxing)
 .debug_str     0x0006c1ea       0x3e obj/external/ap-cp-gateway/Appl/GenData/src/Ram_Ip_Cfg.o
                                0x2d9 (size before relaxing)
 .debug_str     0x0006c228       0x40 obj/external/ap-cp-gateway/Appl/GenData/src/Ram_Ip_PBcfg.o
                                0x2db (size before relaxing)
 .debug_str     0x0006c268       0x47 obj/external/ap-cp-gateway/Appl/GenData/src/Siul2_Port_Ip_PBcfg.o
                               0x1361 (size before relaxing)
 .debug_str     0x0006c2af      0x16c obj/external/ap-cp-gateway/Appl/GenData/vBrs_Lcfg.o
                                0x364 (size before relaxing)
 .debug_str     0x0006c41b      0xbb7 obj/external/ap-cp-gateway/Appl/GenData/vLinkGen_Lcfg.o
                                0xdb9 (size before relaxing)
 .debug_str     0x0006cfd2       0x8e obj/external/ap-cp-gateway/Appl/Source/ARMBrsHwIntTb_CortexM.o
                                0x2c4 (size before relaxing)
 .debug_str     0x0006d060      0x152 obj/external/ap-cp-gateway/Appl/Source/ARMBrsHw_CortexM.o
                                0x3d5 (size before relaxing)
 .debug_str     0x0006d1b2       0x41 obj/external/ap-cp-gateway/Appl/Source/ARMStartup_CortexM.o
                                0xeda (size before relaxing)
 .debug_str     0x0006d1f3       0xeb obj/external/ap-cp-gateway/Appl/Source/BrsHw.o
                                0x352 (size before relaxing)
 .debug_str     0x0006d2de      0x16b obj/external/ap-cp-gateway/Appl/Source/BrsMain.o
                               0x254b (size before relaxing)
 .debug_str     0x0006d449      0x1aa obj/external/ap-cp-gateway/Appl/Source/BrsMainStartup.o
                               0x1014 (size before relaxing)
 .debug_str     0x0006d5f3       0x44 obj/external/ap-cp-gateway/Appl/Source/BrsMain_Callout_Stubs.o
                                0x34f (size before relaxing)
 .debug_str     0x0006d637       0xbc obj/external/ap-cp-gateway/Appl/Source/BswInit.o
                               0x1301 (size before relaxing)
 .debug_str     0x0006d6f3       0x4d obj/external/ap-cp-gateway/Appl/Source/BswM_Callout_Stubs.o
                              0x10a98 (size before relaxing)
 .debug_str     0x0006d740      0x1be obj/external/ap-cp-gateway/Appl/Source/Dcm_Callout_Stubs.o
                               0x4955 (size before relaxing)
 .debug_str     0x0006d8fe       0xd5 obj/external/ap-cp-gateway/Appl/Source/EcuM_Callout_Stubs.o
                              0x13b52 (size before relaxing)
 .debug_str     0x0006d9d3       0x54 obj/external/ap-cp-gateway/Appl/Source/Os_Callout_Stubs.o
                               0x16f3 (size before relaxing)
 .debug_str     0x0006da27      0x425 obj/external/ap-cp-gateway/Appl/Source/XcpAppl.o
                                0xb0e (size before relaxing)
 .debug_str     0x0006de4c      0x46c obj/external/ap-cp-gateway/Appl/Source/ipc-shm/Cdd_Ipc.o
                                0xb8b (size before relaxing)
 .debug_str     0x0006e2b8       0xbd obj/external/ap-cp-gateway/Appl/Source/ipc-shm/Cdd_Ipc_Lcfg.o
                                0xa56 (size before relaxing)
 .debug_str     0x0006e375       0xc9 obj/external/ap-cp-gateway/Appl/Source/ipc-shm/common/ipc-queue.o
                                0x6e4 (size before relaxing)
 .debug_str     0x0006e43e      0x4a1 obj/external/ap-cp-gateway/Appl/Source/ipc-shm/common/ipc-shm.o
                                0xee6 (size before relaxing)
 .debug_str     0x0006e8df      0xec0 obj/external/ap-cp-gateway/Appl/Source/ipc-shm/hw/s32gen1/ipc-hw-s32gen1.o
                               0x1daf (size before relaxing)
 .debug_str     0x0006f79f      0x136 obj/external/ap-cp-gateway/Appl/Source/ipc-shm/os/autosar/ipc-os-autosar.o
                                0xd29 (size before relaxing)

.debug_loc      0x00000000    0xcb1e2
 .debug_loc     0x00000000      0xc42 obj/external/Components/BswM/Implementation/BswM.o
 .debug_loc     0x00000c42     0x18eb obj/external/Components/CanIf/Implementation/CanIf.o
 .debug_loc     0x0000252d      0xf41 obj/external/Components/CanNm/Implementation/CanNm.o
 .debug_loc     0x0000346e      0xea1 obj/external/Components/CanSM/Implementation/CanSM.o
 .debug_loc     0x0000430f     0x2055 obj/external/Components/CanTp/Implementation/CanTp.o
 .debug_loc     0x00006364      0x500 obj/external/Components/CanXcp/Implementation/CanXcp.o
 .debug_loc     0x00006864     0x3579 obj/external/Components/Can_30_Flexcan4/Implementation/Can_30_Flexcan4.o
 .debug_loc     0x00009ddd      0xac4 obj/external/Components/Com/Implementation/Com.o
 .debug_loc     0x0000a8a1      0x4ce obj/external/Components/Com/Implementation/Com_Buffers.o
 .debug_loc     0x0000ad6f      0xda9 obj/external/Components/Com/Implementation/Com_Deserializer.o
 .debug_loc     0x0000bb18      0x79f obj/external/Components/Com/Implementation/Com_IPduGroupHdlr.o
 .debug_loc     0x0000c2b7      0x2bf obj/external/Components/Com/Implementation/Com_LLIf.o
 .debug_loc     0x0000c576      0x118 obj/external/Components/Com/Implementation/Com_LMgt.o
 .debug_loc     0x0000c68e       0xfa obj/external/Components/Com/Implementation/Com_MainFunctions.o
 .debug_loc     0x0000c788      0x772 obj/external/Components/Com/Implementation/Com_RxProcessing.o
 .debug_loc     0x0000cefa      0x647 obj/external/Components/Com/Implementation/Com_Serializer.o
 .debug_loc     0x0000d541      0x52e obj/external/Components/Com/Implementation/Com_SignalIf.o
 .debug_loc     0x0000da6f      0x33d obj/external/Components/Com/Implementation/Com_TxModeHdlr.o
 .debug_loc     0x0000ddac     0x15e8 obj/external/Components/ComM/Implementation/ComM.o
 .debug_loc     0x0000f394      0x861 obj/external/Components/Crc/Implementation/Crc.o
 .debug_loc     0x0000fbf5     0xba40 obj/external/Components/Dcm/Implementation/Dcm.o
 .debug_loc     0x0001b635       0x23 obj/external/Components/Dcm/Implementation/Dcm_Debug.o
 .debug_loc     0x0001b658      0x217 obj/external/Components/Dcm/Implementation/Dcm_DemIf.o
 .debug_loc     0x0001b86f     0x6951 obj/external/Components/Dcm/Implementation/Dcm_DidMgr.o
 .debug_loc     0x000221c0      0x661 obj/external/Components/Dcm/Implementation/Dcm_MemMgr.o
 .debug_loc     0x00022821      0x1a8 obj/external/Components/Dcm/Implementation/Dcm_Mode.o
 .debug_loc     0x000229c9      0x170 obj/external/Components/Dcm/Implementation/Dcm_ObdIdMgr.o
 .debug_loc     0x00022b39      0x321 obj/external/Components/Dcm/Implementation/Dcm_Repeater.o
 .debug_loc     0x00022e5a      0xb34 obj/external/Components/Dcm/Implementation/Dcm_RidMgr.o
 .debug_loc     0x0002398e      0x685 obj/external/Components/Dcm/Implementation/Dcm_RsrcMgr.o
 .debug_loc     0x00024013      0x6ee obj/external/Components/Dcm/Implementation/Dcm_State.o
 .debug_loc     0x00024701      0x8d1 obj/external/Components/Dcm/Implementation/Dcm_Svc11.o
 .debug_loc     0x00024fd2      0x781 obj/external/Components/Dcm/Implementation/Dcm_Svc14.o
 .debug_loc     0x00025753     0x1b72 obj/external/Components/Dcm/Implementation/Dcm_Svc19.o
 .debug_loc     0x000272c5     0x4c2c obj/external/Components/Dcm/Implementation/Dcm_Svc19Uti.o
 .debug_loc     0x0002bef1     0x14cd obj/external/Components/Dcm/Implementation/Dcm_Svc22.o
 .debug_loc     0x0002d3be      0x8bc obj/external/Components/Dcm/Implementation/Dcm_Svc23.o
 .debug_loc     0x0002dc7a     0x1ebc obj/external/Components/Dcm/Implementation/Dcm_Svc27.o
 .debug_loc     0x0002fb36      0x854 obj/external/Components/Dcm/Implementation/Dcm_Svc28.o
 .debug_loc     0x0003038a      0xb81 obj/external/Components/Dcm/Implementation/Dcm_Svc2A.o
 .debug_loc     0x00030f0b      0xe3b obj/external/Components/Dcm/Implementation/Dcm_Svc2ASchd.o
 .debug_loc     0x00031d46      0x682 obj/external/Components/Dcm/Implementation/Dcm_Svc2E.o
 .debug_loc     0x000323c8     0x132d obj/external/Components/Dcm/Implementation/Dcm_Svc2F.o
 .debug_loc     0x000336f5     0x10a6 obj/external/Components/Dcm/Implementation/Dcm_Svc31.o
 .debug_loc     0x0003479b      0x809 obj/external/Components/Dcm/Implementation/Dcm_Svc3D.o
 .debug_loc     0x00034fa4       0xaf obj/external/Components/Dcm/Implementation/Dcm_Svc3E.o
 .debug_loc     0x00035053      0x6f7 obj/external/Components/Dcm/Implementation/Dcm_Svc85.o
 .debug_loc     0x0003574a      0xe6f obj/external/Components/Dcm/Implementation/Dcm_Tmr.o
 .debug_loc     0x000365b9     0x16ed obj/external/Components/Dcm/Implementation/Dcm_Tsk.o
 .debug_loc     0x00037ca6      0xc38 obj/external/Components/Dcm/Implementation/Dcm_Uti.o
 .debug_loc     0x000388de    0x2b787 obj/external/Components/Dem/Implementation/Dem.o
 .debug_loc     0x00064065      0x280 obj/external/Components/Det/Implementation/Det.o
 .debug_loc     0x000642e5      0xb19 obj/external/Components/EcuM/Implementation/EcuM.o
 .debug_loc     0x00064dfe     0x14a9 obj/external/Components/Fee/Implementation/Fee.o
 .debug_loc     0x000662a7     0x1cc3 obj/external/Components/Fee/Implementation/Fee_ChunkInfo.o
 .debug_loc     0x00067f6a      0x493 obj/external/Components/Fee/Implementation/Fee_Partition.o
 .debug_loc     0x000683fd     0x2723 obj/external/Components/Fee/Implementation/Fee_Processing.o
 .debug_loc     0x0006ab20      0xadd obj/external/Components/Fee/Implementation/Fee_Sector.o
 .debug_loc     0x0006b5fd      0x481 obj/external/Components/IpduM/Implementation/IpduM.o
 .debug_loc     0x0006ba7e     0x2a61 obj/external/Components/IpduM/Implementation/IpduM_Container.o
 .debug_loc     0x0006e4df      0x6c2 obj/external/Components/MemIf/Implementation/MemIf.o
 .debug_loc     0x0006eba1      0xacd obj/external/Components/Nm/Implementation/Nm.o
 .debug_loc     0x0006f66e     0x1a87 obj/external/Components/NvM/Implementation/NvM.o
 .debug_loc     0x000710f5      0x8bc obj/external/Components/NvM/Implementation/NvM_Act.o
 .debug_loc     0x000719b1      0x6f3 obj/external/Components/NvM/Implementation/NvM_Crc.o
 .debug_loc     0x000720a4      0x2d6 obj/external/Components/NvM/Implementation/NvM_DataIntegrity.o
 .debug_loc     0x0007237a      0x188 obj/external/Components/NvM/Implementation/NvM_JobProc.o
 .debug_loc     0x00072502      0x22b obj/external/Components/NvM/Implementation/NvM_MemIfAbstraction.o
 .debug_loc     0x0007272d      0x2d9 obj/external/Components/NvM/Implementation/NvM_Qry.o
 .debug_loc     0x00072a06      0x427 obj/external/Components/NvM/Implementation/NvM_Queue.o
 .debug_loc     0x00072e2d       0x4a obj/external/Components/Os/Implementation/Os_AccessCheck.o
 .debug_loc     0x00072e77     0x348c obj/external/Components/Os/Implementation/Os_Alarm.o
 .debug_loc     0x00076303     0x1053 obj/external/Components/Os/Implementation/Os_Application.o
 .debug_loc     0x00077356       0x64 obj/external/Components/Os/Implementation/Os_Barrier.o
 .debug_loc     0x000773ba     0x1ff5 obj/external/Components/Os/Implementation/Os_Core.o
 .debug_loc     0x000793af     0x5e99 obj/external/Components/Os/Implementation/Os_Counter.o
 .debug_loc     0x0007f248      0xdb7 obj/external/Components/Os/Implementation/Os_Error.o
 .debug_loc     0x0007ffff     0x1e07 obj/external/Components/Os/Implementation/Os_Event.o
 .debug_loc     0x00081e06      0x28c obj/external/Components/Os/Implementation/Os_Hal_Context.o
 .debug_loc     0x00082092       0x6d obj/external/Components/Os/Implementation/Os_Hal_Core.o
 .debug_loc     0x000820ff     0x1470 obj/external/Components/Os/Implementation/Os_Hook.o
 .debug_loc     0x0008356f      0x6fb obj/external/Components/Os/Implementation/Os_Interrupt.o
 .debug_loc     0x00083c6a      0x559 obj/external/Components/Os/Implementation/Os_Ioc.o
 .debug_loc     0x000841c3     0x2193 obj/external/Components/Os/Implementation/Os_Isr.o
 .debug_loc     0x00086356      0x11d obj/external/Components/Os/Implementation/Os_MemoryProtection.o
 .debug_loc     0x00086473      0xb99 obj/external/Components/Os/Implementation/Os_Peripheral.o
 .debug_loc     0x0008700c     0x1263 obj/external/Components/Os/Implementation/Os_PriorityQueue.o
 .debug_loc     0x0008826f     0x1863 obj/external/Components/Os/Implementation/Os_Resource.o
 .debug_loc     0x00089ad2      0x36d obj/external/Components/Os/Implementation/Os_ScheduleTable.o
 .debug_loc     0x00089e3f     0x1d89 obj/external/Components/Os/Implementation/Os_Scheduler.o
 .debug_loc     0x0008bbc8       0xb9 obj/external/Components/Os/Implementation/Os_ServiceFunction.o
 .debug_loc     0x0008bc81      0x103 obj/external/Components/Os/Implementation/Os_Spinlock.o
 .debug_loc     0x0008bd84      0x5f2 obj/external/Components/Os/Implementation/Os_Stack.o
 .debug_loc     0x0008c376     0x2f9e obj/external/Components/Os/Implementation/Os_Task.o
 .debug_loc     0x0008f314      0x3b6 obj/external/Components/Os/Implementation/Os_Thread.o
 .debug_loc     0x0008f6ca      0x123 obj/external/Components/Os/Implementation/Os_Timer.o
 .debug_loc     0x0008f7ed       0xd2 obj/external/Components/Os/Implementation/Os_TimingProtection.o
 .debug_loc     0x0008f8bf     0x5eb4 obj/external/Components/Os/Implementation/Os_Trap.o
 .debug_loc     0x00095773     0x254f obj/external/Components/Os/Implementation/Os_XSignal.o
 .debug_loc     0x00097cc2      0xbcc obj/external/Components/PduR/Implementation/PduR.o
 .debug_loc     0x0009888e     0x3fef obj/external/Components/PduR/Implementation/PduR_Bm.o
 .debug_loc     0x0009c87d      0x85c obj/external/Components/PduR/Implementation/PduR_Fm.o
 .debug_loc     0x0009d0d9      0x184 obj/external/Components/PduR/Implementation/PduR_Lock.o
 .debug_loc     0x0009d25d      0xf38 obj/external/Components/PduR/Implementation/PduR_RmIf.o
 .debug_loc     0x0009e195      0x32e obj/external/Components/PduR/Implementation/PduR_RmTp.o
 .debug_loc     0x0009e4c3     0x7136 obj/external/Components/VStdLib/Implementation/vstdlib.o
 .debug_loc     0x000a55f9     0x281f obj/external/Components/Xcp/Implementation/Xcp.o
 .debug_loc     0x000a7e18       0xd3 obj/external/ThirdParty/Mcal_S32x/Supply/SW32G_RTD_4.4_3.0.4/eclipse/plugins/Base_TS_T40D11M30I4R0/src/OsIf_Timer.o
 .debug_loc     0x000a7eeb      0x1b6 obj/external/ThirdParty/Mcal_S32x/Supply/SW32G_RTD_4.4_3.0.4/eclipse/plugins/Dio_TS_T40D11M30I4R0/src/Dio.o
 .debug_loc     0x000a80a1      0x4c1 obj/external/ThirdParty/Mcal_S32x/Supply/SW32G_RTD_4.4_3.0.4/eclipse/plugins/Dio_TS_T40D11M30I4R0/src/Dio_Ipw.o
 .debug_loc     0x000a8562      0x55a obj/external/ThirdParty/Mcal_S32x/Supply/SW32G_RTD_4.4_3.0.4/eclipse/plugins/Dio_TS_T40D11M30I4R0/src/Siul2_Dio_Ip.o
 .debug_loc     0x000a8abc     0x1844 obj/external/ThirdParty/Mcal_S32x/Supply/SW32G_RTD_4.4_3.0.4/eclipse/plugins/Fls_TS_T40D11M30I4R0/src/Fls.o
 .debug_loc     0x000aa300      0xaed obj/external/ThirdParty/Mcal_S32x/Supply/SW32G_RTD_4.4_3.0.4/eclipse/plugins/Fls_TS_T40D11M30I4R0/src/Fls_IPW.o
 .debug_loc     0x000aaded     0x34b8 obj/external/ThirdParty/Mcal_S32x/Supply/SW32G_RTD_4.4_3.0.4/eclipse/plugins/Fls_TS_T40D11M30I4R0/src/Qspi_Ip.o
 .debug_loc     0x000ae2a5     0x3c26 obj/external/ThirdParty/Mcal_S32x/Supply/SW32G_RTD_4.4_3.0.4/eclipse/plugins/Fls_TS_T40D11M30I4R0/src/Qspi_Ip_Controller.o
 .debug_loc     0x000b1ecb     0xb7ba obj/external/ThirdParty/Mcal_S32x/Supply/SW32G_RTD_4.4_3.0.4/eclipse/plugins/Fls_TS_T40D11M30I4R0/src/Qspi_Ip_Sfdp.o
 .debug_loc     0x000bd685      0x767 obj/external/ThirdParty/Mcal_S32x/Supply/SW32G_RTD_4.4_3.0.4/eclipse/plugins/Mcu_TS_T40D11M30I4R0/src/Clock_Ip.o
 .debug_loc     0x000bddec      0x2a5 obj/external/ThirdParty/Mcal_S32x/Supply/SW32G_RTD_4.4_3.0.4/eclipse/plugins/Mcu_TS_T40D11M30I4R0/src/Clock_Ip_Divider.o
 .debug_loc     0x000be091      0x163 obj/external/ThirdParty/Mcal_S32x/Supply/SW32G_RTD_4.4_3.0.4/eclipse/plugins/Mcu_TS_T40D11M30I4R0/src/Clock_Ip_ExtOsc.o
 .debug_loc     0x000be1f4      0x249 obj/external/ThirdParty/Mcal_S32x/Supply/SW32G_RTD_4.4_3.0.4/eclipse/plugins/Mcu_TS_T40D11M30I4R0/src/Clock_Ip_FracDiv.o
 .debug_loc     0x000be43d      0x168 obj/external/ThirdParty/Mcal_S32x/Supply/SW32G_RTD_4.4_3.0.4/eclipse/plugins/Mcu_TS_T40D11M30I4R0/src/Clock_Ip_Gate.o
 .debug_loc     0x000be5a5      0x6ef obj/external/ThirdParty/Mcal_S32x/Supply/SW32G_RTD_4.4_3.0.4/eclipse/plugins/Mcu_TS_T40D11M30I4R0/src/Clock_Ip_Monitor.o
 .debug_loc     0x000bec94      0x314 obj/external/ThirdParty/Mcal_S32x/Supply/SW32G_RTD_4.4_3.0.4/eclipse/plugins/Mcu_TS_T40D11M30I4R0/src/Clock_Ip_Pll.o
 .debug_loc     0x000befa8      0x258 obj/external/ThirdParty/Mcal_S32x/Supply/SW32G_RTD_4.4_3.0.4/eclipse/plugins/Mcu_TS_T40D11M30I4R0/src/Clock_Ip_ProgFreqSwitch.o
 .debug_loc     0x000bf200      0x5bd obj/external/ThirdParty/Mcal_S32x/Supply/SW32G_RTD_4.4_3.0.4/eclipse/plugins/Mcu_TS_T40D11M30I4R0/src/Clock_Ip_Selector.o
 .debug_loc     0x000bf7bd      0x106 obj/external/ThirdParty/Mcal_S32x/Supply/SW32G_RTD_4.4_3.0.4/eclipse/plugins/Mcu_TS_T40D11M30I4R0/src/Clock_Ip_Specific.o
 .debug_loc     0x000bf8c3      0x16a obj/external/ThirdParty/Mcal_S32x/Supply/SW32G_RTD_4.4_3.0.4/eclipse/plugins/Mcu_TS_T40D11M30I4R0/src/Mcu.o
 .debug_loc     0x000bfa2d      0x10b obj/external/ThirdParty/Mcal_S32x/Supply/SW32G_RTD_4.4_3.0.4/eclipse/plugins/Mcu_TS_T40D11M30I4R0/src/Mcu_Ipw.o
 .debug_loc     0x000bfb38       0xed obj/external/ThirdParty/Mcal_S32x/Supply/SW32G_RTD_4.4_3.0.4/eclipse/plugins/Mcu_TS_T40D11M30I4R0/src/Power_Ip.o
 .debug_loc     0x000bfc25      0xaf3 obj/external/ThirdParty/Mcal_S32x/Supply/SW32G_RTD_4.4_3.0.4/eclipse/plugins/Mcu_TS_T40D11M30I4R0/src/Power_Ip_MC_ME.o
 .debug_loc     0x000c0718      0xcbd obj/external/ThirdParty/Mcal_S32x/Supply/SW32G_RTD_4.4_3.0.4/eclipse/plugins/Mcu_TS_T40D11M30I4R0/src/Power_Ip_MC_RGM.o
 .debug_loc     0x000c13d5       0x38 obj/external/ThirdParty/Mcal_S32x/Supply/SW32G_RTD_4.4_3.0.4/eclipse/plugins/Mcu_TS_T40D11M30I4R0/src/Power_Ip_MSCM.o
 .debug_loc     0x000c140d      0x13b obj/external/ThirdParty/Mcal_S32x/Supply/SW32G_RTD_4.4_3.0.4/eclipse/plugins/Mcu_TS_T40D11M30I4R0/src/Power_Ip_Private.o
 .debug_loc     0x000c1548       0xbe obj/external/ThirdParty/Mcal_S32x/Supply/SW32G_RTD_4.4_3.0.4/eclipse/plugins/Mcu_TS_T40D11M30I4R0/src/Ram_Ip.o
 .debug_loc     0x000c1606      0x27c obj/external/ThirdParty/Mcal_S32x/Supply/SW32G_RTD_4.4_3.0.4/eclipse/plugins/Port_TS_T40D11M30I4R0/src/Port.o
 .debug_loc     0x000c1882     0x104f obj/external/ThirdParty/Mcal_S32x/Supply/SW32G_RTD_4.4_3.0.4/eclipse/plugins/Port_TS_T40D11M30I4R0/src/Port_Ipw.o
 .debug_loc     0x000c28d1      0x9bf obj/external/ThirdParty/Mcal_S32x/Supply/SW32G_RTD_4.4_3.0.4/eclipse/plugins/Port_TS_T40D11M30I4R0/src/Siul2_Port_Ip.o
 .debug_loc     0x000c3290     0x11c2 obj/external/ap-cp-gateway/Appl/GenData/BswM_Lcfg.o
 .debug_loc     0x000c4452     0x185c obj/external/ap-cp-gateway/Appl/GenData/Dcm_Lcfg.o
 .debug_loc     0x000c5cae       0x25 obj/external/ap-cp-gateway/Appl/GenData/Fee_Lcfg.o
 .debug_loc     0x000c5cd3       0x4a obj/external/ap-cp-gateway/Appl/GenData/MemIf_Cfg.o
 .debug_loc     0x000c5d1d       0x6f obj/external/ap-cp-gateway/Appl/GenData/NvM_Cfg.o
 .debug_loc     0x000c5d8c      0x650 obj/external/ap-cp-gateway/Appl/GenData/PduR_Lcfg.o
 .debug_loc     0x000c63dc     0x10ae obj/external/ap-cp-gateway/Appl/GenData/Rte.o
 .debug_loc     0x000c748a      0x12f obj/external/ap-cp-gateway/Appl/Source/ARMBrsHw_CortexM.o
 .debug_loc     0x000c75b9       0xfb obj/external/ap-cp-gateway/Appl/Source/BrsHw.o
 .debug_loc     0x000c76b4       0xce obj/external/ap-cp-gateway/Appl/Source/BrsMain.o
 .debug_loc     0x000c7782      0x13f obj/external/ap-cp-gateway/Appl/Source/BrsMainStartup.o
 .debug_loc     0x000c78c1      0x275 obj/external/ap-cp-gateway/Appl/Source/Dcm_Callout_Stubs.o
 .debug_loc     0x000c7b36       0x4a obj/external/ap-cp-gateway/Appl/Source/EcuM_Callout_Stubs.o
 .debug_loc     0x000c7b80       0x25 obj/external/ap-cp-gateway/Appl/Source/Os_Callout_Stubs.o
 .debug_loc     0x000c7ba5      0x19f obj/external/ap-cp-gateway/Appl/Source/XcpAppl.o
 .debug_loc     0x000c7d44      0x278 obj/external/ap-cp-gateway/Appl/Source/ipc-shm/Cdd_Ipc.o
 .debug_loc     0x000c7fbc      0x34d obj/external/ap-cp-gateway/Appl/Source/ipc-shm/common/ipc-queue.o
 .debug_loc     0x000c8309     0x2927 obj/external/ap-cp-gateway/Appl/Source/ipc-shm/common/ipc-shm.o
 .debug_loc     0x000cac30      0x2b1 obj/external/ap-cp-gateway/Appl/Source/ipc-shm/hw/s32gen1/ipc-hw-s32gen1.o
 .debug_loc     0x000caee1      0x301 obj/external/ap-cp-gateway/Appl/Source/ipc-shm/os/autosar/ipc-os-autosar.o

.debug_ranges   0x00000000    0x285d0
 .debug_ranges  0x00000000       0x30 obj/external/Components/BswM/Implementation/BswM.o
 .debug_ranges  0x00000030       0xf0 obj/external/Components/CanIf/Implementation/CanIf.o
 .debug_ranges  0x00000120       0xa8 obj/external/Components/CanNm/Implementation/CanNm.o
 .debug_ranges  0x000001c8      0x180 obj/external/Components/CanSM/Implementation/CanSM.o
 .debug_ranges  0x00000348      0x4d0 obj/external/Components/CanTp/Implementation/CanTp.o
 .debug_ranges  0x00000818      0x5b8 obj/external/Components/Can_30_Flexcan4/Implementation/Can_30_Flexcan4.o
 .debug_ranges  0x00000dd0       0x18 obj/external/Components/Can_30_Flexcan4/Implementation/Can_30_Flexcan4_Irq.o
 .debug_ranges  0x00000de8       0x60 obj/external/Components/Com/Implementation/Com.o
 .debug_ranges  0x00000e48       0x60 obj/external/Components/Com/Implementation/Com_Buffers.o
 .debug_ranges  0x00000ea8       0xa8 obj/external/Components/Com/Implementation/Com_Deserializer.o
 .debug_ranges  0x00000f50      0x138 obj/external/Components/Com/Implementation/Com_IPduGroupHdlr.o
 .debug_ranges  0x00001088       0x30 obj/external/Components/Com/Implementation/Com_LLIf.o
 .debug_ranges  0x000010b8       0x18 obj/external/Components/Com/Implementation/Com_LMgt.o
 .debug_ranges  0x000010d0       0x30 obj/external/Components/Com/Implementation/Com_MainFunctions.o
 .debug_ranges  0x00001100      0x108 obj/external/Components/Com/Implementation/Com_RxProcessing.o
 .debug_ranges  0x00001208       0x18 obj/external/Components/Com/Implementation/Com_Serializer.o
 .debug_ranges  0x00001220       0xb0 obj/external/Components/Com/Implementation/Com_SignalIf.o
 .debug_ranges  0x000012d0       0x60 obj/external/Components/Com/Implementation/Com_TxModeHdlr.o
 .debug_ranges  0x00001330       0x88 obj/external/Components/ComM/Implementation/ComM.o
 .debug_ranges  0x000013b8     0x2510 obj/external/Components/Dcm/Implementation/Dcm.o
 .debug_ranges  0x000038c8       0x20 obj/external/Components/Dcm/Implementation/Dcm_DemIf.o
 .debug_ranges  0x000038e8      0xce8 obj/external/Components/Dcm/Implementation/Dcm_DidMgr.o
 .debug_ranges  0x000045d0       0x38 obj/external/Components/Dcm/Implementation/Dcm_MemMgr.o
 .debug_ranges  0x00004608       0x30 obj/external/Components/Dcm/Implementation/Dcm_Mode.o
 .debug_ranges  0x00004638       0x18 obj/external/Components/Dcm/Implementation/Dcm_ObdIdMgr.o
 .debug_ranges  0x00004650       0x80 obj/external/Components/Dcm/Implementation/Dcm_Repeater.o
 .debug_ranges  0x000046d0      0x200 obj/external/Components/Dcm/Implementation/Dcm_RidMgr.o
 .debug_ranges  0x000048d0       0x70 obj/external/Components/Dcm/Implementation/Dcm_RsrcMgr.o
 .debug_ranges  0x00004940       0xe8 obj/external/Components/Dcm/Implementation/Dcm_State.o
 .debug_ranges  0x00004a28       0x60 obj/external/Components/Dcm/Implementation/Dcm_Svc11.o
 .debug_ranges  0x00004a88       0x18 obj/external/Components/Dcm/Implementation/Dcm_Svc14.o
 .debug_ranges  0x00004aa0      0x240 obj/external/Components/Dcm/Implementation/Dcm_Svc19.o
 .debug_ranges  0x00004ce0     0x10e8 obj/external/Components/Dcm/Implementation/Dcm_Svc19Uti.o
 .debug_ranges  0x00005dc8      0x330 obj/external/Components/Dcm/Implementation/Dcm_Svc22.o
 .debug_ranges  0x000060f8       0xf8 obj/external/Components/Dcm/Implementation/Dcm_Svc23.o
 .debug_ranges  0x000061f0      0x4f0 obj/external/Components/Dcm/Implementation/Dcm_Svc27.o
 .debug_ranges  0x000066e0       0x98 obj/external/Components/Dcm/Implementation/Dcm_Svc28.o
 .debug_ranges  0x00006778       0x78 obj/external/Components/Dcm/Implementation/Dcm_Svc2A.o
 .debug_ranges  0x000067f0      0x420 obj/external/Components/Dcm/Implementation/Dcm_Svc2ASchd.o
 .debug_ranges  0x00006c10       0xc0 obj/external/Components/Dcm/Implementation/Dcm_Svc2E.o
 .debug_ranges  0x00006cd0      0x338 obj/external/Components/Dcm/Implementation/Dcm_Svc2F.o
 .debug_ranges  0x00007008      0x3a0 obj/external/Components/Dcm/Implementation/Dcm_Svc31.o
 .debug_ranges  0x000073a8       0xd8 obj/external/Components/Dcm/Implementation/Dcm_Svc3D.o
 .debug_ranges  0x00007480       0x48 obj/external/Components/Dcm/Implementation/Dcm_Svc85.o
 .debug_ranges  0x000074c8      0x320 obj/external/Components/Dcm/Implementation/Dcm_Tmr.o
 .debug_ranges  0x000077e8      0x3a8 obj/external/Components/Dcm/Implementation/Dcm_Tsk.o
 .debug_ranges  0x00007b90       0xc0 obj/external/Components/Dcm/Implementation/Dcm_Uti.o
 .debug_ranges  0x00007c50     0xd278 obj/external/Components/Dem/Implementation/Dem.o
 .debug_ranges  0x00014ec8       0x50 obj/external/Components/EcuM/Implementation/EcuM.o
 .debug_ranges  0x00014f18      0x320 obj/external/Components/Fee/Implementation/Fee.o
 .debug_ranges  0x00015238       0xf0 obj/external/Components/Fee/Implementation/Fee_ChunkInfo.o
 .debug_ranges  0x00015328       0x18 obj/external/Components/Fee/Implementation/Fee_Partition.o
 .debug_ranges  0x00015340      0x1c8 obj/external/Components/Fee/Implementation/Fee_Processing.o
 .debug_ranges  0x00015508       0x48 obj/external/Components/IpduM/Implementation/IpduM.o
 .debug_ranges  0x00015550      0x530 obj/external/Components/IpduM/Implementation/IpduM_Container.o
 .debug_ranges  0x00015a80      0x578 obj/external/Components/NvM/Implementation/NvM.o
 .debug_ranges  0x00015ff8       0x78 obj/external/Components/NvM/Implementation/NvM_Act.o
 .debug_ranges  0x00016070       0x18 obj/external/Components/NvM/Implementation/NvM_Crc.o
 .debug_ranges  0x00016088       0x10 obj/external/Components/NvM/Implementation/NvM_JobProc.o
 .debug_ranges  0x00016098       0x18 obj/external/Components/Os/Implementation/Os_AccessCheck.o
 .debug_ranges  0x000160b0     0x1360 obj/external/Components/Os/Implementation/Os_Alarm.o
 .debug_ranges  0x00017410      0x5a8 obj/external/Components/Os/Implementation/Os_Application.o
 .debug_ranges  0x000179b8       0x50 obj/external/Components/Os/Implementation/Os_Barrier.o
 .debug_ranges  0x00017a08      0xcb0 obj/external/Components/Os/Implementation/Os_Core.o
 .debug_ranges  0x000186b8     0x24f8 obj/external/Components/Os/Implementation/Os_Counter.o
 .debug_ranges  0x0001abb0      0x3a0 obj/external/Components/Os/Implementation/Os_Error.o
 .debug_ranges  0x0001af50     0x10f8 obj/external/Components/Os/Implementation/Os_Event.o
 .debug_ranges  0x0001c048       0x80 obj/external/Components/Os/Implementation/Os_Hal_Context.o
 .debug_ranges  0x0001c0c8       0x58 obj/external/Components/Os/Implementation/Os_Hal_Core.o
 .debug_ranges  0x0001c120      0x810 obj/external/Components/Os/Implementation/Os_Hook.o
 .debug_ranges  0x0001c930      0x548 obj/external/Components/Os/Implementation/Os_Interrupt.o
 .debug_ranges  0x0001ce78       0xc0 obj/external/Components/Os/Implementation/Os_Ioc.o
 .debug_ranges  0x0001cf38      0xd88 obj/external/Components/Os/Implementation/Os_Isr.o
 .debug_ranges  0x0001dcc0       0xa0 obj/external/Components/Os/Implementation/Os_MemoryProtection.o
 .debug_ranges  0x0001dd60      0x4d0 obj/external/Components/Os/Implementation/Os_Peripheral.o
 .debug_ranges  0x0001e230      0x488 obj/external/Components/Os/Implementation/Os_PriorityQueue.o
 .debug_ranges  0x0001e6b8     0x10d0 obj/external/Components/Os/Implementation/Os_Resource.o
 .debug_ranges  0x0001f788      0x148 obj/external/Components/Os/Implementation/Os_ScheduleTable.o
 .debug_ranges  0x0001f8d0      0x9f8 obj/external/Components/Os/Implementation/Os_Scheduler.o
 .debug_ranges  0x000202c8       0x78 obj/external/Components/Os/Implementation/Os_ServiceFunction.o
 .debug_ranges  0x00020340       0x40 obj/external/Components/Os/Implementation/Os_Spinlock.o
 .debug_ranges  0x00020380      0x170 obj/external/Components/Os/Implementation/Os_Stack.o
 .debug_ranges  0x000204f0     0x1960 obj/external/Components/Os/Implementation/Os_Task.o
 .debug_ranges  0x00021e50      0x2b8 obj/external/Components/Os/Implementation/Os_Thread.o
 .debug_ranges  0x00022108       0x98 obj/external/Components/Os/Implementation/Os_Timer.o
 .debug_ranges  0x000221a0       0x70 obj/external/Components/Os/Implementation/Os_TimingProtection.o
 .debug_ranges  0x00022210     0x2600 obj/external/Components/Os/Implementation/Os_Trap.o
 .debug_ranges  0x00024810     0x12e8 obj/external/Components/Os/Implementation/Os_XSignal.o
 .debug_ranges  0x00025af8      0x3b8 obj/external/Components/PduR/Implementation/PduR_Bm.o
 .debug_ranges  0x00025eb0       0x70 obj/external/Components/PduR/Implementation/PduR_Fm.o
 .debug_ranges  0x00025f20       0xa8 obj/external/Components/PduR/Implementation/PduR_RmIf.o
 .debug_ranges  0x00025fc8       0x48 obj/external/Components/PduR/Implementation/PduR_RmTp.o
 .debug_ranges  0x00026010      0x508 obj/external/Components/VStdLib/Implementation/vstdlib.o
 .debug_ranges  0x00026518      0x228 obj/external/Components/Xcp/Implementation/Xcp.o
 .debug_ranges  0x00026740       0x50 obj/external/ThirdParty/Mcal_S32x/Supply/SW32G_RTD_4.4_3.0.4/eclipse/plugins/Fls_TS_T40D11M30I4R0/src/Fls.o
 .debug_ranges  0x00026790      0x1b0 obj/external/ThirdParty/Mcal_S32x/Supply/SW32G_RTD_4.4_3.0.4/eclipse/plugins/Fls_TS_T40D11M30I4R0/src/Qspi_Ip.o
 .debug_ranges  0x00026940      0x2c0 obj/external/ThirdParty/Mcal_S32x/Supply/SW32G_RTD_4.4_3.0.4/eclipse/plugins/Fls_TS_T40D11M30I4R0/src/Qspi_Ip_Controller.o
 .debug_ranges  0x00026c00     0x1250 obj/external/ThirdParty/Mcal_S32x/Supply/SW32G_RTD_4.4_3.0.4/eclipse/plugins/Fls_TS_T40D11M30I4R0/src/Qspi_Ip_Sfdp.o
 .debug_ranges  0x00027e50       0x38 obj/external/ThirdParty/Mcal_S32x/Supply/SW32G_RTD_4.4_3.0.4/eclipse/plugins/Port_TS_T40D11M30I4R0/src/Port_Ipw.o
 .debug_ranges  0x00027e88       0x30 obj/external/ThirdParty/Mcal_S32x/Supply/SW32G_RTD_4.4_3.0.4/eclipse/plugins/Port_TS_T40D11M30I4R0/src/Siul2_Port_Ip.o
 .debug_ranges  0x00027eb8      0x540 obj/external/ap-cp-gateway/Appl/GenData/Dcm_Lcfg.o
 .debug_ranges  0x000283f8       0x10 obj/external/ap-cp-gateway/Appl/GenData/Fee_Lcfg.o
 .debug_ranges  0x00028408       0x18 obj/external/ap-cp-gateway/Appl/GenData/Rte.o
 .debug_ranges  0x00028420       0x18 obj/external/ap-cp-gateway/Appl/Source/BrsHw.o
 .debug_ranges  0x00028438       0x20 obj/external/ap-cp-gateway/Appl/Source/BrsMain.o
 .debug_ranges  0x00028458       0x20 obj/external/ap-cp-gateway/Appl/Source/BrsMainStartup.o
 .debug_ranges  0x00028478       0x10 obj/external/ap-cp-gateway/Appl/Source/Os_Callout_Stubs.o
 .debug_ranges  0x00028488       0x18 obj/external/ap-cp-gateway/Appl/Source/XcpAppl.o
 .debug_ranges  0x000284a0      0x110 obj/external/ap-cp-gateway/Appl/Source/ipc-shm/common/ipc-shm.o
 .debug_ranges  0x000285b0       0x20 obj/external/ap-cp-gateway/Appl/Source/ipc-shm/os/autosar/ipc-os-autosar.o

.debug_frame    0x00000000    0x1404c
 .debug_frame   0x00000000      0x1f4 obj/external/Components/BswM/Implementation/BswM.o
 .debug_frame   0x000001f4      0x258 obj/external/Components/CanIf/Implementation/CanIf.o
 .debug_frame   0x0000044c      0x1f4 obj/external/Components/CanNm/Implementation/CanNm.o
 .debug_frame   0x00000640      0x23c obj/external/Components/CanSM/Implementation/CanSM.o
 .debug_frame   0x0000087c      0x2fc obj/external/Components/CanTp/Implementation/CanTp.o
 .debug_frame   0x00000b78       0xe8 obj/external/Components/CanXcp/Implementation/CanXcp.o
 .debug_frame   0x00000c60      0x2e4 obj/external/Components/Can_30_Flexcan4/Implementation/Can_30_Flexcan4.o
 .debug_frame   0x00000f44       0x48 obj/external/Components/Can_30_Flexcan4/Implementation/Can_30_Flexcan4_Irq.o
 .debug_frame   0x00000f8c      0x240 obj/external/Components/Com/Implementation/Com.o
 .debug_frame   0x000011cc       0xa8 obj/external/Components/Com/Implementation/Com_Buffers.o
 .debug_frame   0x00001274       0x94 obj/external/Components/Com/Implementation/Com_Deserializer.o
 .debug_frame   0x00001308      0x1c0 obj/external/Components/Com/Implementation/Com_IPduGroupHdlr.o
 .debug_frame   0x000014c8       0xac obj/external/Components/Com/Implementation/Com_LLIf.o
 .debug_frame   0x00001574       0x84 obj/external/Components/Com/Implementation/Com_LMgt.o
 .debug_frame   0x000015f8       0x5c obj/external/Components/Com/Implementation/Com_MainFunctions.o
 .debug_frame   0x00001654       0xf4 obj/external/Components/Com/Implementation/Com_RxProcessing.o
 .debug_frame   0x00001748       0x64 obj/external/Components/Com/Implementation/Com_Serializer.o
 .debug_frame   0x000017ac       0x94 obj/external/Components/Com/Implementation/Com_SignalIf.o
 .debug_frame   0x00001840       0xa4 obj/external/Components/Com/Implementation/Com_TxModeHdlr.o
 .debug_frame   0x000018e4      0x474 obj/external/Components/ComM/Implementation/ComM.o
 .debug_frame   0x00001d58      0x128 obj/external/Components/Crc/Implementation/Crc.o
 .debug_frame   0x00001e80      0xd90 obj/external/Components/Dcm/Implementation/Dcm.o
 .debug_frame   0x00002c10       0x50 obj/external/Components/Dcm/Implementation/Dcm_Debug.o
 .debug_frame   0x00002c60       0x58 obj/external/Components/Dcm/Implementation/Dcm_DemIf.o
 .debug_frame   0x00002cb8      0x270 obj/external/Components/Dcm/Implementation/Dcm_DidMgr.o
 .debug_frame   0x00002f28       0xa0 obj/external/Components/Dcm/Implementation/Dcm_MemMgr.o
 .debug_frame   0x00002fc8       0xf4 obj/external/Components/Dcm/Implementation/Dcm_Mode.o
 .debug_frame   0x000030bc       0x58 obj/external/Components/Dcm/Implementation/Dcm_ObdIdMgr.o
 .debug_frame   0x00003114       0x90 obj/external/Components/Dcm/Implementation/Dcm_Repeater.o
 .debug_frame   0x000031a4       0x94 obj/external/Components/Dcm/Implementation/Dcm_RidMgr.o
 .debug_frame   0x00003238       0xdc obj/external/Components/Dcm/Implementation/Dcm_RsrcMgr.o
 .debug_frame   0x00003314      0x160 obj/external/Components/Dcm/Implementation/Dcm_State.o
 .debug_frame   0x00003474       0xb8 obj/external/Components/Dcm/Implementation/Dcm_Svc11.o
 .debug_frame   0x0000352c       0x8c obj/external/Components/Dcm/Implementation/Dcm_Svc14.o
 .debug_frame   0x000035b8      0x234 obj/external/Components/Dcm/Implementation/Dcm_Svc19.o
 .debug_frame   0x000037ec      0x398 obj/external/Components/Dcm/Implementation/Dcm_Svc19Uti.o
 .debug_frame   0x00003b84       0x58 obj/external/Components/Dcm/Implementation/Dcm_Svc22.o
 .debug_frame   0x00003bdc       0x44 obj/external/Components/Dcm/Implementation/Dcm_Svc23.o
 .debug_frame   0x00003c20       0xb8 obj/external/Components/Dcm/Implementation/Dcm_Svc27.o
 .debug_frame   0x00003cd8       0xdc obj/external/Components/Dcm/Implementation/Dcm_Svc28.o
 .debug_frame   0x00003db4       0x9c obj/external/Components/Dcm/Implementation/Dcm_Svc2A.o
 .debug_frame   0x00003e50      0x188 obj/external/Components/Dcm/Implementation/Dcm_Svc2ASchd.o
 .debug_frame   0x00003fd8       0x5c obj/external/Components/Dcm/Implementation/Dcm_Svc2E.o
 .debug_frame   0x00004034       0xec obj/external/Components/Dcm/Implementation/Dcm_Svc2F.o
 .debug_frame   0x00004120       0x48 obj/external/Components/Dcm/Implementation/Dcm_Svc31.o
 .debug_frame   0x00004168       0x40 obj/external/Components/Dcm/Implementation/Dcm_Svc3D.o
 .debug_frame   0x000041a8       0x2c obj/external/Components/Dcm/Implementation/Dcm_Svc3E.o
 .debug_frame   0x000041d4       0xd4 obj/external/Components/Dcm/Implementation/Dcm_Svc85.o
 .debug_frame   0x000042a8       0xf0 obj/external/Components/Dcm/Implementation/Dcm_Tmr.o
 .debug_frame   0x00004398      0x14c obj/external/Components/Dcm/Implementation/Dcm_Tsk.o
 .debug_frame   0x000044e4      0x1e8 obj/external/Components/Dcm/Implementation/Dcm_Uti.o
 .debug_frame   0x000046cc       0x20 obj/external/Components/Dcm/Implementation/Dcm_VarMgr.o
 .debug_frame   0x000046ec     0x1b44 obj/external/Components/Dem/Implementation/Dem.o
 .debug_frame   0x00006230       0x9c obj/external/Components/Det/Implementation/Det.o
 .debug_frame   0x000062cc      0x2ec obj/external/Components/EcuM/Implementation/EcuM.o
 .debug_frame   0x000065b8      0x200 obj/external/Components/Fee/Implementation/Fee.o
 .debug_frame   0x000067b8      0x424 obj/external/Components/Fee/Implementation/Fee_ChunkInfo.o
 .debug_frame   0x00006bdc      0x184 obj/external/Components/Fee/Implementation/Fee_Partition.o
 .debug_frame   0x00006d60     0x10a4 obj/external/Components/Fee/Implementation/Fee_Processing.o
 .debug_frame   0x00007e04      0x34c obj/external/Components/Fee/Implementation/Fee_Sector.o
 .debug_frame   0x00008150       0xd4 obj/external/Components/IpduM/Implementation/IpduM.o
 .debug_frame   0x00008224      0x16c obj/external/Components/IpduM/Implementation/IpduM_Container.o
 .debug_frame   0x00008390      0x108 obj/external/Components/MemIf/Implementation/MemIf.o
 .debug_frame   0x00008498      0x1d4 obj/external/Components/Nm/Implementation/Nm.o
 .debug_frame   0x0000866c      0x240 obj/external/Components/NvM/Implementation/NvM.o
 .debug_frame   0x000088ac      0x698 obj/external/Components/NvM/Implementation/NvM_Act.o
 .debug_frame   0x00008f44      0x1ec obj/external/Components/NvM/Implementation/NvM_Crc.o
 .debug_frame   0x00009130       0xf0 obj/external/Components/NvM/Implementation/NvM_DataIntegrity.o
 .debug_frame   0x00009220       0x8c obj/external/Components/NvM/Implementation/NvM_JobProc.o
 .debug_frame   0x000092ac      0x104 obj/external/Components/NvM/Implementation/NvM_MemIfAbstraction.o
 .debug_frame   0x000093b0      0x2fc obj/external/Components/NvM/Implementation/NvM_Qry.o
 .debug_frame   0x000096ac      0x118 obj/external/Components/NvM/Implementation/NvM_Queue.o
 .debug_frame   0x000097c4       0x30 obj/external/Components/Os/Implementation/Os_AccessCheck.o
 .debug_frame   0x000097f4      0x250 obj/external/Components/Os/Implementation/Os_Alarm.o
 .debug_frame   0x00009a44      0x170 obj/external/Components/Os/Implementation/Os_Application.o
 .debug_frame   0x00009bb4       0x70 obj/external/Components/Os/Implementation/Os_Barrier.o
 .debug_frame   0x00009c24      0x37c obj/external/Components/Os/Implementation/Os_Core.o
 .debug_frame   0x00009fa0      0x234 obj/external/Components/Os/Implementation/Os_Counter.o
 .debug_frame   0x0000a1d4      0x618 obj/external/Components/Os/Implementation/Os_Error.o
 .debug_frame   0x0000a7ec      0x13c obj/external/Components/Os/Implementation/Os_Event.o
 .debug_frame   0x0000a928       0x7c obj/external/Components/Os/Implementation/Os_Hal_Context.o
 .debug_frame   0x0000a9a4       0x40 obj/external/Components/Os/Implementation/Os_Hal_Core.o
 .debug_frame   0x0000a9e4      0x1e4 obj/external/Components/Os/Implementation/Os_Hook.o
 .debug_frame   0x0000abc8       0xd0 obj/external/Components/Os/Implementation/Os_Interrupt.o
 .debug_frame   0x0000ac98      0x294 obj/external/Components/Os/Implementation/Os_Ioc.o
 .debug_frame   0x0000af2c      0x1b0 obj/external/Components/Os/Implementation/Os_Isr.o
 .debug_frame   0x0000b0dc       0x2c obj/external/Components/Os/Implementation/Os_MemoryProtection.o
 .debug_frame   0x0000b108      0x124 obj/external/Components/Os/Implementation/Os_Peripheral.o
 .debug_frame   0x0000b22c       0x98 obj/external/Components/Os/Implementation/Os_PriorityQueue.o
 .debug_frame   0x0000b2c4       0xb4 obj/external/Components/Os/Implementation/Os_Resource.o
 .debug_frame   0x0000b378      0x170 obj/external/Components/Os/Implementation/Os_ScheduleTable.o
 .debug_frame   0x0000b4e8      0x1a4 obj/external/Components/Os/Implementation/Os_Scheduler.o
 .debug_frame   0x0000b68c       0xb4 obj/external/Components/Os/Implementation/Os_ServiceFunction.o
 .debug_frame   0x0000b740       0xa4 obj/external/Components/Os/Implementation/Os_Spinlock.o
 .debug_frame   0x0000b7e4      0x1e0 obj/external/Components/Os/Implementation/Os_Stack.o
 .debug_frame   0x0000b9c4      0x278 obj/external/Components/Os/Implementation/Os_Task.o
 .debug_frame   0x0000bc3c       0x2c obj/external/Components/Os/Implementation/Os_Thread.o
 .debug_frame   0x0000bc68       0xa4 obj/external/Components/Os/Implementation/Os_Timer.o
 .debug_frame   0x0000bd0c       0x94 obj/external/Components/Os/Implementation/Os_TimingProtection.o
 .debug_frame   0x0000bda0     0x19cc obj/external/Components/Os/Implementation/Os_Trap.o
 .debug_frame   0x0000d76c      0x334 obj/external/Components/Os/Implementation/Os_XSignal.o
 .debug_frame   0x0000daa0      0x1b8 obj/external/Components/PduR/Implementation/PduR.o
 .debug_frame   0x0000dc58      0x23c obj/external/Components/PduR/Implementation/PduR_Bm.o
 .debug_frame   0x0000de94      0x1d8 obj/external/Components/PduR/Implementation/PduR_Fm.o
 .debug_frame   0x0000e06c       0xb8 obj/external/Components/PduR/Implementation/PduR_Lock.o
 .debug_frame   0x0000e124      0x154 obj/external/Components/PduR/Implementation/PduR_RmIf.o
 .debug_frame   0x0000e278       0xb0 obj/external/Components/PduR/Implementation/PduR_RmTp.o
 .debug_frame   0x0000e328      0x538 obj/external/Components/VStdLib/Implementation/vstdlib.o
 .debug_frame   0x0000e860      0x4d0 obj/external/Components/Xcp/Implementation/Xcp.o
 .debug_frame   0x0000ed30       0x60 obj/external/ThirdParty/Mcal_S32x/Supply/SW32G_RTD_4.4_3.0.4/eclipse/plugins/Base_TS_T40D11M30I4R0/src/OsIf_Timer.o
 .debug_frame   0x0000ed90       0xb8 obj/external/ThirdParty/Mcal_S32x/Supply/SW32G_RTD_4.4_3.0.4/eclipse/plugins/Dio_TS_T40D11M30I4R0/src/Dio.o
 .debug_frame   0x0000ee48       0xd4 obj/external/ThirdParty/Mcal_S32x/Supply/SW32G_RTD_4.4_3.0.4/eclipse/plugins/Dio_TS_T40D11M30I4R0/src/Dio_Ipw.o
 .debug_frame   0x0000ef1c      0x164 obj/external/ThirdParty/Mcal_S32x/Supply/SW32G_RTD_4.4_3.0.4/eclipse/plugins/Dio_TS_T40D11M30I4R0/src/Siul2_Dio_Ip.o
 .debug_frame   0x0000f080      0x4b4 obj/external/ThirdParty/Mcal_S32x/Supply/SW32G_RTD_4.4_3.0.4/eclipse/plugins/Fls_TS_T40D11M30I4R0/src/Fls.o
 .debug_frame   0x0000f534      0x1dc obj/external/ThirdParty/Mcal_S32x/Supply/SW32G_RTD_4.4_3.0.4/eclipse/plugins/Fls_TS_T40D11M30I4R0/src/Fls_IPW.o
 .debug_frame   0x0000f710      0x600 obj/external/ThirdParty/Mcal_S32x/Supply/SW32G_RTD_4.4_3.0.4/eclipse/plugins/Fls_TS_T40D11M30I4R0/src/Qspi_Ip.o
 .debug_frame   0x0000fd10      0x2ec obj/external/ThirdParty/Mcal_S32x/Supply/SW32G_RTD_4.4_3.0.4/eclipse/plugins/Fls_TS_T40D11M30I4R0/src/Qspi_Ip_Controller.o
 .debug_frame   0x0000fffc      0x7ac obj/external/ThirdParty/Mcal_S32x/Supply/SW32G_RTD_4.4_3.0.4/eclipse/plugins/Fls_TS_T40D11M30I4R0/src/Qspi_Ip_Sfdp.o
 .debug_frame   0x000107a8       0x30 obj/external/ThirdParty/Mcal_S32x/Supply/SW32G_RTD_4.4_3.0.4/eclipse/plugins/Mcl_TS_T40D11M30I4R0/src/CDD_Mcl.o
 .debug_frame   0x000107d8      0x214 obj/external/ThirdParty/Mcal_S32x/Supply/SW32G_RTD_4.4_3.0.4/eclipse/plugins/Mcu_TS_T40D11M30I4R0/src/Clock_Ip.o
 .debug_frame   0x000109ec       0x94 obj/external/ThirdParty/Mcal_S32x/Supply/SW32G_RTD_4.4_3.0.4/eclipse/plugins/Mcu_TS_T40D11M30I4R0/src/Clock_Ip_Divider.o
 .debug_frame   0x00010a80       0x20 obj/external/ThirdParty/Mcal_S32x/Supply/SW32G_RTD_4.4_3.0.4/eclipse/plugins/Mcu_TS_T40D11M30I4R0/src/Clock_Ip_DividerTrigger.o
 .debug_frame   0x00010aa0       0x98 obj/external/ThirdParty/Mcal_S32x/Supply/SW32G_RTD_4.4_3.0.4/eclipse/plugins/Mcu_TS_T40D11M30I4R0/src/Clock_Ip_ExtOsc.o
 .debug_frame   0x00010b38       0x8c obj/external/ThirdParty/Mcal_S32x/Supply/SW32G_RTD_4.4_3.0.4/eclipse/plugins/Mcu_TS_T40D11M30I4R0/src/Clock_Ip_FracDiv.o
 .debug_frame   0x00010bc4       0x7c obj/external/ThirdParty/Mcal_S32x/Supply/SW32G_RTD_4.4_3.0.4/eclipse/plugins/Mcu_TS_T40D11M30I4R0/src/Clock_Ip_Gate.o
 .debug_frame   0x00010c40       0x30 obj/external/ThirdParty/Mcal_S32x/Supply/SW32G_RTD_4.4_3.0.4/eclipse/plugins/Mcu_TS_T40D11M30I4R0/src/Clock_Ip_IntOsc.o
 .debug_frame   0x00010c70       0x2c obj/external/ThirdParty/Mcal_S32x/Supply/SW32G_RTD_4.4_3.0.4/eclipse/plugins/Mcu_TS_T40D11M30I4R0/src/Clock_Ip_Irq.o
 .debug_frame   0x00010c9c      0x120 obj/external/ThirdParty/Mcal_S32x/Supply/SW32G_RTD_4.4_3.0.4/eclipse/plugins/Mcu_TS_T40D11M30I4R0/src/Clock_Ip_Monitor.o
 .debug_frame   0x00010dbc       0xf0 obj/external/ThirdParty/Mcal_S32x/Supply/SW32G_RTD_4.4_3.0.4/eclipse/plugins/Mcu_TS_T40D11M30I4R0/src/Clock_Ip_Pll.o
 .debug_frame   0x00010eac       0x48 obj/external/ThirdParty/Mcal_S32x/Supply/SW32G_RTD_4.4_3.0.4/eclipse/plugins/Mcu_TS_T40D11M30I4R0/src/Clock_Ip_ProgFreqSwitch.o
 .debug_frame   0x00010ef4      0x164 obj/external/ThirdParty/Mcal_S32x/Supply/SW32G_RTD_4.4_3.0.4/eclipse/plugins/Mcu_TS_T40D11M30I4R0/src/Clock_Ip_Selector.o
 .debug_frame   0x00011058       0x98 obj/external/ThirdParty/Mcal_S32x/Supply/SW32G_RTD_4.4_3.0.4/eclipse/plugins/Mcu_TS_T40D11M30I4R0/src/Clock_Ip_Specific.o
 .debug_frame   0x000110f0      0x100 obj/external/ThirdParty/Mcal_S32x/Supply/SW32G_RTD_4.4_3.0.4/eclipse/plugins/Mcu_TS_T40D11M30I4R0/src/Mcu.o
 .debug_frame   0x000111f0      0x100 obj/external/ThirdParty/Mcal_S32x/Supply/SW32G_RTD_4.4_3.0.4/eclipse/plugins/Mcu_TS_T40D11M30I4R0/src/Mcu_Ipw.o
 .debug_frame   0x000112f0       0xc8 obj/external/ThirdParty/Mcal_S32x/Supply/SW32G_RTD_4.4_3.0.4/eclipse/plugins/Mcu_TS_T40D11M30I4R0/src/Power_Ip.o
 .debug_frame   0x000113b8       0x6c obj/external/ThirdParty/Mcal_S32x/Supply/SW32G_RTD_4.4_3.0.4/eclipse/plugins/Mcu_TS_T40D11M30I4R0/src/Power_Ip_CortexM7.o
 .debug_frame   0x00011424      0x1a0 obj/external/ThirdParty/Mcal_S32x/Supply/SW32G_RTD_4.4_3.0.4/eclipse/plugins/Mcu_TS_T40D11M30I4R0/src/Power_Ip_MC_ME.o
 .debug_frame   0x000115c4      0x258 obj/external/ThirdParty/Mcal_S32x/Supply/SW32G_RTD_4.4_3.0.4/eclipse/plugins/Mcu_TS_T40D11M30I4R0/src/Power_Ip_MC_RGM.o
 .debug_frame   0x0001181c       0x20 obj/external/ThirdParty/Mcal_S32x/Supply/SW32G_RTD_4.4_3.0.4/eclipse/plugins/Mcu_TS_T40D11M30I4R0/src/Power_Ip_MSCM.o
 .debug_frame   0x0001183c       0x20 obj/external/ThirdParty/Mcal_S32x/Supply/SW32G_RTD_4.4_3.0.4/eclipse/plugins/Mcu_TS_T40D11M30I4R0/src/Power_Ip_PMC.o
 .debug_frame   0x0001185c       0x84 obj/external/ThirdParty/Mcal_S32x/Supply/SW32G_RTD_4.4_3.0.4/eclipse/plugins/Mcu_TS_T40D11M30I4R0/src/Power_Ip_Private.o
 .debug_frame   0x000118e0       0x44 obj/external/ThirdParty/Mcal_S32x/Supply/SW32G_RTD_4.4_3.0.4/eclipse/plugins/Mcu_TS_T40D11M30I4R0/src/Ram_Ip.o
 .debug_frame   0x00011924       0x9c obj/external/ThirdParty/Mcal_S32x/Supply/SW32G_RTD_4.4_3.0.4/eclipse/plugins/Port_TS_T40D11M30I4R0/src/Port.o
 .debug_frame   0x000119c0      0x110 obj/external/ThirdParty/Mcal_S32x/Supply/SW32G_RTD_4.4_3.0.4/eclipse/plugins/Port_TS_T40D11M30I4R0/src/Port_Ipw.o
 .debug_frame   0x00011ad0      0x13c obj/external/ThirdParty/Mcal_S32x/Supply/SW32G_RTD_4.4_3.0.4/eclipse/plugins/Port_TS_T40D11M30I4R0/src/Siul2_Port_Ip.o
 .debug_frame   0x00011c0c      0x3f0 obj/external/ap-cp-gateway/Appl/GenData/BswM_Lcfg.o
 .debug_frame   0x00011ffc       0x2c obj/external/ap-cp-gateway/Appl/GenData/ComM_Lcfg.o
 .debug_frame   0x00012028       0x48 obj/external/ap-cp-gateway/Appl/GenData/Com_Lcfg.o
 .debug_frame   0x00012070      0x11c obj/external/ap-cp-gateway/Appl/GenData/Dcm_Lcfg.o
 .debug_frame   0x0001218c       0x20 obj/external/ap-cp-gateway/Appl/GenData/Fee_Lcfg.o
 .debug_frame   0x000121ac       0x3c obj/external/ap-cp-gateway/Appl/GenData/IpduM_Lcfg.o
 .debug_frame   0x000121e8       0x2c obj/external/ap-cp-gateway/Appl/GenData/MemIf_Cfg.o
 .debug_frame   0x00012214       0x74 obj/external/ap-cp-gateway/Appl/GenData/NvM_Cfg.o
 .debug_frame   0x00012288      0x25c obj/external/ap-cp-gateway/Appl/GenData/PduR_Lcfg.o
 .debug_frame   0x000124e4      0xd1c obj/external/ap-cp-gateway/Appl/GenData/Rte.o
 .debug_frame   0x00013200       0x34 obj/external/ap-cp-gateway/Appl/Source/ARMBrsHwIntTb_CortexM.o
 .debug_frame   0x00013234       0xa4 obj/external/ap-cp-gateway/Appl/Source/ARMBrsHw_CortexM.o
 .debug_frame   0x000132d8       0x68 obj/external/ap-cp-gateway/Appl/Source/BrsHw.o
 .debug_frame   0x00013340      0x1c4 obj/external/ap-cp-gateway/Appl/Source/BrsMain.o
 .debug_frame   0x00013504       0xb4 obj/external/ap-cp-gateway/Appl/Source/BrsMainStartup.o
 .debug_frame   0x000135b8       0x80 obj/external/ap-cp-gateway/Appl/Source/BrsMain_Callout_Stubs.o
 .debug_frame   0x00013638       0x68 obj/external/ap-cp-gateway/Appl/Source/BswInit.o
 .debug_frame   0x000136a0       0xe8 obj/external/ap-cp-gateway/Appl/Source/BswM_Callout_Stubs.o
 .debug_frame   0x00013788       0xf0 obj/external/ap-cp-gateway/Appl/Source/Dcm_Callout_Stubs.o
 .debug_frame   0x00013878      0x110 obj/external/ap-cp-gateway/Appl/Source/EcuM_Callout_Stubs.o
 .debug_frame   0x00013988       0x2c obj/external/ap-cp-gateway/Appl/Source/Os_Callout_Stubs.o
 .debug_frame   0x000139b4       0x7c obj/external/ap-cp-gateway/Appl/Source/XcpAppl.o
 .debug_frame   0x00013a30       0x90 obj/external/ap-cp-gateway/Appl/Source/ipc-shm/Cdd_Ipc.o
 .debug_frame   0x00013ac0       0x84 obj/external/ap-cp-gateway/Appl/Source/ipc-shm/common/ipc-queue.o
 .debug_frame   0x00013b44      0x320 obj/external/ap-cp-gateway/Appl/Source/ipc-shm/common/ipc-shm.o
 .debug_frame   0x00013e64       0xc4 obj/external/ap-cp-gateway/Appl/Source/ipc-shm/hw/s32gen1/ipc-hw-s32gen1.o
 .debug_frame   0x00013f28       0xdc obj/external/ap-cp-gateway/Appl/Source/ipc-shm/os/autosar/ipc-os-autosar.o
 .debug_frame   0x00014004       0x28 C:/TOOLS/NXP/gcc-9.2-arm32-eabi/arm-none-eabi/newlib/lib/thumb/v7-m/nofp\libc.a(lib_a-memcpy-stub.o)
 .debug_frame   0x0001402c       0x20 C:/TOOLS/NXP/gcc-9.2-arm32-eabi/arm-none-eabi/newlib/lib/thumb/v7-m/nofp\libc.a(lib_a-memset.o)
